
===============================================================================
                          Initial Simulation State
===============================================================================
Processor State (e.g., Registers)
---------------------------------
PC: 00000000
00:00000000

RAM
---
13 01 C0 7E 13 04 01 00 B7 14 11 11 93 84 14 11
33 89 94 00 B3 09 99 00 33 8A 99 00 B3 0A 9A 00
33 8B 9A 00 B3 0B 9B 00 33 8C 9B 00 B3 0C 9C 00
33 8D 9C 00 B3 0D 9D 00 EF 00 40 17 73 00 10 00
13 01 01 FE 23 2E 11 00 03 AF 05 00 83 2F 06 00
23 A0 F5 01 23 20 E6 01 83 20 C1 01 13 01 01 02
67 80 00 00 13 01 01 FE 23 2E 11 00 23 2C 91 00
23 2A 21 01 23 28 31 01 23 26 41 01 23 24 51 01
23 22 B1 00 23 20 C1 00 13 0A 20 00 33 13 46 01
B3 0A 65 00 03 A9 0A 00 93 84 05 00 93 89 F5 FF
63 DE C4 02 B3 92 44 01 B3 0E 55 00 83 AF 0E 00
63 D2 2F 03 93 89 19 00 33 93 49 01 B3 05 65 00
13 86 0E 00 EF F0 DF F7 83 25 41 00 03 26 01 00
6F 00 40 00 93 84 14 00 6F F0 9F FC 93 89 19 00
33 93 49 01 B3 05 65 00 13 86 0A 00 EF F0 5F F5
83 25 41 00 03 26 01 00 13 85 09 00 83 24 81 01
03 29 41 01 83 29 01 01 03 2A C1 00 83 2A 81 00
83 20 C1 01 13 01 01 02 67 80 00 00 13 01 01 FE
23 2E 11 00 23 2A C1 00 23 26 A1 00 63 D4 C5 02
EF F0 5F F3 93 06 05 00 03 25 C1 00 13 86 F6 FF
EF F0 DF FD 93 85 16 00 03 26 41 01 EF F0 1F FD
03 26 41 01 83 20 C1 01 13 01 01 02 67 80 00 00
93 02 05 00 03 25 C0 7F 13 03 A0 00 93 03 00 00
63 DE 63 00 63 DC A3 00 03 2E C0 7F 23 A0 C2 01
93 82 42 00 93 83 13 00 6F F0 9F FE 67 80 00 00
63 0C 05 00 83 A2 05 00 23 2E 50 7E 93 85 45 00
13 05 F5 FF 6F F0 DF FE 67 80 00 00 13 01 01 FC
23 2E 11 02 23 2C 81 02 13 04 01 04 13 05 C4 FC
EF F0 1F FA 23 24 A4 FC 13 06 F5 FF 93 05 00 00
13 05 C4 FC EF F0 9F F4 03 25 84 FC 93 05 C4 FC
EF F0 1F FB 13 05 00 00 03 24 81 03 83 20 C1 03
13 01 01 04 67 80 00 00

StdIO
-----
Input:
0000000A 0000000A 00000009 00000008 00000007 00000006 00000005 00000004
00000003 00000002 00000001

===============================================================================
                            Program Execution
===============================================================================
000: 7EC00113  ADDI x2, x0, 2028   00:00000000
004: 00010413  ADDI x8, x2, 0      00:00000000 02:000007EC
008: 111114B7  LUI x9, 69905       00:00000000 02:000007EC 08:000007EC
00C: 11148493  ADDI x9, x9, 273    00:00000000 02:000007EC 08:000007EC 09:11111000
010: 00948933  ADD x18, x9, x9     00:00000000 02:000007EC 08:000007EC 09:11111111
014: 009909B3  ADD x19, x18, x9    00:00000000 02:000007EC 08:000007EC 09:11111111 12:22222222
018: 00998A33  ADD x20, x19, x9    00:00000000 02:000007EC 08:000007EC 09:11111111 12:22222222 13:33333333
01C: 009A0AB3  ADD x21, x20, x9    00:00000000 02:000007EC 08:000007EC 09:11111111 12:22222222 13:33333333 14:44444444
020: 009A8B33  ADD x22, x21, x9    00:00000000 02:000007EC 08:000007EC 09:11111111 12:22222222 13:33333333 14:44444444 15:55555555
024: 009B0BB3  ADD x23, x22, x9    00:00000000 02:000007EC 08:000007EC 09:11111111 12:22222222 13:33333333 14:44444444 15:55555555 16:66666666
028: 009B8C33  ADD x24, x23, x9    00:00000000 02:000007EC 08:000007EC 09:11111111 12:22222222 13:33333333 14:44444444 15:55555555 16:66666666 17:77777777
02C: 009C0CB3  ADD x25, x24, x9    00:00000000 02:000007EC 08:000007EC 09:11111111 12:22222222 13:33333333 14:44444444 15:55555555 16:66666666 17:77777777 18:88888888
030: 009C8D33  ADD x26, x25, x9    00:00000000 02:000007EC 08:000007EC 09:11111111 12:22222222 13:33333333 14:44444444 15:55555555 16:66666666 17:77777777 18:88888888 19:99999999
034: 009D0DB3  ADD x27, x26, x9    00:00000000 02:000007EC 08:000007EC 09:11111111 12:22222222 13:33333333 14:44444444 15:55555555 16:66666666 17:77777777 18:88888888 19:99999999 1A:AAAAAAAA
038: 174000EF  JAL x1, 372         00:00000000 02:000007EC 08:000007EC 09:11111111 12:22222222 13:33333333 14:44444444 15:55555555 16:66666666 17:77777777 18:88888888 19:99999999 1A:AAAAAAAA 1B:BBBBBBBB
1AC: FC010113  ADDI x2, x2, -64    00:00000000 01:0000003C 02:000007EC 08:000007EC 09:11111111 12:22222222 13:33333333 14:44444444 15:55555555 16:66666666 17:77777777 18:88888888 19:99999999 1A:AAAAAAAA 1B:BBBBBBBB
1B0: 02112E23  SW x1, 60(x2)       00:00000000 01:0000003C 02:000007AC 08:000007EC 09:11111111 12:22222222 13:33333333 14:44444444 15:55555555 16:66666666 17:77777777 18:88888888 19:99999999 1A:AAAAAAAA 1B:BBBBBBBB
1B4: 02812C23  SW x8, 56(x2)       00:00000000 01:0000003C 02:000007AC 08:000007EC 09:11111111 12:22222222 13:33333333 14:44444444 15:55555555 16:66666666 17:77777777 18:88888888 19:99999999 1A:AAAAAAAA 1B:BBBBBBBB
1B8: 04010413  ADDI x8, x2, 64     00:00000000 01:0000003C 02:000007AC 08:000007EC 09:11111111 12:22222222 13:33333333 14:44444444 15:55555555 16:66666666 17:77777777 18:88888888 19:99999999 1A:AAAAAAAA 1B:BBBBBBBB
1BC: FCC40513  ADDI x10, x8, -52   00:00000000 01:0000003C 02:000007AC 08:000007EC 09:11111111 12:22222222 13:33333333 14:44444444 15:55555555 16:66666666 17:77777777 18:88888888 19:99999999 1A:AAAAAAAA 1B:BBBBBBBB
1C0: FA1FF0EF  JAL x1, -96         00:00000000 01:0000003C 02:000007AC 08:000007EC 09:11111111 0A:000007B8 12:22222222 13:33333333 14:44444444 15:55555555 16:66666666 17:77777777 18:88888888 19:99999999 1A:AAAAAAAA 1B:BBBBBBBB
160: 00050293  ADDI x5, x10, 0     00:00000000 01:000001C4 02:000007AC 08:000007EC 09:11111111 0A:000007B8 12:22222222 13:33333333 14:44444444 15:55555555 16:66666666 17:77777777 18:88888888 19:99999999 1A:AAAAAAAA 1B:BBBBBBBB
164: 7FC02503  LW x10, 2044(x0)    00:00000000 01:000001C4 02:000007AC 05:000007B8 08:000007EC 09:11111111 0A:000007B8 12:22222222 13:33333333 14:44444444 15:55555555 16:66666666 17:77777777 18:88888888 19:99999999 1A:AAAAAAAA 1B:BBBBBBBB
168: 00A00313  ADDI x6, x0, 10     00:00000000 01:000001C4 02:000007AC 05:000007B8 08:000007EC 09:11111111 0A:0000000A 12:22222222 13:33333333 14:44444444 15:55555555 16:66666666 17:77777777 18:88888888 19:99999999 1A:AAAAAAAA 1B:BBBBBBBB
16C: 00000393  ADDI x7, x0, 0      00:00000000 01:000001C4 02:000007AC 05:000007B8 06:0000000A 08:000007EC 09:11111111 0A:0000000A 12:22222222 13:33333333 14:44444444 15:55555555 16:66666666 17:77777777 18:88888888 19:99999999 1A:AAAAAAAA 1B:BBBBBBBB
170: 0063DE63  BGE x7, x6, 28      00:00000000 01:000001C4 02:000007AC 05:000007B8 06:0000000A 07:00000000 08:000007EC 09:11111111 0A:0000000A 12:22222222 13:33333333 14:44444444 15:55555555 16:66666666 17:77777777 18:88888888 19:99999999 1A:AAAAAAAA 1B:BBBBBBBB
174: 00A3DC63  BGE x7, x10, 24     00:00000000 01:000001C4 02:000007AC 05:000007B8 06:0000000A 07:00000000 08:000007EC 09:11111111 0A:0000000A 12:22222222 13:33333333 14:44444444 15:55555555 16:66666666 17:77777777 18:88888888 19:99999999 1A:AAAAAAAA 1B:BBBBBBBB
178: 7FC02E03  LW x28, 2044(x0)    00:00000000 01:000001C4 02:000007AC 05:000007B8 06:0000000A 07:00000000 08:000007EC 09:11111111 0A:0000000A 12:22222222 13:33333333 14:44444444 15:55555555 16:66666666 17:77777777 18:88888888 19:99999999 1A:AAAAAAAA 1B:BBBBBBBB
17C: 01C2A023  SW x28, 0(x5)       00:00000000 01:000001C4 02:000007AC 05:000007B8 06:0000000A 07:00000000 08:000007EC 09:11111111 0A:0000000A 12:22222222 13:33333333 14:44444444 15:55555555 16:66666666 17:77777777 18:88888888 19:99999999 1A:AAAAAAAA 1B:BBBBBBBB 1C:0000000A
180: 00428293  ADDI x5, x5, 4      00:00000000 01:000001C4 02:000007AC 05:000007B8 06:0000000A 07:00000000 08:000007EC 09:11111111 0A:0000000A 12:22222222 13:33333333 14:44444444 15:55555555 16:66666666 17:77777777 18:88888888 19:99999999 1A:AAAAAAAA 1B:BBBBBBBB 1C:0000000A
184: 00138393  ADDI x7, x7, 1      00:00000000 01:000001C4 02:000007AC 05:000007BC 06:0000000A 07:00000000 08:000007EC 09:11111111 0A:0000000A 12:22222222 13:33333333 14:44444444 15:55555555 16:66666666 17:77777777 18:88888888 19:99999999 1A:AAAAAAAA 1B:BBBBBBBB 1C:0000000A
188: FE9FF06F  JAL x0, -24         00:00000000 01:000001C4 02:000007AC 05:000007BC 06:0000000A 07:00000001 08:000007EC 09:11111111 0A:0000000A 12:22222222 13:33333333 14:44444444 15:55555555 16:66666666 17:77777777 18:88888888 19:99999999 1A:AAAAAAAA 1B:BBBBBBBB 1C:0000000A
170: 0063DE63  BGE x7, x6, 28      00:00000000 01:000001C4 02:000007AC 05:000007BC 06:0000000A 07:00000001 08:000007EC 09:11111111 0A:0000000A 12:22222222 13:33333333 14:44444444 15:55555555 16:66666666 17:77777777 18:88888888 19:99999999 1A:AAAAAAAA 1B:BBBBBBBB 1C:0000000A
174: 00A3DC63  BGE x7, x10, 24     00:00000000 01:000001C4 02:000007AC 05:000007BC 06:0000000A 07:00000001 08:000007EC 09:11111111 0A:0000000A 12:22222222 13:33333333 14:44444444 15:55555555 16:66666666 17:77777777 18:88888888 19:99999999 1A:AAAAAAAA 1B:BBBBBBBB 1C:0000000A
178: 7FC02E03  LW x28, 2044(x0)    00:00000000 01:000001C4 02:000007AC 05:000007BC 06:0000000A 07:00000001 08:000007EC 09:11111111 0A:0000000A 12:22222222 13:33333333 14:44444444 15:55555555 16:66666666 17:77777777 18:88888888 19:99999999 1A:AAAAAAAA 1B:BBBBBBBB 1C:0000000A
17C: 01C2A023  SW x28, 0(x5)       00:00000000 01:000001C4 02:000007AC 05:000007BC 06:0000000A 07:00000001 08:000007EC 09:11111111 0A:0000000A 12:22222222 13:33333333 14:44444444 15:55555555 16:66666666 17:77777777 18:88888888 19:99999999 1A:AAAAAAAA 1B:BBBBBBBB 1C:00000009
180: 00428293  ADDI x5, x5, 4      00:00000000 01:000001C4 02:000007AC 05:000007BC 06:0000000A 07:00000001 08:000007EC 09:11111111 0A:0000000A 12:22222222 13:33333333 14:44444444 15:55555555 16:66666666 17:77777777 18:88888888 19:99999999 1A:AAAAAAAA 1B:BBBBBBBB 1C:00000009
184: 00138393  ADDI x7, x7, 1      00:00000000 01:000001C4 02:000007AC 05:000007C0 06:0000000A 07:00000001 08:000007EC 09:11111111 0A:0000000A 12:22222222 13:33333333 14:44444444 15:55555555 16:66666666 17:77777777 18:88888888 19:99999999 1A:AAAAAAAA 1B:BBBBBBBB 1C:00000009
188: FE9FF06F  JAL x0, -24         00:00000000 01:000001C4 02:000007AC 05:000007C0 06:0000000A 07:00000002 08:000007EC 09:11111111 0A:0000000A 12:22222222 13:33333333 14:44444444 15:55555555 16:66666666 17:77777777 18:88888888 19:99999999 1A:AAAAAAAA 1B:BBBBBBBB 1C:00000009
170: 0063DE63  BGE x7, x6, 28      00:00000000 01:000001C4 02:000007AC 05:000007C0 06:0000000A 07:00000002 08:000007EC 09:11111111 0A:0000000A 12:22222222 13:33333333 14:44444444 15:55555555 16:66666666 17:77777777 18:88888888 19:99999999 1A:AAAAAAAA 1B:BBBBBBBB 1C:00000009
174: 00A3DC63  BGE x7, x10, 24     00:00000000 01:000001C4 02:000007AC 05:000007C0 06:0000000A 07:00000002 08:000007EC 09:11111111 0A:0000000A 12:22222222 13:33333333 14:44444444 15:55555555 16:66666666 17:77777777 18:88888888 19:99999999 1A:AAAAAAAA 1B:BBBBBBBB 1C:00000009
178: 7FC02E03  LW x28, 2044(x0)    00:00000000 01:000001C4 02:000007AC 05:000007C0 06:0000000A 07:00000002 08:000007EC 09:11111111 0A:0000000A 12:22222222 13:33333333 14:44444444 15:55555555 16:66666666 17:77777777 18:88888888 19:99999999 1A:AAAAAAAA 1B:BBBBBBBB 1C:00000009
17C: 01C2A023  SW x28, 0(x5)       00:00000000 01:000001C4 02:000007AC 05:000007C0 06:0000000A 07:00000002 08:000007EC 09:11111111 0A:0000000A 12:22222222 13:33333333 14:44444444 15:55555555 16:66666666 17:77777777 18:88888888 19:99999999 1A:AAAAAAAA 1B:BBBBBBBB 1C:00000008
180: 00428293  ADDI x5, x5, 4      00:00000000 01:000001C4 02:000007AC 05:000007C0 06:0000000A 07:00000002 08:000007EC 09:11111111 0A:0000000A 12:22222222 13:33333333 14:44444444 15:55555555 16:66666666 17:77777777 18:88888888 19:99999999 1A:AAAAAAAA 1B:BBBBBBBB 1C:00000008
184: 00138393  ADDI x7, x7, 1      00:00000000 01:000001C4 02:000007AC 05:000007C4 06:0000000A 07:00000002 08:000007EC 09:11111111 0A:0000000A 12:22222222 13:33333333 14:44444444 15:55555555 16:66666666 17:77777777 18:88888888 19:99999999 1A:AAAAAAAA 1B:BBBBBBBB 1C:00000008
188: FE9FF06F  JAL x0, -24         00:00000000 01:000001C4 02:000007AC 05:000007C4 06:0000000A 07:00000003 08:000007EC 09:11111111 0A:0000000A 12:22222222 13:33333333 14:44444444 15:55555555 16:66666666 17:77777777 18:88888888 19:99999999 1A:AAAAAAAA 1B:BBBBBBBB 1C:00000008
170: 0063DE63  BGE x7, x6, 28      00:00000000 01:000001C4 02:000007AC 05:000007C4 06:0000000A 07:00000003 08:000007EC 09:11111111 0A:0000000A 12:22222222 13:33333333 14:44444444 15:55555555 16:66666666 17:77777777 18:88888888 19:99999999 1A:AAAAAAAA 1B:BBBBBBBB 1C:00000008
174: 00A3DC63  BGE x7, x10, 24     00:00000000 01:000001C4 02:000007AC 05:000007C4 06:0000000A 07:00000003 08:000007EC 09:11111111 0A:0000000A 12:22222222 13:33333333 14:44444444 15:55555555 16:66666666 17:77777777 18:88888888 19:99999999 1A:AAAAAAAA 1B:BBBBBBBB 1C:00000008
178: 7FC02E03  LW x28, 2044(x0)    00:00000000 01:000001C4 02:000007AC 05:000007C4 06:0000000A 07:00000003 08:000007EC 09:11111111 0A:0000000A 12:22222222 13:33333333 14:44444444 15:55555555 16:66666666 17:77777777 18:88888888 19:99999999 1A:AAAAAAAA 1B:BBBBBBBB 1C:00000008
17C: 01C2A023  SW x28, 0(x5)       00:00000000 01:000001C4 02:000007AC 05:000007C4 06:0000000A 07:00000003 08:000007EC 09:11111111 0A:0000000A 12:22222222 13:33333333 14:44444444 15:55555555 16:66666666 17:77777777 18:88888888 19:99999999 1A:AAAAAAAA 1B:BBBBBBBB 1C:00000007
180: 00428293  ADDI x5, x5, 4      00:00000000 01:000001C4 02:000007AC 05:000007C4 06:0000000A 07:00000003 08:000007EC 09:11111111 0A:0000000A 12:22222222 13:33333333 14:44444444 15:55555555 16:66666666 17:77777777 18:88888888 19:99999999 1A:AAAAAAAA 1B:BBBBBBBB 1C:00000007
184: 00138393  ADDI x7, x7, 1      00:00000000 01:000001C4 02:000007AC 05:000007C8 06:0000000A 07:00000003 08:000007EC 09:11111111 0A:0000000A 12:22222222 13:33333333 14:44444444 15:55555555 16:66666666 17:77777777 18:88888888 19:99999999 1A:AAAAAAAA 1B:BBBBBBBB 1C:00000007
188: FE9FF06F  JAL x0, -24         00:00000000 01:000001C4 02:000007AC 05:000007C8 06:0000000A 07:00000004 08:000007EC 09:11111111 0A:0000000A 12:22222222 13:33333333 14:44444444 15:55555555 16:66666666 17:77777777 18:88888888 19:99999999 1A:AAAAAAAA 1B:BBBBBBBB 1C:00000007
170: 0063DE63  BGE x7, x6, 28      00:00000000 01:000001C4 02:000007AC 05:000007C8 06:0000000A 07:00000004 08:000007EC 09:11111111 0A:0000000A 12:22222222 13:33333333 14:44444444 15:55555555 16:66666666 17:77777777 18:88888888 19:99999999 1A:AAAAAAAA 1B:BBBBBBBB 1C:00000007
174: 00A3DC63  BGE x7, x10, 24     00:00000000 01:000001C4 02:000007AC 05:000007C8 06:0000000A 07:00000004 08:000007EC 09:11111111 0A:0000000A 12:22222222 13:33333333 14:44444444 15:55555555 16:66666666 17:77777777 18:88888888 19:99999999 1A:AAAAAAAA 1B:BBBBBBBB 1C:00000007
178: 7FC02E03  LW x28, 2044(x0)    00:00000000 01:000001C4 02:000007AC 05:000007C8 06:0000000A 07:00000004 08:000007EC 09:11111111 0A:0000000A 12:22222222 13:33333333 14:44444444 15:55555555 16:66666666 17:77777777 18:88888888 19:99999999 1A:AAAAAAAA 1B:BBBBBBBB 1C:00000007
17C: 01C2A023  SW x28, 0(x5)       00:00000000 01:000001C4 02:000007AC 05:000007C8 06:0000000A 07:00000004 08:000007EC 09:11111111 0A:0000000A 12:22222222 13:33333333 14:44444444 15:55555555 16:66666666 17:77777777 18:88888888 19:99999999 1A:AAAAAAAA 1B:BBBBBBBB 1C:00000006
180: 00428293  ADDI x5, x5, 4      00:00000000 01:000001C4 02:000007AC 05:000007C8 06:0000000A 07:00000004 08:000007EC 09:11111111 0A:0000000A 12:22222222 13:33333333 14:44444444 15:55555555 16:66666666 17:77777777 18:88888888 19:99999999 1A:AAAAAAAA 1B:BBBBBBBB 1C:00000006
184: 00138393  ADDI x7, x7, 1      00:00000000 01:000001C4 02:000007AC 05:000007CC 06:0000000A 07:00000004 08:000007EC 09:11111111 0A:0000000A 12:22222222 13:33333333 14:44444444 15:55555555 16:66666666 17:77777777 18:88888888 19:99999999 1A:AAAAAAAA 1B:BBBBBBBB 1C:00000006
188: FE9FF06F  JAL x0, -24         00:00000000 01:000001C4 02:000007AC 05:000007CC 06:0000000A 07:00000005 08:000007EC 09:11111111 0A:0000000A 12:22222222 13:33333333 14:44444444 15:55555555 16:66666666 17:77777777 18:88888888 19:99999999 1A:AAAAAAAA 1B:BBBBBBBB 1C:00000006
170: 0063DE63  BGE x7, x6, 28      00:00000000 01:000001C4 02:000007AC 05:000007CC 06:0000000A 07:00000005 08:000007EC 09:11111111 0A:0000000A 12:22222222 13:33333333 14:44444444 15:55555555 16:66666666 17:77777777 18:88888888 19:99999999 1A:AAAAAAAA 1B:BBBBBBBB 1C:00000006
174: 00A3DC63  BGE x7, x10, 24     00:00000000 01:000001C4 02:000007AC 05:000007CC 06:0000000A 07:00000005 08:000007EC 09:11111111 0A:0000000A 12:22222222 13:33333333 14:44444444 15:55555555 16:66666666 17:77777777 18:88888888 19:99999999 1A:AAAAAAAA 1B:BBBBBBBB 1C:00000006
178: 7FC02E03  LW x28, 2044(x0)    00:00000000 01:000001C4 02:000007AC 05:000007CC 06:0000000A 07:00000005 08:000007EC 09:11111111 0A:0000000A 12:22222222 13:33333333 14:44444444 15:55555555 16:66666666 17:77777777 18:88888888 19:99999999 1A:AAAAAAAA 1B:BBBBBBBB 1C:00000006
17C: 01C2A023  SW x28, 0(x5)       00:00000000 01:000001C4 02:000007AC 05:000007CC 06:0000000A 07:00000005 08:000007EC 09:11111111 0A:0000000A 12:22222222 13:33333333 14:44444444 15:55555555 16:66666666 17:77777777 18:88888888 19:99999999 1A:AAAAAAAA 1B:BBBBBBBB 1C:00000005
180: 00428293  ADDI x5, x5, 4      00:00000000 01:000001C4 02:000007AC 05:000007CC 06:0000000A 07:00000005 08:000007EC 09:11111111 0A:0000000A 12:22222222 13:33333333 14:44444444 15:55555555 16:66666666 17:77777777 18:88888888 19:99999999 1A:AAAAAAAA 1B:BBBBBBBB 1C:00000005
184: 00138393  ADDI x7, x7, 1      00:00000000 01:000001C4 02:000007AC 05:000007D0 06:0000000A 07:00000005 08:000007EC 09:11111111 0A:0000000A 12:22222222 13:33333333 14:44444444 15:55555555 16:66666666 17:77777777 18:88888888 19:99999999 1A:AAAAAAAA 1B:BBBBBBBB 1C:00000005
188: FE9FF06F  JAL x0, -24         00:00000000 01:000001C4 02:000007AC 05:000007D0 06:0000000A 07:00000006 08:000007EC 09:11111111 0A:0000000A 12:22222222 13:33333333 14:44444444 15:55555555 16:66666666 17:77777777 18:88888888 19:99999999 1A:AAAAAAAA 1B:BBBBBBBB 1C:00000005
170: 0063DE63  BGE x7, x6, 28      00:00000000 01:000001C4 02:000007AC 05:000007D0 06:0000000A 07:00000006 08:000007EC 09:11111111 0A:0000000A 12:22222222 13:33333333 14:44444444 15:55555555 16:66666666 17:77777777 18:88888888 19:99999999 1A:AAAAAAAA 1B:BBBBBBBB 1C:00000005
174: 00A3DC63  BGE x7, x10, 24     00:00000000 01:000001C4 02:000007AC 05:000007D0 06:0000000A 07:00000006 08:000007EC 09:11111111 0A:0000000A 12:22222222 13:33333333 14:44444444 15:55555555 16:66666666 17:77777777 18:88888888 19:99999999 1A:AAAAAAAA 1B:BBBBBBBB 1C:00000005
178: 7FC02E03  LW x28, 2044(x0)    00:00000000 01:000001C4 02:000007AC 05:000007D0 06:0000000A 07:00000006 08:000007EC 09:11111111 0A:0000000A 12:22222222 13:33333333 14:44444444 15:55555555 16:66666666 17:77777777 18:88888888 19:99999999 1A:AAAAAAAA 1B:BBBBBBBB 1C:00000005
17C: 01C2A023  SW x28, 0(x5)       00:00000000 01:000001C4 02:000007AC 05:000007D0 06:0000000A 07:00000006 08:000007EC 09:11111111 0A:0000000A 12:22222222 13:33333333 14:44444444 15:55555555 16:66666666 17:77777777 18:88888888 19:99999999 1A:AAAAAAAA 1B:BBBBBBBB 1C:00000004
180: 00428293  ADDI x5, x5, 4      00:00000000 01:000001C4 02:000007AC 05:000007D0 06:0000000A 07:00000006 08:000007EC 09:11111111 0A:0000000A 12:22222222 13:33333333 14:44444444 15:55555555 16:66666666 17:77777777 18:88888888 19:99999999 1A:AAAAAAAA 1B:BBBBBBBB 1C:00000004
184: 00138393  ADDI x7, x7, 1      00:00000000 01:000001C4 02:000007AC 05:000007D4 06:0000000A 07:00000006 08:000007EC 09:11111111 0A:0000000A 12:22222222 13:33333333 14:44444444 15:55555555 16:66666666 17:77777777 18:88888888 19:99999999 1A:AAAAAAAA 1B:BBBBBBBB 1C:00000004
188: FE9FF06F  JAL x0, -24         00:00000000 01:000001C4 02:000007AC 05:000007D4 06:0000000A 07:00000007 08:000007EC 09:11111111 0A:0000000A 12:22222222 13:33333333 14:44444444 15:55555555 16:66666666 17:77777777 18:88888888 19:99999999 1A:AAAAAAAA 1B:BBBBBBBB 1C:00000004
170: 0063DE63  BGE x7, x6, 28      00:00000000 01:000001C4 02:000007AC 05:000007D4 06:0000000A 07:00000007 08:000007EC 09:11111111 0A:0000000A 12:22222222 13:33333333 14:44444444 15:55555555 16:66666666 17:77777777 18:88888888 19:99999999 1A:AAAAAAAA 1B:BBBBBBBB 1C:00000004
174: 00A3DC63  BGE x7, x10, 24     00:00000000 01:000001C4 02:000007AC 05:000007D4 06:0000000A 07:00000007 08:000007EC 09:11111111 0A:0000000A 12:22222222 13:33333333 14:44444444 15:55555555 16:66666666 17:77777777 18:88888888 19:99999999 1A:AAAAAAAA 1B:BBBBBBBB 1C:00000004
178: 7FC02E03  LW x28, 2044(x0)    00:00000000 01:000001C4 02:000007AC 05:000007D4 06:0000000A 07:00000007 08:000007EC 09:11111111 0A:0000000A 12:22222222 13:33333333 14:44444444 15:55555555 16:66666666 17:77777777 18:88888888 19:99999999 1A:AAAAAAAA 1B:BBBBBBBB 1C:00000004
17C: 01C2A023  SW x28, 0(x5)       00:00000000 01:000001C4 02:000007AC 05:000007D4 06:0000000A 07:00000007 08:000007EC 09:11111111 0A:0000000A 12:22222222 13:33333333 14:44444444 15:55555555 16:66666666 17:77777777 18:88888888 19:99999999 1A:AAAAAAAA 1B:BBBBBBBB 1C:00000003
180: 00428293  ADDI x5, x5, 4      00:00000000 01:000001C4 02:000007AC 05:000007D4 06:0000000A 07:00000007 08:000007EC 09:11111111 0A:0000000A 12:22222222 13:33333333 14:44444444 15:55555555 16:66666666 17:77777777 18:88888888 19:99999999 1A:AAAAAAAA 1B:BBBBBBBB 1C:00000003
184: 00138393  ADDI x7, x7, 1      00:00000000 01:000001C4 02:000007AC 05:000007D8 06:0000000A 07:00000007 08:000007EC 09:11111111 0A:0000000A 12:22222222 13:33333333 14:44444444 15:55555555 16:66666666 17:77777777 18:88888888 19:99999999 1A:AAAAAAAA 1B:BBBBBBBB 1C:00000003
188: FE9FF06F  JAL x0, -24         00:00000000 01:000001C4 02:000007AC 05:000007D8 06:0000000A 07:00000008 08:000007EC 09:11111111 0A:0000000A 12:22222222 13:33333333 14:44444444 15:55555555 16:66666666 17:77777777 18:88888888 19:99999999 1A:AAAAAAAA 1B:BBBBBBBB 1C:00000003
170: 0063DE63  BGE x7, x6, 28      00:00000000 01:000001C4 02:000007AC 05:000007D8 06:0000000A 07:00000008 08:000007EC 09:11111111 0A:0000000A 12:22222222 13:33333333 14:44444444 15:55555555 16:66666666 17:77777777 18:88888888 19:99999999 1A:AAAAAAAA 1B:BBBBBBBB 1C:00000003
174: 00A3DC63  BGE x7, x10, 24     00:00000000 01:000001C4 02:000007AC 05:000007D8 06:0000000A 07:00000008 08:000007EC 09:11111111 0A:0000000A 12:22222222 13:33333333 14:44444444 15:55555555 16:66666666 17:77777777 18:88888888 19:99999999 1A:AAAAAAAA 1B:BBBBBBBB 1C:00000003
178: 7FC02E03  LW x28, 2044(x0)    00:00000000 01:000001C4 02:000007AC 05:000007D8 06:0000000A 07:00000008 08:000007EC 09:11111111 0A:0000000A 12:22222222 13:33333333 14:44444444 15:55555555 16:66666666 17:77777777 18:88888888 19:99999999 1A:AAAAAAAA 1B:BBBBBBBB 1C:00000003
17C: 01C2A023  SW x28, 0(x5)       00:00000000 01:000001C4 02:000007AC 05:000007D8 06:0000000A 07:00000008 08:000007EC 09:11111111 0A:0000000A 12:22222222 13:33333333 14:44444444 15:55555555 16:66666666 17:77777777 18:88888888 19:99999999 1A:AAAAAAAA 1B:BBBBBBBB 1C:00000002
180: 00428293  ADDI x5, x5, 4      00:00000000 01:000001C4 02:000007AC 05:000007D8 06:0000000A 07:00000008 08:000007EC 09:11111111 0A:0000000A 12:22222222 13:33333333 14:44444444 15:55555555 16:66666666 17:77777777 18:88888888 19:99999999 1A:AAAAAAAA 1B:BBBBBBBB 1C:00000002
184: 00138393  ADDI x7, x7, 1      00:00000000 01:000001C4 02:000007AC 05:000007DC 06:0000000A 07:00000008 08:000007EC 09:11111111 0A:0000000A 12:22222222 13:33333333 14:44444444 15:55555555 16:66666666 17:77777777 18:88888888 19:99999999 1A:AAAAAAAA 1B:BBBBBBBB 1C:00000002
188: FE9FF06F  JAL x0, -24         00:00000000 01:000001C4 02:000007AC 05:000007DC 06:0000000A 07:00000009 08:000007EC 09:11111111 0A:0000000A 12:22222222 13:33333333 14:44444444 15:55555555 16:66666666 17:77777777 18:88888888 19:99999999 1A:AAAAAAAA 1B:BBBBBBBB 1C:00000002
170: 0063DE63  BGE x7, x6, 28      00:00000000 01:000001C4 02:000007AC 05:000007DC 06:0000000A 07:00000009 08:000007EC 09:11111111 0A:0000000A 12:22222222 13:33333333 14:44444444 15:55555555 16:66666666 17:77777777 18:88888888 19:99999999 1A:AAAAAAAA 1B:BBBBBBBB 1C:00000002
174: 00A3DC63  BGE x7, x10, 24     00:00000000 01:000001C4 02:000007AC 05:000007DC 06:0000000A 07:00000009 08:000007EC 09:11111111 0A:0000000A 12:22222222 13:33333333 14:44444444 15:55555555 16:66666666 17:77777777 18:88888888 19:99999999 1A:AAAAAAAA 1B:BBBBBBBB 1C:00000002
178: 7FC02E03  LW x28, 2044(x0)    00:00000000 01:000001C4 02:000007AC 05:000007DC 06:0000000A 07:00000009 08:000007EC 09:11111111 0A:0000000A 12:22222222 13:33333333 14:44444444 15:55555555 16:66666666 17:77777777 18:88888888 19:99999999 1A:AAAAAAAA 1B:BBBBBBBB 1C:00000002
17C: 01C2A023  SW x28, 0(x5)       00:00000000 01:000001C4 02:000007AC 05:000007DC 06:0000000A 07:00000009 08:000007EC 09:11111111 0A:0000000A 12:22222222 13:33333333 14:44444444 15:55555555 16:66666666 17:77777777 18:88888888 19:99999999 1A:AAAAAAAA 1B:BBBBBBBB 1C:00000001
180: 00428293  ADDI x5, x5, 4      00:00000000 01:000001C4 02:000007AC 05:000007DC 06:0000000A 07:00000009 08:000007EC 09:11111111 0A:0000000A 12:22222222 13:33333333 14:44444444 15:55555555 16:66666666 17:77777777 18:88888888 19:99999999 1A:AAAAAAAA 1B:BBBBBBBB 1C:00000001
184: 00138393  ADDI x7, x7, 1      00:00000000 01:000001C4 02:000007AC 05:000007E0 06:0000000A 07:00000009 08:000007EC 09:11111111 0A:0000000A 12:22222222 13:33333333 14:44444444 15:55555555 16:66666666 17:77777777 18:88888888 19:99999999 1A:AAAAAAAA 1B:BBBBBBBB 1C:00000001
188: FE9FF06F  JAL x0, -24         00:00000000 01:000001C4 02:000007AC 05:000007E0 06:0000000A 07:0000000A 08:000007EC 09:11111111 0A:0000000A 12:22222222 13:33333333 14:44444444 15:55555555 16:66666666 17:77777777 18:88888888 19:99999999 1A:AAAAAAAA 1B:BBBBBBBB 1C:00000001
170: 0063DE63  BGE x7, x6, 28      00:00000000 01:000001C4 02:000007AC 05:000007E0 06:0000000A 07:0000000A 08:000007EC 09:11111111 0A:0000000A 12:22222222 13:33333333 14:44444444 15:55555555 16:66666666 17:77777777 18:88888888 19:99999999 1A:AAAAAAAA 1B:BBBBBBBB 1C:00000001
18C: 00008067  JALR x0, 0(x1)      00:00000000 01:000001C4 02:000007AC 05:000007E0 06:0000000A 07:0000000A 08:000007EC 09:11111111 0A:0000000A 12:22222222 13:33333333 14:44444444 15:55555555 16:66666666 17:77777777 18:88888888 19:99999999 1A:AAAAAAAA 1B:BBBBBBBB 1C:00000001
1C4: FCA42423  SW x10, -56(x8)     00:00000000 01:000001C4 02:000007AC 05:000007E0 06:0000000A 07:0000000A 08:000007EC 09:11111111 0A:0000000A 12:22222222 13:33333333 14:44444444 15:55555555 16:66666666 17:77777777 18:88888888 19:99999999 1A:AAAAAAAA 1B:BBBBBBBB 1C:00000001
1C8: FFF50613  ADDI x12, x10, -1   00:00000000 01:000001C4 02:000007AC 05:000007E0 06:0000000A 07:0000000A 08:000007EC 09:11111111 0A:0000000A 12:22222222 13:33333333 14:44444444 15:55555555 16:66666666 17:77777777 18:88888888 19:99999999 1A:AAAAAAAA 1B:BBBBBBBB 1C:00000001
1CC: 00000593  ADDI x11, x0, 0     00:00000000 01:000001C4 02:000007AC 05:000007E0 06:0000000A 07:0000000A 08:000007EC 09:11111111 0A:0000000A 0C:00000009 12:22222222 13:33333333 14:44444444 15:55555555 16:66666666 17:77777777 18:88888888 19:99999999 1A:AAAAAAAA 1B:BBBBBBBB 1C:00000001
1D0: FCC40513  ADDI x10, x8, -52   00:00000000 01:000001C4 02:000007AC 05:000007E0 06:0000000A 07:0000000A 08:000007EC 09:11111111 0A:0000000A 0B:00000000 0C:00000009 12:22222222 13:33333333 14:44444444 15:55555555 16:66666666 17:77777777 18:88888888 19:99999999 1A:AAAAAAAA 1B:BBBBBBBB 1C:00000001
1D4: F49FF0EF  JAL x1, -184        00:00000000 01:000001C4 02:000007AC 05:000007E0 06:0000000A 07:0000000A 08:000007EC 09:11111111 0A:000007B8 0B:00000000 0C:00000009 12:22222222 13:33333333 14:44444444 15:55555555 16:66666666 17:77777777 18:88888888 19:99999999 1A:AAAAAAAA 1B:BBBBBBBB 1C:00000001
11C: FE010113  ADDI x2, x2, -32    00:00000000 01:000001D8 02:000007AC 05:000007E0 06:0000000A 07:0000000A 08:000007EC 09:11111111 0A:000007B8 0B:00000000 0C:00000009 12:22222222 13:33333333 14:44444444 15:55555555 16:66666666 17:77777777 18:88888888 19:99999999 1A:AAAAAAAA 1B:BBBBBBBB 1C:00000001
120: 00112E23  SW x1, 28(x2)       00:00000000 01:000001D8 02:0000078C 05:000007E0 06:0000000A 07:0000000A 08:000007EC 09:11111111 0A:000007B8 0B:00000000 0C:00000009 12:22222222 13:33333333 14:44444444 15:55555555 16:66666666 17:77777777 18:88888888 19:99999999 1A:AAAAAAAA 1B:BBBBBBBB 1C:00000001
124: 00C12A23  SW x12, 20(x2)      00:00000000 01:000001D8 02:0000078C 05:000007E0 06:0000000A 07:0000000A 08:000007EC 09:11111111 0A:000007B8 0B:00000000 0C:00000009 12:22222222 13:33333333 14:44444444 15:55555555 16:66666666 17:77777777 18:88888888 19:99999999 1A:AAAAAAAA 1B:BBBBBBBB 1C:00000001
128: 00A12623  SW x10, 12(x2)      00:00000000 01:000001D8 02:0000078C 05:000007E0 06:0000000A 07:0000000A 08:000007EC 09:11111111 0A:000007B8 0B:00000000 0C:00000009 12:22222222 13:33333333 14:44444444 15:55555555 16:66666666 17:77777777 18:88888888 19:99999999 1A:AAAAAAAA 1B:BBBBBBBB 1C:00000001
12C: 02C5D463  BGE x11, x12, 40    00:00000000 01:000001D8 02:0000078C 05:000007E0 06:0000000A 07:0000000A 08:000007EC 09:11111111 0A:000007B8 0B:00000000 0C:00000009 12:22222222 13:33333333 14:44444444 15:55555555 16:66666666 17:77777777 18:88888888 19:99999999 1A:AAAAAAAA 1B:BBBBBBBB 1C:00000001
130: F35FF0EF  JAL x1, -204        00:00000000 01:000001D8 02:0000078C 05:000007E0 06:0000000A 07:0000000A 08:000007EC 09:11111111 0A:000007B8 0B:00000000 0C:00000009 12:22222222 13:33333333 14:44444444 15:55555555 16:66666666 17:77777777 18:88888888 19:99999999 1A:AAAAAAAA 1B:BBBBBBBB 1C:00000001
064: FE010113  ADDI x2, x2, -32    00:00000000 01:00000134 02:0000078C 05:000007E0 06:0000000A 07:0000000A 08:000007EC 09:11111111 0A:000007B8 0B:00000000 0C:00000009 12:22222222 13:33333333 14:44444444 15:55555555 16:66666666 17:77777777 18:88888888 19:99999999 1A:AAAAAAAA 1B:BBBBBBBB 1C:00000001
068: 00112E23  SW x1, 28(x2)       00:00000000 01:00000134 02:0000076C 05:000007E0 06:0000000A 07:0000000A 08:000007EC 09:11111111 0A:000007B8 0B:00000000 0C:00000009 12:22222222 13:33333333 14:44444444 15:55555555 16:66666666 17:77777777 18:88888888 19:99999999 1A:AAAAAAAA 1B:BBBBBBBB 1C:00000001
06C: 00912C23  SW x9, 24(x2)       00:00000000 01:00000134 02:0000076C 05:000007E0 06:0000000A 07:0000000A 08:000007EC 09:11111111 0A:000007B8 0B:00000000 0C:00000009 12:22222222 13:33333333 14:44444444 15:55555555 16:66666666 17:77777777 18:88888888 19:99999999 1A:AAAAAAAA 1B:BBBBBBBB 1C:00000001
070: 01212A23  SW x18, 20(x2)      00:00000000 01:00000134 02:0000076C 05:000007E0 06:0000000A 07:0000000A 08:000007EC 09:11111111 0A:000007B8 0B:00000000 0C:00000009 12:22222222 13:33333333 14:44444444 15:55555555 16:66666666 17:77777777 18:88888888 19:99999999 1A:AAAAAAAA 1B:BBBBBBBB 1C:00000001
074: 01312823  SW x19, 16(x2)      00:00000000 01:00000134 02:0000076C 05:000007E0 06:0000000A 07:0000000A 08:000007EC 09:11111111 0A:000007B8 0B:00000000 0C:00000009 12:22222222 13:33333333 14:44444444 15:55555555 16:66666666 17:77777777 18:88888888 19:99999999 1A:AAAAAAAA 1B:BBBBBBBB 1C:00000001
078: 01412623  SW x20, 12(x2)      00:00000000 01:00000134 02:0000076C 05:000007E0 06:0000000A 07:0000000A 08:000007EC 09:11111111 0A:000007B8 0B:00000000 0C:00000009 12:22222222 13:33333333 14:44444444 15:55555555 16:66666666 17:77777777 18:88888888 19:99999999 1A:AAAAAAAA 1B:BBBBBBBB 1C:00000001
07C: 01512423  SW x21, 8(x2)       00:00000000 01:00000134 02:0000076C 05:000007E0 06:0000000A 07:0000000A 08:000007EC 09:11111111 0A:000007B8 0B:00000000 0C:00000009 12:22222222 13:33333333 14:44444444 15:55555555 16:66666666 17:77777777 18:88888888 19:99999999 1A:AAAAAAAA 1B:BBBBBBBB 1C:00000001
080: 00B12223  SW x11, 4(x2)       00:00000000 01:00000134 02:0000076C 05:000007E0 06:0000000A 07:0000000A 08:000007EC 09:11111111 0A:000007B8 0B:00000000 0C:00000009 12:22222222 13:33333333 14:44444444 15:55555555 16:66666666 17:77777777 18:88888888 19:99999999 1A:AAAAAAAA 1B:BBBBBBBB 1C:00000001
084: 00C12023  SW x12, 0(x2)       00:00000000 01:00000134 02:0000076C 05:000007E0 06:0000000A 07:0000000A 08:000007EC 09:11111111 0A:000007B8 0B:00000000 0C:00000009 12:22222222 13:33333333 14:44444444 15:55555555 16:66666666 17:77777777 18:88888888 19:99999999 1A:AAAAAAAA 1B:BBBBBBBB 1C:00000001
088: 00200A13  ADDI x20, x0, 2     00:00000000 01:00000134 02:0000076C 05:000007E0 06:0000000A 07:0000000A 08:000007EC 09:11111111 0A:000007B8 0B:00000000 0C:00000009 12:22222222 13:33333333 14:44444444 15:55555555 16:66666666 17:77777777 18:88888888 19:99999999 1A:AAAAAAAA 1B:BBBBBBBB 1C:00000001
08C: 01461333  SLL x6, x12, x20    00:00000000 01:00000134 02:0000076C 05:000007E0 06:0000000A 07:0000000A 08:000007EC 09:11111111 0A:000007B8 0B:00000000 0C:00000009 12:22222222 13:33333333 14:00000002 15:55555555 16:66666666 17:77777777 18:88888888 19:99999999 1A:AAAAAAAA 1B:BBBBBBBB 1C:00000001
090: 00650AB3  ADD x21, x10, x6    00:00000000 01:00000134 02:0000076C 05:000007E0 06:00000024 07:0000000A 08:000007EC 09:11111111 0A:000007B8 0B:00000000 0C:00000009 12:22222222 13:33333333 14:00000002 15:55555555 16:66666666 17:77777777 18:88888888 19:99999999 1A:AAAAAAAA 1B:BBBBBBBB 1C:00000001
094: 000AA903  LW x18, 0(x21)      00:00000000 01:00000134 02:0000076C 05:000007E0 06:00000024 07:0000000A 08:000007EC 09:11111111 0A:000007B8 0B:00000000 0C:00000009 12:22222222 13:33333333 14:00000002 15:000007DC 16:66666666 17:77777777 18:88888888 19:99999999 1A:AAAAAAAA 1B:BBBBBBBB 1C:00000001
098: 00058493  ADDI x9, x11, 0     00:00000000 01:00000134 02:0000076C 05:000007E0 06:00000024 07:0000000A 08:000007EC 09:11111111 0A:000007B8 0B:00000000 0C:00000009 12:00000001 13:33333333 14:00000002 15:000007DC 16:66666666 17:77777777 18:88888888 19:99999999 1A:AAAAAAAA 1B:BBBBBBBB 1C:00000001
09C: FFF58993  ADDI x19, x11, -1   00:00000000 01:00000134 02:0000076C 05:000007E0 06:00000024 07:0000000A 08:000007EC 09:00000000 0A:000007B8 0B:00000000 0C:00000009 12:00000001 13:33333333 14:00000002 15:000007DC 16:66666666 17:77777777 18:88888888 19:99999999 1A:AAAAAAAA 1B:BBBBBBBB 1C:00000001
0A0: 02C4DE63  BGE x9, x12, 60     00:00000000 01:00000134 02:0000076C 05:000007E0 06:00000024 07:0000000A 08:000007EC 09:00000000 0A:000007B8 0B:00000000 0C:00000009 12:00000001 13:FFFFFFFF 14:00000002 15:000007DC 16:66666666 17:77777777 18:88888888 19:99999999 1A:AAAAAAAA 1B:BBBBBBBB 1C:00000001
0A4: 014492B3  SLL x5, x9, x20     00:00000000 01:00000134 02:0000076C 05:000007E0 06:00000024 07:0000000A 08:000007EC 09:00000000 0A:000007B8 0B:00000000 0C:00000009 12:00000001 13:FFFFFFFF 14:00000002 15:000007DC 16:66666666 17:77777777 18:88888888 19:99999999 1A:AAAAAAAA 1B:BBBBBBBB 1C:00000001
0A8: 00550EB3  ADD x29, x10, x5    00:00000000 01:00000134 02:0000076C 05:00000000 06:00000024 07:0000000A 08:000007EC 09:00000000 0A:000007B8 0B:00000000 0C:00000009 12:00000001 13:FFFFFFFF 14:00000002 15:000007DC 16:66666666 17:77777777 18:88888888 19:99999999 1A:AAAAAAAA 1B:BBBBBBBB 1C:00000001
0AC: 000EAF83  LW x31, 0(x29)      00:00000000 01:00000134 02:0000076C 05:00000000 06:00000024 07:0000000A 08:000007EC 09:00000000 0A:000007B8 0B:00000000 0C:00000009 12:00000001 13:FFFFFFFF 14:00000002 15:000007DC 16:66666666 17:77777777 18:88888888 19:99999999 1A:AAAAAAAA 1B:BBBBBBBB 1C:00000001 1D:000007B8
0B0: 032FD263  BGE x31, x18, 36    00:00000000 01:00000134 02:0000076C 05:00000000 06:00000024 07:0000000A 08:000007EC 09:00000000 0A:000007B8 0B:00000000 0C:00000009 12:00000001 13:FFFFFFFF 14:00000002 15:000007DC 16:66666666 17:77777777 18:88888888 19:99999999 1A:AAAAAAAA 1B:BBBBBBBB 1C:00000001 1D:000007B8 1F:0000000A
0D4: 00148493  ADDI x9, x9, 1      00:00000000 01:00000134 02:0000076C 05:00000000 06:00000024 07:0000000A 08:000007EC 09:00000000 0A:000007B8 0B:00000000 0C:00000009 12:00000001 13:FFFFFFFF 14:00000002 15:000007DC 16:66666666 17:77777777 18:88888888 19:99999999 1A:AAAAAAAA 1B:BBBBBBBB 1C:00000001 1D:000007B8 1F:0000000A
0D8: FC9FF06F  JAL x0, -56         00:00000000 01:00000134 02:0000076C 05:00000000 06:00000024 07:0000000A 08:000007EC 09:00000001 0A:000007B8 0B:00000000 0C:00000009 12:00000001 13:FFFFFFFF 14:00000002 15:000007DC 16:66666666 17:77777777 18:88888888 19:99999999 1A:AAAAAAAA 1B:BBBBBBBB 1C:00000001 1D:000007B8 1F:0000000A
0A0: 02C4DE63  BGE x9, x12, 60     00:00000000 01:00000134 02:0000076C 05:00000000 06:00000024 07:0000000A 08:000007EC 09:00000001 0A:000007B8 0B:00000000 0C:00000009 12:00000001 13:FFFFFFFF 14:00000002 15:000007DC 16:66666666 17:77777777 18:88888888 19:99999999 1A:AAAAAAAA 1B:BBBBBBBB 1C:00000001 1D:000007B8 1F:0000000A
0A4: 014492B3  SLL x5, x9, x20     00:00000000 01:00000134 02:0000076C 05:00000000 06:00000024 07:0000000A 08:000007EC 09:00000001 0A:000007B8 0B:00000000 0C:00000009 12:00000001 13:FFFFFFFF 14:00000002 15:000007DC 16:66666666 17:77777777 18:88888888 19:99999999 1A:AAAAAAAA 1B:BBBBBBBB 1C:00000001 1D:000007B8 1F:0000000A
0A8: 00550EB3  ADD x29, x10, x5    00:00000000 01:00000134 02:0000076C 05:00000004 06:00000024 07:0000000A 08:000007EC 09:00000001 0A:000007B8 0B:00000000 0C:00000009 12:00000001 13:FFFFFFFF 14:00000002 15:000007DC 16:66666666 17:77777777 18:88888888 19:99999999 1A:AAAAAAAA 1B:BBBBBBBB 1C:00000001 1D:000007B8 1F:0000000A
0AC: 000EAF83  LW x31, 0(x29)      00:00000000 01:00000134 02:0000076C 05:00000004 06:00000024 07:0000000A 08:000007EC 09:00000001 0A:000007B8 0B:00000000 0C:00000009 12:00000001 13:FFFFFFFF 14:00000002 15:000007DC 16:66666666 17:77777777 18:88888888 19:99999999 1A:AAAAAAAA 1B:BBBBBBBB 1C:00000001 1D:000007BC 1F:0000000A
0B0: 032FD263  BGE x31, x18, 36    00:00000000 01:00000134 02:0000076C 05:00000004 06:00000024 07:0000000A 08:000007EC 09:00000001 0A:000007B8 0B:00000000 0C:00000009 12:00000001 13:FFFFFFFF 14:00000002 15:000007DC 16:66666666 17:77777777 18:88888888 19:99999999 1A:AAAAAAAA 1B:BBBBBBBB 1C:00000001 1D:000007BC 1F:00000009
0D4: 00148493  ADDI x9, x9, 1      00:00000000 01:00000134 02:0000076C 05:00000004 06:00000024 07:0000000A 08:000007EC 09:00000001 0A:000007B8 0B:00000000 0C:00000009 12:00000001 13:FFFFFFFF 14:00000002 15:000007DC 16:66666666 17:77777777 18:88888888 19:99999999 1A:AAAAAAAA 1B:BBBBBBBB 1C:00000001 1D:000007BC 1F:00000009
0D8: FC9FF06F  JAL x0, -56         00:00000000 01:00000134 02:0000076C 05:00000004 06:00000024 07:0000000A 08:000007EC 09:00000002 0A:000007B8 0B:00000000 0C:00000009 12:00000001 13:FFFFFFFF 14:00000002 15:000007DC 16:66666666 17:77777777 18:88888888 19:99999999 1A:AAAAAAAA 1B:BBBBBBBB 1C:00000001 1D:000007BC 1F:00000009
0A0: 02C4DE63  BGE x9, x12, 60     00:00000000 01:00000134 02:0000076C 05:00000004 06:00000024 07:0000000A 08:000007EC 09:00000002 0A:000007B8 0B:00000000 0C:00000009 12:00000001 13:FFFFFFFF 14:00000002 15:000007DC 16:66666666 17:77777777 18:88888888 19:99999999 1A:AAAAAAAA 1B:BBBBBBBB 1C:00000001 1D:000007BC 1F:00000009
0A4: 014492B3  SLL x5, x9, x20     00:00000000 01:00000134 02:0000076C 05:00000004 06:00000024 07:0000000A 08:000007EC 09:00000002 0A:000007B8 0B:00000000 0C:00000009 12:00000001 13:FFFFFFFF 14:00000002 15:000007DC 16:66666666 17:77777777 18:88888888 19:99999999 1A:AAAAAAAA 1B:BBBBBBBB 1C:00000001 1D:000007BC 1F:00000009
0A8: 00550EB3  ADD x29, x10, x5    00:00000000 01:00000134 02:0000076C 05:00000008 06:00000024 07:0000000A 08:000007EC 09:00000002 0A:000007B8 0B:00000000 0C:00000009 12:00000001 13:FFFFFFFF 14:00000002 15:000007DC 16:66666666 17:77777777 18:88888888 19:99999999 1A:AAAAAAAA 1B:BBBBBBBB 1C:00000001 1D:000007BC 1F:00000009
0AC: 000EAF83  LW x31, 0(x29)      00:00000000 01:00000134 02:0000076C 05:00000008 06:00000024 07:0000000A 08:000007EC 09:00000002 0A:000007B8 0B:00000000 0C:00000009 12:00000001 13:FFFFFFFF 14:00000002 15:000007DC 16:66666666 17:77777777 18:88888888 19:99999999 1A:AAAAAAAA 1B:BBBBBBBB 1C:00000001 1D:000007C0 1F:00000009
0B0: 032FD263  BGE x31, x18, 36    00:00000000 01:00000134 02:0000076C 05:00000008 06:00000024 07:0000000A 08:000007EC 09:00000002 0A:000007B8 0B:00000000 0C:00000009 12:00000001 13:FFFFFFFF 14:00000002 15:000007DC 16:66666666 17:77777777 18:88888888 19:99999999 1A:AAAAAAAA 1B:BBBBBBBB 1C:00000001 1D:000007C0 1F:00000008
0D4: 00148493  ADDI x9, x9, 1      00:00000000 01:00000134 02:0000076C 05:00000008 06:00000024 07:0000000A 08:000007EC 09:00000002 0A:000007B8 0B:00000000 0C:00000009 12:00000001 13:FFFFFFFF 14:00000002 15:000007DC 16:66666666 17:77777777 18:88888888 19:99999999 1A:AAAAAAAA 1B:BBBBBBBB 1C:00000001 1D:000007C0 1F:00000008
0D8: FC9FF06F  JAL x0, -56         00:00000000 01:00000134 02:0000076C 05:00000008 06:00000024 07:0000000A 08:000007EC 09:00000003 0A:000007B8 0B:00000000 0C:00000009 12:00000001 13:FFFFFFFF 14:00000002 15:000007DC 16:66666666 17:77777777 18:88888888 19:99999999 1A:AAAAAAAA 1B:BBBBBBBB 1C:00000001 1D:000007C0 1F:00000008
0A0: 02C4DE63  BGE x9, x12, 60     00:00000000 01:00000134 02:0000076C 05:00000008 06:00000024 07:0000000A 08:000007EC 09:00000003 0A:000007B8 0B:00000000 0C:00000009 12:00000001 13:FFFFFFFF 14:00000002 15:000007DC 16:66666666 17:77777777 18:88888888 19:99999999 1A:AAAAAAAA 1B:BBBBBBBB 1C:00000001 1D:000007C0 1F:00000008
0A4: 014492B3  SLL x5, x9, x20     00:00000000 01:00000134 02:0000076C 05:00000008 06:00000024 07:0000000A 08:000007EC 09:00000003 0A:000007B8 0B:00000000 0C:00000009 12:00000001 13:FFFFFFFF 14:00000002 15:000007DC 16:66666666 17:77777777 18:88888888 19:99999999 1A:AAAAAAAA 1B:BBBBBBBB 1C:00000001 1D:000007C0 1F:00000008
0A8: 00550EB3  ADD x29, x10, x5    00:00000000 01:00000134 02:0000076C 05:0000000C 06:00000024 07:0000000A 08:000007EC 09:00000003 0A:000007B8 0B:00000000 0C:00000009 12:00000001 13:FFFFFFFF 14:00000002 15:000007DC 16:66666666 17:77777777 18:88888888 19:99999999 1A:AAAAAAAA 1B:BBBBBBBB 1C:00000001 1D:000007C0 1F:00000008
0AC: 000EAF83  LW x31, 0(x29)      00:00000000 01:00000134 02:0000076C 05:0000000C 06:00000024 07:0000000A 08:000007EC 09:00000003 0A:000007B8 0B:00000000 0C:00000009 12:00000001 13:FFFFFFFF 14:00000002 15:000007DC 16:66666666 17:77777777 18:88888888 19:99999999 1A:AAAAAAAA 1B:BBBBBBBB 1C:00000001 1D:000007C4 1F:00000008
0B0: 032FD263  BGE x31, x18, 36    00:00000000 01:00000134 02:0000076C 05:0000000C 06:00000024 07:0000000A 08:000007EC 09:00000003 0A:000007B8 0B:00000000 0C:00000009 12:00000001 13:FFFFFFFF 14:00000002 15:000007DC 16:66666666 17:77777777 18:88888888 19:99999999 1A:AAAAAAAA 1B:BBBBBBBB 1C:00000001 1D:000007C4 1F:00000007
0D4: 00148493  ADDI x9, x9, 1      00:00000000 01:00000134 02:0000076C 05:0000000C 06:00000024 07:0000000A 08:000007EC 09:00000003 0A:000007B8 0B:00000000 0C:00000009 12:00000001 13:FFFFFFFF 14:00000002 15:000007DC 16:66666666 17:77777777 18:88888888 19:99999999 1A:AAAAAAAA 1B:BBBBBBBB 1C:00000001 1D:000007C4 1F:00000007
0D8: FC9FF06F  JAL x0, -56         00:00000000 01:00000134 02:0000076C 05:0000000C 06:00000024 07:0000000A 08:000007EC 09:00000004 0A:000007B8 0B:00000000 0C:00000009 12:00000001 13:FFFFFFFF 14:00000002 15:000007DC 16:66666666 17:77777777 18:88888888 19:99999999 1A:AAAAAAAA 1B:BBBBBBBB 1C:00000001 1D:000007C4 1F:00000007
0A0: 02C4DE63  BGE x9, x12, 60     00:00000000 01:00000134 02:0000076C 05:0000000C 06:00000024 07:0000000A 08:000007EC 09:00000004 0A:000007B8 0B:00000000 0C:00000009 12:00000001 13:FFFFFFFF 14:00000002 15:000007DC 16:66666666 17:77777777 18:88888888 19:99999999 1A:AAAAAAAA 1B:BBBBBBBB 1C:00000001 1D:000007C4 1F:00000007
0A4: 014492B3  SLL x5, x9, x20     00:00000000 01:00000134 02:0000076C 05:0000000C 06:00000024 07:0000000A 08:000007EC 09:00000004 0A:000007B8 0B:00000000 0C:00000009 12:00000001 13:FFFFFFFF 14:00000002 15:000007DC 16:66666666 17:77777777 18:88888888 19:99999999 1A:AAAAAAAA 1B:BBBBBBBB 1C:00000001 1D:000007C4 1F:00000007
0A8: 00550EB3  ADD x29, x10, x5    00:00000000 01:00000134 02:0000076C 05:00000010 06:00000024 07:0000000A 08:000007EC 09:00000004 0A:000007B8 0B:00000000 0C:00000009 12:00000001 13:FFFFFFFF 14:00000002 15:000007DC 16:66666666 17:77777777 18:88888888 19:99999999 1A:AAAAAAAA 1B:BBBBBBBB 1C:00000001 1D:000007C4 1F:00000007
0AC: 000EAF83  LW x31, 0(x29)      00:00000000 01:00000134 02:0000076C 05:00000010 06:00000024 07:0000000A 08:000007EC 09:00000004 0A:000007B8 0B:00000000 0C:00000009 12:00000001 13:FFFFFFFF 14:00000002 15:000007DC 16:66666666 17:77777777 18:88888888 19:99999999 1A:AAAAAAAA 1B:BBBBBBBB 1C:00000001 1D:000007C8 1F:00000007
0B0: 032FD263  BGE x31, x18, 36    00:00000000 01:00000134 02:0000076C 05:00000010 06:00000024 07:0000000A 08:000007EC 09:00000004 0A:000007B8 0B:00000000 0C:00000009 12:00000001 13:FFFFFFFF 14:00000002 15:000007DC 16:66666666 17:77777777 18:88888888 19:99999999 1A:AAAAAAAA 1B:BBBBBBBB 1C:00000001 1D:000007C8 1F:00000006
0D4: 00148493  ADDI x9, x9, 1      00:00000000 01:00000134 02:0000076C 05:00000010 06:00000024 07:0000000A 08:000007EC 09:00000004 0A:000007B8 0B:00000000 0C:00000009 12:00000001 13:FFFFFFFF 14:00000002 15:000007DC 16:66666666 17:77777777 18:88888888 19:99999999 1A:AAAAAAAA 1B:BBBBBBBB 1C:00000001 1D:000007C8 1F:00000006
0D8: FC9FF06F  JAL x0, -56         00:00000000 01:00000134 02:0000076C 05:00000010 06:00000024 07:0000000A 08:000007EC 09:00000005 0A:000007B8 0B:00000000 0C:00000009 12:00000001 13:FFFFFFFF 14:00000002 15:000007DC 16:66666666 17:77777777 18:88888888 19:99999999 1A:AAAAAAAA 1B:BBBBBBBB 1C:00000001 1D:000007C8 1F:00000006
0A0: 02C4DE63  BGE x9, x12, 60     00:00000000 01:00000134 02:0000076C 05:00000010 06:00000024 07:0000000A 08:000007EC 09:00000005 0A:000007B8 0B:00000000 0C:00000009 12:00000001 13:FFFFFFFF 14:00000002 15:000007DC 16:66666666 17:77777777 18:88888888 19:99999999 1A:AAAAAAAA 1B:BBBBBBBB 1C:00000001 1D:000007C8 1F:00000006
0A4: 014492B3  SLL x5, x9, x20     00:00000000 01:00000134 02:0000076C 05:00000010 06:00000024 07:0000000A 08:000007EC 09:00000005 0A:000007B8 0B:00000000 0C:00000009 12:00000001 13:FFFFFFFF 14:00000002 15:000007DC 16:66666666 17:77777777 18:88888888 19:99999999 1A:AAAAAAAA 1B:BBBBBBBB 1C:00000001 1D:000007C8 1F:00000006
0A8: 00550EB3  ADD x29, x10, x5    00:00000000 01:00000134 02:0000076C 05:00000014 06:00000024 07:0000000A 08:000007EC 09:00000005 0A:000007B8 0B:00000000 0C:00000009 12:00000001 13:FFFFFFFF 14:00000002 15:000007DC 16:66666666 17:77777777 18:88888888 19:99999999 1A:AAAAAAAA 1B:BBBBBBBB 1C:00000001 1D:000007C8 1F:00000006
0AC: 000EAF83  LW x31, 0(x29)      00:00000000 01:00000134 02:0000076C 05:00000014 06:00000024 07:0000000A 08:000007EC 09:00000005 0A:000007B8 0B:00000000 0C:00000009 12:00000001 13:FFFFFFFF 14:00000002 15:000007DC 16:66666666 17:77777777 18:88888888 19:99999999 1A:AAAAAAAA 1B:BBBBBBBB 1C:00000001 1D:000007CC 1F:00000006
0B0: 032FD263  BGE x31, x18, 36    00:00000000 01:00000134 02:0000076C 05:00000014 06:00000024 07:0000000A 08:000007EC 09:00000005 0A:000007B8 0B:00000000 0C:00000009 12:00000001 13:FFFFFFFF 14:00000002 15:000007DC 16:66666666 17:77777777 18:88888888 19:99999999 1A:AAAAAAAA 1B:BBBBBBBB 1C:00000001 1D:000007CC 1F:00000005
0D4: 00148493  ADDI x9, x9, 1      00:00000000 01:00000134 02:0000076C 05:00000014 06:00000024 07:0000000A 08:000007EC 09:00000005 0A:000007B8 0B:00000000 0C:00000009 12:00000001 13:FFFFFFFF 14:00000002 15:000007DC 16:66666666 17:77777777 18:88888888 19:99999999 1A:AAAAAAAA 1B:BBBBBBBB 1C:00000001 1D:000007CC 1F:00000005
0D8: FC9FF06F  JAL x0, -56         00:00000000 01:00000134 02:0000076C 05:00000014 06:00000024 07:0000000A 08:000007EC 09:00000006 0A:000007B8 0B:00000000 0C:00000009 12:00000001 13:FFFFFFFF 14:00000002 15:000007DC 16:66666666 17:77777777 18:88888888 19:99999999 1A:AAAAAAAA 1B:BBBBBBBB 1C:00000001 1D:000007CC 1F:00000005
0A0: 02C4DE63  BGE x9, x12, 60     00:00000000 01:00000134 02:0000076C 05:00000014 06:00000024 07:0000000A 08:000007EC 09:00000006 0A:000007B8 0B:00000000 0C:00000009 12:00000001 13:FFFFFFFF 14:00000002 15:000007DC 16:66666666 17:77777777 18:88888888 19:99999999 1A:AAAAAAAA 1B:BBBBBBBB 1C:00000001 1D:000007CC 1F:00000005
0A4: 014492B3  SLL x5, x9, x20     00:00000000 01:00000134 02:0000076C 05:00000014 06:00000024 07:0000000A 08:000007EC 09:00000006 0A:000007B8 0B:00000000 0C:00000009 12:00000001 13:FFFFFFFF 14:00000002 15:000007DC 16:66666666 17:77777777 18:88888888 19:99999999 1A:AAAAAAAA 1B:BBBBBBBB 1C:00000001 1D:000007CC 1F:00000005
0A8: 00550EB3  ADD x29, x10, x5    00:00000000 01:00000134 02:0000076C 05:00000018 06:00000024 07:0000000A 08:000007EC 09:00000006 0A:000007B8 0B:00000000 0C:00000009 12:00000001 13:FFFFFFFF 14:00000002 15:000007DC 16:66666666 17:77777777 18:88888888 19:99999999 1A:AAAAAAAA 1B:BBBBBBBB 1C:00000001 1D:000007CC 1F:00000005
0AC: 000EAF83  LW x31, 0(x29)      00:00000000 01:00000134 02:0000076C 05:00000018 06:00000024 07:0000000A 08:000007EC 09:00000006 0A:000007B8 0B:00000000 0C:00000009 12:00000001 13:FFFFFFFF 14:00000002 15:000007DC 16:66666666 17:77777777 18:88888888 19:99999999 1A:AAAAAAAA 1B:BBBBBBBB 1C:00000001 1D:000007D0 1F:00000005
0B0: 032FD263  BGE x31, x18, 36    00:00000000 01:00000134 02:0000076C 05:00000018 06:00000024 07:0000000A 08:000007EC 09:00000006 0A:000007B8 0B:00000000 0C:00000009 12:00000001 13:FFFFFFFF 14:00000002 15:000007DC 16:66666666 17:77777777 18:88888888 19:99999999 1A:AAAAAAAA 1B:BBBBBBBB 1C:00000001 1D:000007D0 1F:00000004
0D4: 00148493  ADDI x9, x9, 1      00:00000000 01:00000134 02:0000076C 05:00000018 06:00000024 07:0000000A 08:000007EC 09:00000006 0A:000007B8 0B:00000000 0C:00000009 12:00000001 13:FFFFFFFF 14:00000002 15:000007DC 16:66666666 17:77777777 18:88888888 19:99999999 1A:AAAAAAAA 1B:BBBBBBBB 1C:00000001 1D:000007D0 1F:00000004
0D8: FC9FF06F  JAL x0, -56         00:00000000 01:00000134 02:0000076C 05:00000018 06:00000024 07:0000000A 08:000007EC 09:00000007 0A:000007B8 0B:00000000 0C:00000009 12:00000001 13:FFFFFFFF 14:00000002 15:000007DC 16:66666666 17:77777777 18:88888888 19:99999999 1A:AAAAAAAA 1B:BBBBBBBB 1C:00000001 1D:000007D0 1F:00000004
0A0: 02C4DE63  BGE x9, x12, 60     00:00000000 01:00000134 02:0000076C 05:00000018 06:00000024 07:0000000A 08:000007EC 09:00000007 0A:000007B8 0B:00000000 0C:00000009 12:00000001 13:FFFFFFFF 14:00000002 15:000007DC 16:66666666 17:77777777 18:88888888 19:99999999 1A:AAAAAAAA 1B:BBBBBBBB 1C:00000001 1D:000007D0 1F:00000004
0A4: 014492B3  SLL x5, x9, x20     00:00000000 01:00000134 02:0000076C 05:00000018 06:00000024 07:0000000A 08:000007EC 09:00000007 0A:000007B8 0B:00000000 0C:00000009 12:00000001 13:FFFFFFFF 14:00000002 15:000007DC 16:66666666 17:77777777 18:88888888 19:99999999 1A:AAAAAAAA 1B:BBBBBBBB 1C:00000001 1D:000007D0 1F:00000004
0A8: 00550EB3  ADD x29, x10, x5    00:00000000 01:00000134 02:0000076C 05:0000001C 06:00000024 07:0000000A 08:000007EC 09:00000007 0A:000007B8 0B:00000000 0C:00000009 12:00000001 13:FFFFFFFF 14:00000002 15:000007DC 16:66666666 17:77777777 18:88888888 19:99999999 1A:AAAAAAAA 1B:BBBBBBBB 1C:00000001 1D:000007D0 1F:00000004
0AC: 000EAF83  LW x31, 0(x29)      00:00000000 01:00000134 02:0000076C 05:0000001C 06:00000024 07:0000000A 08:000007EC 09:00000007 0A:000007B8 0B:00000000 0C:00000009 12:00000001 13:FFFFFFFF 14:00000002 15:000007DC 16:66666666 17:77777777 18:88888888 19:99999999 1A:AAAAAAAA 1B:BBBBBBBB 1C:00000001 1D:000007D4 1F:00000004
0B0: 032FD263  BGE x31, x18, 36    00:00000000 01:00000134 02:0000076C 05:0000001C 06:00000024 07:0000000A 08:000007EC 09:00000007 0A:000007B8 0B:00000000 0C:00000009 12:00000001 13:FFFFFFFF 14:00000002 15:000007DC 16:66666666 17:77777777 18:88888888 19:99999999 1A:AAAAAAAA 1B:BBBBBBBB 1C:00000001 1D:000007D4 1F:00000003
0D4: 00148493  ADDI x9, x9, 1      00:00000000 01:00000134 02:0000076C 05:0000001C 06:00000024 07:0000000A 08:000007EC 09:00000007 0A:000007B8 0B:00000000 0C:00000009 12:00000001 13:FFFFFFFF 14:00000002 15:000007DC 16:66666666 17:77777777 18:88888888 19:99999999 1A:AAAAAAAA 1B:BBBBBBBB 1C:00000001 1D:000007D4 1F:00000003
0D8: FC9FF06F  JAL x0, -56         00:00000000 01:00000134 02:0000076C 05:0000001C 06:00000024 07:0000000A 08:000007EC 09:00000008 0A:000007B8 0B:00000000 0C:00000009 12:00000001 13:FFFFFFFF 14:00000002 15:000007DC 16:66666666 17:77777777 18:88888888 19:99999999 1A:AAAAAAAA 1B:BBBBBBBB 1C:00000001 1D:000007D4 1F:00000003
0A0: 02C4DE63  BGE x9, x12, 60     00:00000000 01:00000134 02:0000076C 05:0000001C 06:00000024 07:0000000A 08:000007EC 09:00000008 0A:000007B8 0B:00000000 0C:00000009 12:00000001 13:FFFFFFFF 14:00000002 15:000007DC 16:66666666 17:77777777 18:88888888 19:99999999 1A:AAAAAAAA 1B:BBBBBBBB 1C:00000001 1D:000007D4 1F:00000003
0A4: 014492B3  SLL x5, x9, x20     00:00000000 01:00000134 02:0000076C 05:0000001C 06:00000024 07:0000000A 08:000007EC 09:00000008 0A:000007B8 0B:00000000 0C:00000009 12:00000001 13:FFFFFFFF 14:00000002 15:000007DC 16:66666666 17:77777777 18:88888888 19:99999999 1A:AAAAAAAA 1B:BBBBBBBB 1C:00000001 1D:000007D4 1F:00000003
0A8: 00550EB3  ADD x29, x10, x5    00:00000000 01:00000134 02:0000076C 05:00000020 06:00000024 07:0000000A 08:000007EC 09:00000008 0A:000007B8 0B:00000000 0C:00000009 12:00000001 13:FFFFFFFF 14:00000002 15:000007DC 16:66666666 17:77777777 18:88888888 19:99999999 1A:AAAAAAAA 1B:BBBBBBBB 1C:00000001 1D:000007D4 1F:00000003
0AC: 000EAF83  LW x31, 0(x29)      00:00000000 01:00000134 02:0000076C 05:00000020 06:00000024 07:0000000A 08:000007EC 09:00000008 0A:000007B8 0B:00000000 0C:00000009 12:00000001 13:FFFFFFFF 14:00000002 15:000007DC 16:66666666 17:77777777 18:88888888 19:99999999 1A:AAAAAAAA 1B:BBBBBBBB 1C:00000001 1D:000007D8 1F:00000003
0B0: 032FD263  BGE x31, x18, 36    00:00000000 01:00000134 02:0000076C 05:00000020 06:00000024 07:0000000A 08:000007EC 09:00000008 0A:000007B8 0B:00000000 0C:00000009 12:00000001 13:FFFFFFFF 14:00000002 15:000007DC 16:66666666 17:77777777 18:88888888 19:99999999 1A:AAAAAAAA 1B:BBBBBBBB 1C:00000001 1D:000007D8 1F:00000002
0D4: 00148493  ADDI x9, x9, 1      00:00000000 01:00000134 02:0000076C 05:00000020 06:00000024 07:0000000A 08:000007EC 09:00000008 0A:000007B8 0B:00000000 0C:00000009 12:00000001 13:FFFFFFFF 14:00000002 15:000007DC 16:66666666 17:77777777 18:88888888 19:99999999 1A:AAAAAAAA 1B:BBBBBBBB 1C:00000001 1D:000007D8 1F:00000002
0D8: FC9FF06F  JAL x0, -56         00:00000000 01:00000134 02:0000076C 05:00000020 06:00000024 07:0000000A 08:000007EC 09:00000009 0A:000007B8 0B:00000000 0C:00000009 12:00000001 13:FFFFFFFF 14:00000002 15:000007DC 16:66666666 17:77777777 18:88888888 19:99999999 1A:AAAAAAAA 1B:BBBBBBBB 1C:00000001 1D:000007D8 1F:00000002
0A0: 02C4DE63  BGE x9, x12, 60     00:00000000 01:00000134 02:0000076C 05:00000020 06:00000024 07:0000000A 08:000007EC 09:00000009 0A:000007B8 0B:00000000 0C:00000009 12:00000001 13:FFFFFFFF 14:00000002 15:000007DC 16:66666666 17:77777777 18:88888888 19:99999999 1A:AAAAAAAA 1B:BBBBBBBB 1C:00000001 1D:000007D8 1F:00000002
0DC: 00198993  ADDI x19, x19, 1    00:00000000 01:00000134 02:0000076C 05:00000020 06:00000024 07:0000000A 08:000007EC 09:00000009 0A:000007B8 0B:00000000 0C:00000009 12:00000001 13:FFFFFFFF 14:00000002 15:000007DC 16:66666666 17:77777777 18:88888888 19:99999999 1A:AAAAAAAA 1B:BBBBBBBB 1C:00000001 1D:000007D8 1F:00000002
0E0: 01499333  SLL x6, x19, x20    00:00000000 01:00000134 02:0000076C 05:00000020 06:00000024 07:0000000A 08:000007EC 09:00000009 0A:000007B8 0B:00000000 0C:00000009 12:00000001 13:00000000 14:00000002 15:000007DC 16:66666666 17:77777777 18:88888888 19:99999999 1A:AAAAAAAA 1B:BBBBBBBB 1C:00000001 1D:000007D8 1F:00000002
0E4: 006505B3  ADD x11, x10, x6    00:00000000 01:00000134 02:0000076C 05:00000020 06:00000000 07:0000000A 08:000007EC 09:00000009 0A:000007B8 0B:00000000 0C:00000009 12:00000001 13:00000000 14:00000002 15:000007DC 16:66666666 17:77777777 18:88888888 19:99999999 1A:AAAAAAAA 1B:BBBBBBBB 1C:00000001 1D:000007D8 1F:00000002
0E8: 000A8613  ADDI x12, x21, 0    00:00000000 01:00000134 02:0000076C 05:00000020 06:00000000 07:0000000A 08:000007EC 09:00000009 0A:000007B8 0B:000007B8 0C:00000009 12:00000001 13:00000000 14:00000002 15:000007DC 16:66666666 17:77777777 18:88888888 19:99999999 1A:AAAAAAAA 1B:BBBBBBBB 1C:00000001 1D:000007D8 1F:00000002
0EC: F55FF0EF  JAL x1, -172        00:00000000 01:00000134 02:0000076C 05:00000020 06:00000000 07:0000000A 08:000007EC 09:00000009 0A:000007B8 0B:000007B8 0C:000007DC 12:00000001 13:00000000 14:00000002 15:000007DC 16:66666666 17:77777777 18:88888888 19:99999999 1A:AAAAAAAA 1B:BBBBBBBB 1C:00000001 1D:000007D8 1F:00000002
040: FE010113  ADDI x2, x2, -32    00:00000000 01:000000F0 02:0000076C 05:00000020 06:00000000 07:0000000A 08:000007EC 09:00000009 0A:000007B8 0B:000007B8 0C:000007DC 12:00000001 13:00000000 14:00000002 15:000007DC 16:66666666 17:77777777 18:88888888 19:99999999 1A:AAAAAAAA 1B:BBBBBBBB 1C:00000001 1D:000007D8 1F:00000002
044: 00112E23  SW x1, 28(x2)       00:00000000 01:000000F0 02:0000074C 05:00000020 06:00000000 07:0000000A 08:000007EC 09:00000009 0A:000007B8 0B:000007B8 0C:000007DC 12:00000001 13:00000000 14:00000002 15:000007DC 16:66666666 17:77777777 18:88888888 19:99999999 1A:AAAAAAAA 1B:BBBBBBBB 1C:00000001 1D:000007D8 1F:00000002
048: 0005AF03  LW x30, 0(x11)      00:00000000 01:000000F0 02:0000074C 05:00000020 06:00000000 07:0000000A 08:000007EC 09:00000009 0A:000007B8 0B:000007B8 0C:000007DC 12:00000001 13:00000000 14:00000002 15:000007DC 16:66666666 17:77777777 18:88888888 19:99999999 1A:AAAAAAAA 1B:BBBBBBBB 1C:00000001 1D:000007D8 1F:00000002
04C: 00062F83  LW x31, 0(x12)      00:00000000 01:000000F0 02:0000074C 05:00000020 06:00000000 07:0000000A 08:000007EC 09:00000009 0A:000007B8 0B:000007B8 0C:000007DC 12:00000001 13:00000000 14:00000002 15:000007DC 16:66666666 17:77777777 18:88888888 19:99999999 1A:AAAAAAAA 1B:BBBBBBBB 1C:00000001 1D:000007D8 1E:0000000A 1F:00000002
050: 01F5A023  SW x31, 0(x11)      00:00000000 01:000000F0 02:0000074C 05:00000020 06:00000000 07:0000000A 08:000007EC 09:00000009 0A:000007B8 0B:000007B8 0C:000007DC 12:00000001 13:00000000 14:00000002 15:000007DC 16:66666666 17:77777777 18:88888888 19:99999999 1A:AAAAAAAA 1B:BBBBBBBB 1C:00000001 1D:000007D8 1E:0000000A 1F:00000001
054: 01E62023  SW x30, 0(x12)      00:00000000 01:000000F0 02:0000074C 05:00000020 06:00000000 07:0000000A 08:000007EC 09:00000009 0A:000007B8 0B:000007B8 0C:000007DC 12:00000001 13:00000000 14:00000002 15:000007DC 16:66666666 17:77777777 18:88888888 19:99999999 1A:AAAAAAAA 1B:BBBBBBBB 1C:00000001 1D:000007D8 1E:0000000A 1F:00000001
058: 01C12083  LW x1, 28(x2)       00:00000000 01:000000F0 02:0000074C 05:00000020 06:00000000 07:0000000A 08:000007EC 09:00000009 0A:000007B8 0B:000007B8 0C:000007DC 12:00000001 13:00000000 14:00000002 15:000007DC 16:66666666 17:77777777 18:88888888 19:99999999 1A:AAAAAAAA 1B:BBBBBBBB 1C:00000001 1D:000007D8 1E:0000000A 1F:00000001
05C: 02010113  ADDI x2, x2, 32     00:00000000 01:000000F0 02:0000074C 05:00000020 06:00000000 07:0000000A 08:000007EC 09:00000009 0A:000007B8 0B:000007B8 0C:000007DC 12:00000001 13:00000000 14:00000002 15:000007DC 16:66666666 17:77777777 18:88888888 19:99999999 1A:AAAAAAAA 1B:BBBBBBBB 1C:00000001 1D:000007D8 1E:0000000A 1F:00000001
060: 00008067  JALR x0, 0(x1)      00:00000000 01:000000F0 02:0000076C 05:00000020 06:00000000 07:0000000A 08:000007EC 09:00000009 0A:000007B8 0B:000007B8 0C:000007DC 12:00000001 13:00000000 14:00000002 15:000007DC 16:66666666 17:77777777 18:88888888 19:99999999 1A:AAAAAAAA 1B:BBBBBBBB 1C:00000001 1D:000007D8 1E:0000000A 1F:00000001
0F0: 00412583  LW x11, 4(x2)       00:00000000 01:000000F0 02:0000076C 05:00000020 06:00000000 07:0000000A 08:000007EC 09:00000009 0A:000007B8 0B:000007B8 0C:000007DC 12:00000001 13:00000000 14:00000002 15:000007DC 16:66666666 17:77777777 18:88888888 19:99999999 1A:AAAAAAAA 1B:BBBBBBBB 1C:00000001 1D:000007D8 1E:0000000A 1F:00000001
0F4: 00012603  LW x12, 0(x2)       00:00000000 01:000000F0 02:0000076C 05:00000020 06:00000000 07:0000000A 08:000007EC 09:00000009 0A:000007B8 0B:00000000 0C:000007DC 12:00000001 13:00000000 14:00000002 15:000007DC 16:66666666 17:77777777 18:88888888 19:99999999 1A:AAAAAAAA 1B:BBBBBBBB 1C:00000001 1D:000007D8 1E:0000000A 1F:00000001
0F8: 00098513  ADDI x10, x19, 0    00:00000000 01:000000F0 02:0000076C 05:00000020 06:00000000 07:0000000A 08:000007EC 09:00000009 0A:000007B8 0B:00000000 0C:00000009 12:00000001 13:00000000 14:00000002 15:000007DC 16:66666666 17:77777777 18:88888888 19:99999999 1A:AAAAAAAA 1B:BBBBBBBB 1C:00000001 1D:000007D8 1E:0000000A 1F:00000001
0FC: 01812483  LW x9, 24(x2)       00:00000000 01:000000F0 02:0000076C 05:00000020 06:00000000 07:0000000A 08:000007EC 09:00000009 0A:00000000 0B:00000000 0C:00000009 12:00000001 13:00000000 14:00000002 15:000007DC 16:66666666 17:77777777 18:88888888 19:99999999 1A:AAAAAAAA 1B:BBBBBBBB 1C:00000001 1D:000007D8 1E:0000000A 1F:00000001
100: 01412903  LW x18, 20(x2)      00:00000000 01:000000F0 02:0000076C 05:00000020 06:00000000 07:0000000A 08:000007EC 09:11111111 0A:00000000 0B:00000000 0C:00000009 12:00000001 13:00000000 14:00000002 15:000007DC 16:66666666 17:77777777 18:88888888 19:99999999 1A:AAAAAAAA 1B:BBBBBBBB 1C:00000001 1D:000007D8 1E:0000000A 1F:00000001
104: 01012983  LW x19, 16(x2)      00:00000000 01:000000F0 02:0000076C 05:00000020 06:00000000 07:0000000A 08:000007EC 09:11111111 0A:00000000 0B:00000000 0C:00000009 12:22222222 13:00000000 14:00000002 15:000007DC 16:66666666 17:77777777 18:88888888 19:99999999 1A:AAAAAAAA 1B:BBBBBBBB 1C:00000001 1D:000007D8 1E:0000000A 1F:00000001
108: 00C12A03  LW x20, 12(x2)      00:00000000 01:000000F0 02:0000076C 05:00000020 06:00000000 07:0000000A 08:000007EC 09:11111111 0A:00000000 0B:00000000 0C:00000009 12:22222222 13:33333333 14:00000002 15:000007DC 16:66666666 17:77777777 18:88888888 19:99999999 1A:AAAAAAAA 1B:BBBBBBBB 1C:00000001 1D:000007D8 1E:0000000A 1F:00000001
10C: 00812A83  LW x21, 8(x2)       00:00000000 01:000000F0 02:0000076C 05:00000020 06:00000000 07:0000000A 08:000007EC 09:11111111 0A:00000000 0B:00000000 0C:00000009 12:22222222 13:33333333 14:44444444 15:000007DC 16:66666666 17:77777777 18:88888888 19:99999999 1A:AAAAAAAA 1B:BBBBBBBB 1C:00000001 1D:000007D8 1E:0000000A 1F:00000001
110: 01C12083  LW x1, 28(x2)       00:00000000 01:000000F0 02:0000076C 05:00000020 06:00000000 07:0000000A 08:000007EC 09:11111111 0A:00000000 0B:00000000 0C:00000009 12:22222222 13:33333333 14:44444444 15:55555555 16:66666666 17:77777777 18:88888888 19:99999999 1A:AAAAAAAA 1B:BBBBBBBB 1C:00000001 1D:000007D8 1E:0000000A 1F:00000001
114: 02010113  ADDI x2, x2, 32     00:00000000 01:00000134 02:0000076C 05:00000020 06:00000000 07:0000000A 08:000007EC 09:11111111 0A:00000000 0B:00000000 0C:00000009 12:22222222 13:33333333 14:44444444 15:55555555 16:66666666 17:77777777 18:88888888 19:99999999 1A:AAAAAAAA 1B:BBBBBBBB 1C:00000001 1D:000007D8 1E:0000000A 1F:00000001
118: 00008067  JALR x0, 0(x1)      00:00000000 01:00000134 02:0000078C 05:00000020 06:00000000 07:0000000A 08:000007EC 09:11111111 0A:00000000 0B:00000000 0C:00000009 12:22222222 13:33333333 14:44444444 15:55555555 16:66666666 17:77777777 18:88888888 19:99999999 1A:AAAAAAAA 1B:BBBBBBBB 1C:00000001 1D:000007D8 1E:0000000A 1F:00000001
134: 00050693  ADDI x13, x10, 0    00:00000000 01:00000134 02:0000078C 05:00000020 06:00000000 07:0000000A 08:000007EC 09:11111111 0A:00000000 0B:00000000 0C:00000009 12:22222222 13:33333333 14:44444444 15:55555555 16:66666666 17:77777777 18:88888888 19:99999999 1A:AAAAAAAA 1B:BBBBBBBB 1C:00000001 1D:000007D8 1E:0000000A 1F:00000001
138: 00C12503  LW x10, 12(x2)      00:00000000 01:00000134 02:0000078C 05:00000020 06:00000000 07:0000000A 08:000007EC 09:11111111 0A:00000000 0B:00000000 0C:00000009 0D:00000000 12:22222222 13:33333333 14:44444444 15:55555555 16:66666666 17:77777777 18:88888888 19:99999999 1A:AAAAAAAA 1B:BBBBBBBB 1C:00000001 1D:000007D8 1E:0000000A 1F:00000001
13C: FFF68613  ADDI x12, x13, -1   00:00000000 01:00000134 02:0000078C 05:00000020 06:00000000 07:0000000A 08:000007EC 09:11111111 0A:000007B8 0B:00000000 0C:00000009 0D:00000000 12:22222222 13:33333333 14:44444444 15:55555555 16:66666666 17:77777777 18:88888888 19:99999999 1A:AAAAAAAA 1B:BBBBBBBB 1C:00000001 1D:000007D8 1E:0000000A 1F:00000001
140: FDDFF0EF  JAL x1, -36         00:00000000 01:00000134 02:0000078C 05:00000020 06:00000000 07:0000000A 08:000007EC 09:11111111 0A:000007B8 0B:00000000 0C:FFFFFFFF 0D:00000000 12:22222222 13:33333333 14:44444444 15:55555555 16:66666666 17:77777777 18:88888888 19:99999999 1A:AAAAAAAA 1B:BBBBBBBB 1C:00000001 1D:000007D8 1E:0000000A 1F:00000001
11C: FE010113  ADDI x2, x2, -32    00:00000000 01:00000144 02:0000078C 05:00000020 06:00000000 07:0000000A 08:000007EC 09:11111111 0A:000007B8 0B:00000000 0C:FFFFFFFF 0D:00000000 12:22222222 13:33333333 14:44444444 15:55555555 16:66666666 17:77777777 18:88888888 19:99999999 1A:AAAAAAAA 1B:BBBBBBBB 1C:00000001 1D:000007D8 1E:0000000A 1F:00000001
120: 00112E23  SW x1, 28(x2)       00:00000000 01:00000144 02:0000076C 05:00000020 06:00000000 07:0000000A 08:000007EC 09:11111111 0A:000007B8 0B:00000000 0C:FFFFFFFF 0D:00000000 12:22222222 13:33333333 14:44444444 15:55555555 16:66666666 17:77777777 18:88888888 19:99999999 1A:AAAAAAAA 1B:BBBBBBBB 1C:00000001 1D:000007D8 1E:0000000A 1F:00000001
124: 00C12A23  SW x12, 20(x2)      00:00000000 01:00000144 02:0000076C 05:00000020 06:00000000 07:0000000A 08:000007EC 09:11111111 0A:000007B8 0B:00000000 0C:FFFFFFFF 0D:00000000 12:22222222 13:33333333 14:44444444 15:55555555 16:66666666 17:77777777 18:88888888 19:99999999 1A:AAAAAAAA 1B:BBBBBBBB 1C:00000001 1D:000007D8 1E:0000000A 1F:00000001
128: 00A12623  SW x10, 12(x2)      00:00000000 01:00000144 02:0000076C 05:00000020 06:00000000 07:0000000A 08:000007EC 09:11111111 0A:000007B8 0B:00000000 0C:FFFFFFFF 0D:00000000 12:22222222 13:33333333 14:44444444 15:55555555 16:66666666 17:77777777 18:88888888 19:99999999 1A:AAAAAAAA 1B:BBBBBBBB 1C:00000001 1D:000007D8 1E:0000000A 1F:00000001
12C: 02C5D463  BGE x11, x12, 40    00:00000000 01:00000144 02:0000076C 05:00000020 06:00000000 07:0000000A 08:000007EC 09:11111111 0A:000007B8 0B:00000000 0C:FFFFFFFF 0D:00000000 12:22222222 13:33333333 14:44444444 15:55555555 16:66666666 17:77777777 18:88888888 19:99999999 1A:AAAAAAAA 1B:BBBBBBBB 1C:00000001 1D:000007D8 1E:0000000A 1F:00000001
154: 01C12083  LW x1, 28(x2)       00:00000000 01:00000144 02:0000076C 05:00000020 06:00000000 07:0000000A 08:000007EC 09:11111111 0A:000007B8 0B:00000000 0C:FFFFFFFF 0D:00000000 12:22222222 13:33333333 14:44444444 15:55555555 16:66666666 17:77777777 18:88888888 19:99999999 1A:AAAAAAAA 1B:BBBBBBBB 1C:00000001 1D:000007D8 1E:0000000A 1F:00000001
158: 02010113  ADDI x2, x2, 32     00:00000000 01:00000144 02:0000076C 05:00000020 06:00000000 07:0000000A 08:000007EC 09:11111111 0A:000007B8 0B:00000000 0C:FFFFFFFF 0D:00000000 12:22222222 13:33333333 14:44444444 15:55555555 16:66666666 17:77777777 18:88888888 19:99999999 1A:AAAAAAAA 1B:BBBBBBBB 1C:00000001 1D:000007D8 1E:0000000A 1F:00000001
15C: 00008067  JALR x0, 0(x1)      00:00000000 01:00000144 02:0000078C 05:00000020 06:00000000 07:0000000A 08:000007EC 09:11111111 0A:000007B8 0B:00000000 0C:FFFFFFFF 0D:00000000 12:22222222 13:33333333 14:44444444 15:55555555 16:66666666 17:77777777 18:88888888 19:99999999 1A:AAAAAAAA 1B:BBBBBBBB 1C:00000001 1D:000007D8 1E:0000000A 1F:00000001
144: 00168593  ADDI x11, x13, 1    00:00000000 01:00000144 02:0000078C 05:00000020 06:00000000 07:0000000A 08:000007EC 09:11111111 0A:000007B8 0B:00000000 0C:FFFFFFFF 0D:00000000 12:22222222 13:33333333 14:44444444 15:55555555 16:66666666 17:77777777 18:88888888 19:99999999 1A:AAAAAAAA 1B:BBBBBBBB 1C:00000001 1D:000007D8 1E:0000000A 1F:00000001
148: 01412603  LW x12, 20(x2)      00:00000000 01:00000144 02:0000078C 05:00000020 06:00000000 07:0000000A 08:000007EC 09:11111111 0A:000007B8 0B:00000001 0C:FFFFFFFF 0D:00000000 12:22222222 13:33333333 14:44444444 15:55555555 16:66666666 17:77777777 18:88888888 19:99999999 1A:AAAAAAAA 1B:BBBBBBBB 1C:00000001 1D:000007D8 1E:0000000A 1F:00000001
14C: FD1FF0EF  JAL x1, -48         00:00000000 01:00000144 02:0000078C 05:00000020 06:00000000 07:0000000A 08:000007EC 09:11111111 0A:000007B8 0B:00000001 0C:00000009 0D:00000000 12:22222222 13:33333333 14:44444444 15:55555555 16:66666666 17:77777777 18:88888888 19:99999999 1A:AAAAAAAA 1B:BBBBBBBB 1C:00000001 1D:000007D8 1E:0000000A 1F:00000001
11C: FE010113  ADDI x2, x2, -32    00:00000000 01:00000150 02:0000078C 05:00000020 06:00000000 07:0000000A 08:000007EC 09:11111111 0A:000007B8 0B:00000001 0C:00000009 0D:00000000 12:22222222 13:33333333 14:44444444 15:55555555 16:66666666 17:77777777 18:88888888 19:99999999 1A:AAAAAAAA 1B:BBBBBBBB 1C:00000001 1D:000007D8 1E:0000000A 1F:00000001
120: 00112E23  SW x1, 28(x2)       00:00000000 01:00000150 02:0000076C 05:00000020 06:00000000 07:0000000A 08:000007EC 09:11111111 0A:000007B8 0B:00000001 0C:00000009 0D:00000000 12:22222222 13:33333333 14:44444444 15:55555555 16:66666666 17:77777777 18:88888888 19:99999999 1A:AAAAAAAA 1B:BBBBBBBB 1C:00000001 1D:000007D8 1E:0000000A 1F:00000001
124: 00C12A23  SW x12, 20(x2)      00:00000000 01:00000150 02:0000076C 05:00000020 06:00000000 07:0000000A 08:000007EC 09:11111111 0A:000007B8 0B:00000001 0C:00000009 0D:00000000 12:22222222 13:33333333 14:44444444 15:55555555 16:66666666 17:77777777 18:88888888 19:99999999 1A:AAAAAAAA 1B:BBBBBBBB 1C:00000001 1D:000007D8 1E:0000000A 1F:00000001
128: 00A12623  SW x10, 12(x2)      00:00000000 01:00000150 02:0000076C 05:00000020 06:00000000 07:0000000A 08:000007EC 09:11111111 0A:000007B8 0B:00000001 0C:00000009 0D:00000000 12:22222222 13:33333333 14:44444444 15:55555555 16:66666666 17:77777777 18:88888888 19:99999999 1A:AAAAAAAA 1B:BBBBBBBB 1C:00000001 1D:000007D8 1E:0000000A 1F:00000001
12C: 02C5D463  BGE x11, x12, 40    00:00000000 01:00000150 02:0000076C 05:00000020 06:00000000 07:0000000A 08:000007EC 09:11111111 0A:000007B8 0B:00000001 0C:00000009 0D:00000000 12:22222222 13:33333333 14:44444444 15:55555555 16:66666666 17:77777777 18:88888888 19:99999999 1A:AAAAAAAA 1B:BBBBBBBB 1C:00000001 1D:000007D8 1E:0000000A 1F:00000001
130: F35FF0EF  JAL x1, -204        00:00000000 01:00000150 02:0000076C 05:00000020 06:00000000 07:0000000A 08:000007EC 09:11111111 0A:000007B8 0B:00000001 0C:00000009 0D:00000000 12:22222222 13:33333333 14:44444444 15:55555555 16:66666666 17:77777777 18:88888888 19:99999999 1A:AAAAAAAA 1B:BBBBBBBB 1C:00000001 1D:000007D8 1E:0000000A 1F:00000001
064: FE010113  ADDI x2, x2, -32    00:00000000 01:00000134 02:0000076C 05:00000020 06:00000000 07:0000000A 08:000007EC 09:11111111 0A:000007B8 0B:00000001 0C:00000009 0D:00000000 12:22222222 13:33333333 14:44444444 15:55555555 16:66666666 17:77777777 18:88888888 19:99999999 1A:AAAAAAAA 1B:BBBBBBBB 1C:00000001 1D:000007D8 1E:0000000A 1F:00000001
068: 00112E23  SW x1, 28(x2)       00:00000000 01:00000134 02:0000074C 05:00000020 06:00000000 07:0000000A 08:000007EC 09:11111111 0A:000007B8 0B:00000001 0C:00000009 0D:00000000 12:22222222 13:33333333 14:44444444 15:55555555 16:66666666 17:77777777 18:88888888 19:99999999 1A:AAAAAAAA 1B:BBBBBBBB 1C:00000001 1D:000007D8 1E:0000000A 1F:00000001
06C: 00912C23  SW x9, 24(x2)       00:00000000 01:00000134 02:0000074C 05:00000020 06:00000000 07:0000000A 08:000007EC 09:11111111 0A:000007B8 0B:00000001 0C:00000009 0D:00000000 12:22222222 13:33333333 14:44444444 15:55555555 16:66666666 17:77777777 18:88888888 19:99999999 1A:AAAAAAAA 1B:BBBBBBBB 1C:00000001 1D:000007D8 1E:0000000A 1F:00000001
070: 01212A23  SW x18, 20(x2)      00:00000000 01:00000134 02:0000074C 05:00000020 06:00000000 07:0000000A 08:000007EC 09:11111111 0A:000007B8 0B:00000001 0C:00000009 0D:00000000 12:22222222 13:33333333 14:44444444 15:55555555 16:66666666 17:77777777 18:88888888 19:99999999 1A:AAAAAAAA 1B:BBBBBBBB 1C:00000001 1D:000007D8 1E:0000000A 1F:00000001
074: 01312823  SW x19, 16(x2)      00:00000000 01:00000134 02:0000074C 05:00000020 06:00000000 07:0000000A 08:000007EC 09:11111111 0A:000007B8 0B:00000001 0C:00000009 0D:00000000 12:22222222 13:33333333 14:44444444 15:55555555 16:66666666 17:77777777 18:88888888 19:99999999 1A:AAAAAAAA 1B:BBBBBBBB 1C:00000001 1D:000007D8 1E:0000000A 1F:00000001
078: 01412623  SW x20, 12(x2)      00:00000000 01:00000134 02:0000074C 05:00000020 06:00000000 07:0000000A 08:000007EC 09:11111111 0A:000007B8 0B:00000001 0C:00000009 0D:00000000 12:22222222 13:33333333 14:44444444 15:55555555 16:66666666 17:77777777 18:88888888 19:99999999 1A:AAAAAAAA 1B:BBBBBBBB 1C:00000001 1D:000007D8 1E:0000000A 1F:00000001
07C: 01512423  SW x21, 8(x2)       00:00000000 01:00000134 02:0000074C 05:00000020 06:00000000 07:0000000A 08:000007EC 09:11111111 0A:000007B8 0B:00000001 0C:00000009 0D:00000000 12:22222222 13:33333333 14:44444444 15:55555555 16:66666666 17:77777777 18:88888888 19:99999999 1A:AAAAAAAA 1B:BBBBBBBB 1C:00000001 1D:000007D8 1E:0000000A 1F:00000001
080: 00B12223  SW x11, 4(x2)       00:00000000 01:00000134 02:0000074C 05:00000020 06:00000000 07:0000000A 08:000007EC 09:11111111 0A:000007B8 0B:00000001 0C:00000009 0D:00000000 12:22222222 13:33333333 14:44444444 15:55555555 16:66666666 17:77777777 18:88888888 19:99999999 1A:AAAAAAAA 1B:BBBBBBBB 1C:00000001 1D:000007D8 1E:0000000A 1F:00000001
084: 00C12023  SW x12, 0(x2)       00:00000000 01:00000134 02:0000074C 05:00000020 06:00000000 07:0000000A 08:000007EC 09:11111111 0A:000007B8 0B:00000001 0C:00000009 0D:00000000 12:22222222 13:33333333 14:44444444 15:55555555 16:66666666 17:77777777 18:88888888 19:99999999 1A:AAAAAAAA 1B:BBBBBBBB 1C:00000001 1D:000007D8 1E:0000000A 1F:00000001
088: 00200A13  ADDI x20, x0, 2     00:00000000 01:00000134 02:0000074C 05:00000020 06:00000000 07:0000000A 08:000007EC 09:11111111 0A:000007B8 0B:00000001 0C:00000009 0D:00000000 12:22222222 13:33333333 14:44444444 15:55555555 16:66666666 17:77777777 18:88888888 19:99999999 1A:AAAAAAAA 1B:BBBBBBBB 1C:00000001 1D:000007D8 1E:0000000A 1F:00000001
08C: 01461333  SLL x6, x12, x20    00:00000000 01:00000134 02:0000074C 05:00000020 06:00000000 07:0000000A 08:000007EC 09:11111111 0A:000007B8 0B:00000001 0C:00000009 0D:00000000 12:22222222 13:33333333 14:00000002 15:55555555 16:66666666 17:77777777 18:88888888 19:99999999 1A:AAAAAAAA 1B:BBBBBBBB 1C:00000001 1D:000007D8 1E:0000000A 1F:00000001
090: 00650AB3  ADD x21, x10, x6    00:00000000 01:00000134 02:0000074C 05:00000020 06:00000024 07:0000000A 08:000007EC 09:11111111 0A:000007B8 0B:00000001 0C:00000009 0D:00000000 12:22222222 13:33333333 14:00000002 15:55555555 16:66666666 17:77777777 18:88888888 19:99999999 1A:AAAAAAAA 1B:BBBBBBBB 1C:00000001 1D:000007D8 1E:0000000A 1F:00000001
094: 000AA903  LW x18, 0(x21)      00:00000000 01:00000134 02:0000074C 05:00000020 06:00000024 07:0000000A 08:000007EC 09:11111111 0A:000007B8 0B:00000001 0C:00000009 0D:00000000 12:22222222 13:33333333 14:00000002 15:000007DC 16:66666666 17:77777777 18:88888888 19:99999999 1A:AAAAAAAA 1B:BBBBBBBB 1C:00000001 1D:000007D8 1E:0000000A 1F:00000001
098: 00058493  ADDI x9, x11, 0     00:00000000 01:00000134 02:0000074C 05:00000020 06:00000024 07:0000000A 08:000007EC 09:11111111 0A:000007B8 0B:00000001 0C:00000009 0D:00000000 12:0000000A 13:33333333 14:00000002 15:000007DC 16:66666666 17:77777777 18:88888888 19:99999999 1A:AAAAAAAA 1B:BBBBBBBB 1C:00000001 1D:000007D8 1E:0000000A 1F:00000001
09C: FFF58993  ADDI x19, x11, -1   00:00000000 01:00000134 02:0000074C 05:00000020 06:00000024 07:0000000A 08:000007EC 09:00000001 0A:000007B8 0B:00000001 0C:00000009 0D:00000000 12:0000000A 13:33333333 14:00000002 15:000007DC 16:66666666 17:77777777 18:88888888 19:99999999 1A:AAAAAAAA 1B:BBBBBBBB 1C:00000001 1D:000007D8 1E:0000000A 1F:00000001
0A0: 02C4DE63  BGE x9, x12, 60     00:00000000 01:00000134 02:0000074C 05:00000020 06:00000024 07:0000000A 08:000007EC 09:00000001 0A:000007B8 0B:00000001 0C:00000009 0D:00000000 12:0000000A 13:00000000 14:00000002 15:000007DC 16:66666666 17:77777777 18:88888888 19:99999999 1A:AAAAAAAA 1B:BBBBBBBB 1C:00000001 1D:000007D8 1E:0000000A 1F:00000001
0A4: 014492B3  SLL x5, x9, x20     00:00000000 01:00000134 02:0000074C 05:00000020 06:00000024 07:0000000A 08:000007EC 09:00000001 0A:000007B8 0B:00000001 0C:00000009 0D:00000000 12:0000000A 13:00000000 14:00000002 15:000007DC 16:66666666 17:77777777 18:88888888 19:99999999 1A:AAAAAAAA 1B:BBBBBBBB 1C:00000001 1D:000007D8 1E:0000000A 1F:00000001
0A8: 00550EB3  ADD x29, x10, x5    00:00000000 01:00000134 02:0000074C 05:00000004 06:00000024 07:0000000A 08:000007EC 09:00000001 0A:000007B8 0B:00000001 0C:00000009 0D:00000000 12:0000000A 13:00000000 14:00000002 15:000007DC 16:66666666 17:77777777 18:88888888 19:99999999 1A:AAAAAAAA 1B:BBBBBBBB 1C:00000001 1D:000007D8 1E:0000000A 1F:00000001
0AC: 000EAF83  LW x31, 0(x29)      00:00000000 01:00000134 02:0000074C 05:00000004 06:00000024 07:0000000A 08:000007EC 09:00000001 0A:000007B8 0B:00000001 0C:00000009 0D:00000000 12:0000000A 13:00000000 14:00000002 15:000007DC 16:66666666 17:77777777 18:88888888 19:99999999 1A:AAAAAAAA 1B:BBBBBBBB 1C:00000001 1D:000007BC 1E:0000000A 1F:00000001
0B0: 032FD263  BGE x31, x18, 36    00:00000000 01:00000134 02:0000074C 05:00000004 06:00000024 07:0000000A 08:000007EC 09:00000001 0A:000007B8 0B:00000001 0C:00000009 0D:00000000 12:0000000A 13:00000000 14:00000002 15:000007DC 16:66666666 17:77777777 18:88888888 19:99999999 1A:AAAAAAAA 1B:BBBBBBBB 1C:00000001 1D:000007BC 1E:0000000A 1F:00000009
0B4: 00198993  ADDI x19, x19, 1    00:00000000 01:00000134 02:0000074C 05:00000004 06:00000024 07:0000000A 08:000007EC 09:00000001 0A:000007B8 0B:00000001 0C:00000009 0D:00000000 12:0000000A 13:00000000 14:00000002 15:000007DC 16:66666666 17:77777777 18:88888888 19:99999999 1A:AAAAAAAA 1B:BBBBBBBB 1C:00000001 1D:000007BC 1E:0000000A 1F:00000009
0B8: 01499333  SLL x6, x19, x20    00:00000000 01:00000134 02:0000074C 05:00000004 06:00000024 07:0000000A 08:000007EC 09:00000001 0A:000007B8 0B:00000001 0C:00000009 0D:00000000 12:0000000A 13:00000001 14:00000002 15:000007DC 16:66666666 17:77777777 18:88888888 19:99999999 1A:AAAAAAAA 1B:BBBBBBBB 1C:00000001 1D:000007BC 1E:0000000A 1F:00000009
0BC: 006505B3  ADD x11, x10, x6    00:00000000 01:00000134 02:0000074C 05:00000004 06:00000004 07:0000000A 08:000007EC 09:00000001 0A:000007B8 0B:00000001 0C:00000009 0D:00000000 12:0000000A 13:00000001 14:00000002 15:000007DC 16:66666666 17:77777777 18:88888888 19:99999999 1A:AAAAAAAA 1B:BBBBBBBB 1C:00000001 1D:000007BC 1E:0000000A 1F:00000009
0C0: 000E8613  ADDI x12, x29, 0    00:00000000 01:00000134 02:0000074C 05:00000004 06:00000004 07:0000000A 08:000007EC 09:00000001 0A:000007B8 0B:000007BC 0C:00000009 0D:00000000 12:0000000A 13:00000001 14:00000002 15:000007DC 16:66666666 17:77777777 18:88888888 19:99999999 1A:AAAAAAAA 1B:BBBBBBBB 1C:00000001 1D:000007BC 1E:0000000A 1F:00000009
0C4: F7DFF0EF  JAL x1, -132        00:00000000 01:00000134 02:0000074C 05:00000004 06:00000004 07:0000000A 08:000007EC 09:00000001 0A:000007B8 0B:000007BC 0C:000007BC 0D:00000000 12:0000000A 13:00000001 14:00000002 15:000007DC 16:66666666 17:77777777 18:88888888 19:99999999 1A:AAAAAAAA 1B:BBBBBBBB 1C:00000001 1D:000007BC 1E:0000000A 1F:00000009
040: FE010113  ADDI x2, x2, -32    00:00000000 01:000000C8 02:0000074C 05:00000004 06:00000004 07:0000000A 08:000007EC 09:00000001 0A:000007B8 0B:000007BC 0C:000007BC 0D:00000000 12:0000000A 13:00000001 14:00000002 15:000007DC 16:66666666 17:77777777 18:88888888 19:99999999 1A:AAAAAAAA 1B:BBBBBBBB 1C:00000001 1D:000007BC 1E:0000000A 1F:00000009
044: 00112E23  SW x1, 28(x2)       00:00000000 01:000000C8 02:0000072C 05:00000004 06:00000004 07:0000000A 08:000007EC 09:00000001 0A:000007B8 0B:000007BC 0C:000007BC 0D:00000000 12:0000000A 13:00000001 14:00000002 15:000007DC 16:66666666 17:77777777 18:88888888 19:99999999 1A:AAAAAAAA 1B:BBBBBBBB 1C:00000001 1D:000007BC 1E:0000000A 1F:00000009
048: 0005AF03  LW x30, 0(x11)      00:00000000 01:000000C8 02:0000072C 05:00000004 06:00000004 07:0000000A 08:000007EC 09:00000001 0A:000007B8 0B:000007BC 0C:000007BC 0D:00000000 12:0000000A 13:00000001 14:00000002 15:000007DC 16:66666666 17:77777777 18:88888888 19:99999999 1A:AAAAAAAA 1B:BBBBBBBB 1C:00000001 1D:000007BC 1E:0000000A 1F:00000009
04C: 00062F83  LW x31, 0(x12)      00:00000000 01:000000C8 02:0000072C 05:00000004 06:00000004 07:0000000A 08:000007EC 09:00000001 0A:000007B8 0B:000007BC 0C:000007BC 0D:00000000 12:0000000A 13:00000001 14:00000002 15:000007DC 16:66666666 17:77777777 18:88888888 19:99999999 1A:AAAAAAAA 1B:BBBBBBBB 1C:00000001 1D:000007BC 1E:00000009 1F:00000009
050: 01F5A023  SW x31, 0(x11)      00:00000000 01:000000C8 02:0000072C 05:00000004 06:00000004 07:0000000A 08:000007EC 09:00000001 0A:000007B8 0B:000007BC 0C:000007BC 0D:00000000 12:0000000A 13:00000001 14:00000002 15:000007DC 16:66666666 17:77777777 18:88888888 19:99999999 1A:AAAAAAAA 1B:BBBBBBBB 1C:00000001 1D:000007BC 1E:00000009 1F:00000009
054: 01E62023  SW x30, 0(x12)      00:00000000 01:000000C8 02:0000072C 05:00000004 06:00000004 07:0000000A 08:000007EC 09:00000001 0A:000007B8 0B:000007BC 0C:000007BC 0D:00000000 12:0000000A 13:00000001 14:00000002 15:000007DC 16:66666666 17:77777777 18:88888888 19:99999999 1A:AAAAAAAA 1B:BBBBBBBB 1C:00000001 1D:000007BC 1E:00000009 1F:00000009
058: 01C12083  LW x1, 28(x2)       00:00000000 01:000000C8 02:0000072C 05:00000004 06:00000004 07:0000000A 08:000007EC 09:00000001 0A:000007B8 0B:000007BC 0C:000007BC 0D:00000000 12:0000000A 13:00000001 14:00000002 15:000007DC 16:66666666 17:77777777 18:88888888 19:99999999 1A:AAAAAAAA 1B:BBBBBBBB 1C:00000001 1D:000007BC 1E:00000009 1F:00000009
05C: 02010113  ADDI x2, x2, 32     00:00000000 01:000000C8 02:0000072C 05:00000004 06:00000004 07:0000000A 08:000007EC 09:00000001 0A:000007B8 0B:000007BC 0C:000007BC 0D:00000000 12:0000000A 13:00000001 14:00000002 15:000007DC 16:66666666 17:77777777 18:88888888 19:99999999 1A:AAAAAAAA 1B:BBBBBBBB 1C:00000001 1D:000007BC 1E:00000009 1F:00000009
060: 00008067  JALR x0, 0(x1)      00:00000000 01:000000C8 02:0000074C 05:00000004 06:00000004 07:0000000A 08:000007EC 09:00000001 0A:000007B8 0B:000007BC 0C:000007BC 0D:00000000 12:0000000A 13:00000001 14:00000002 15:000007DC 16:66666666 17:77777777 18:88888888 19:99999999 1A:AAAAAAAA 1B:BBBBBBBB 1C:00000001 1D:000007BC 1E:00000009 1F:00000009
0C8: 00412583  LW x11, 4(x2)       00:00000000 01:000000C8 02:0000074C 05:00000004 06:00000004 07:0000000A 08:000007EC 09:00000001 0A:000007B8 0B:000007BC 0C:000007BC 0D:00000000 12:0000000A 13:00000001 14:00000002 15:000007DC 16:66666666 17:77777777 18:88888888 19:99999999 1A:AAAAAAAA 1B:BBBBBBBB 1C:00000001 1D:000007BC 1E:00000009 1F:00000009
0CC: 00012603  LW x12, 0(x2)       00:00000000 01:000000C8 02:0000074C 05:00000004 06:00000004 07:0000000A 08:000007EC 09:00000001 0A:000007B8 0B:00000001 0C:000007BC 0D:00000000 12:0000000A 13:00000001 14:00000002 15:000007DC 16:66666666 17:77777777 18:88888888 19:99999999 1A:AAAAAAAA 1B:BBBBBBBB 1C:00000001 1D:000007BC 1E:00000009 1F:00000009
0D0: 0040006F  JAL x0, 4           00:00000000 01:000000C8 02:0000074C 05:00000004 06:00000004 07:0000000A 08:000007EC 09:00000001 0A:000007B8 0B:00000001 0C:00000009 0D:00000000 12:0000000A 13:00000001 14:00000002 15:000007DC 16:66666666 17:77777777 18:88888888 19:99999999 1A:AAAAAAAA 1B:BBBBBBBB 1C:00000001 1D:000007BC 1E:00000009 1F:00000009
0D4: 00148493  ADDI x9, x9, 1      00:00000000 01:000000C8 02:0000074C 05:00000004 06:00000004 07:0000000A 08:000007EC 09:00000001 0A:000007B8 0B:00000001 0C:00000009 0D:00000000 12:0000000A 13:00000001 14:00000002 15:000007DC 16:66666666 17:77777777 18:88888888 19:99999999 1A:AAAAAAAA 1B:BBBBBBBB 1C:00000001 1D:000007BC 1E:00000009 1F:00000009
0D8: FC9FF06F  JAL x0, -56         00:00000000 01:000000C8 02:0000074C 05:00000004 06:00000004 07:0000000A 08:000007EC 09:00000002 0A:000007B8 0B:00000001 0C:00000009 0D:00000000 12:0000000A 13:00000001 14:00000002 15:000007DC 16:66666666 17:77777777 18:88888888 19:99999999 1A:AAAAAAAA 1B:BBBBBBBB 1C:00000001 1D:000007BC 1E:00000009 1F:00000009
0A0: 02C4DE63  BGE x9, x12, 60     00:00000000 01:000000C8 02:0000074C 05:00000004 06:00000004 07:0000000A 08:000007EC 09:00000002 0A:000007B8 0B:00000001 0C:00000009 0D:00000000 12:0000000A 13:00000001 14:00000002 15:000007DC 16:66666666 17:77777777 18:88888888 19:99999999 1A:AAAAAAAA 1B:BBBBBBBB 1C:00000001 1D:000007BC 1E:00000009 1F:00000009
0A4: 014492B3  SLL x5, x9, x20     00:00000000 01:000000C8 02:0000074C 05:00000004 06:00000004 07:0000000A 08:000007EC 09:00000002 0A:000007B8 0B:00000001 0C:00000009 0D:00000000 12:0000000A 13:00000001 14:00000002 15:000007DC 16:66666666 17:77777777 18:88888888 19:99999999 1A:AAAAAAAA 1B:BBBBBBBB 1C:00000001 1D:000007BC 1E:00000009 1F:00000009
0A8: 00550EB3  ADD x29, x10, x5    00:00000000 01:000000C8 02:0000074C 05:00000008 06:00000004 07:0000000A 08:000007EC 09:00000002 0A:000007B8 0B:00000001 0C:00000009 0D:00000000 12:0000000A 13:00000001 14:00000002 15:000007DC 16:66666666 17:77777777 18:88888888 19:99999999 1A:AAAAAAAA 1B:BBBBBBBB 1C:00000001 1D:000007BC 1E:00000009 1F:00000009
0AC: 000EAF83  LW x31, 0(x29)      00:00000000 01:000000C8 02:0000074C 05:00000008 06:00000004 07:0000000A 08:000007EC 09:00000002 0A:000007B8 0B:00000001 0C:00000009 0D:00000000 12:0000000A 13:00000001 14:00000002 15:000007DC 16:66666666 17:77777777 18:88888888 19:99999999 1A:AAAAAAAA 1B:BBBBBBBB 1C:00000001 1D:000007C0 1E:00000009 1F:00000009
0B0: 032FD263  BGE x31, x18, 36    00:00000000 01:000000C8 02:0000074C 05:00000008 06:00000004 07:0000000A 08:000007EC 09:00000002 0A:000007B8 0B:00000001 0C:00000009 0D:00000000 12:0000000A 13:00000001 14:00000002 15:000007DC 16:66666666 17:77777777 18:88888888 19:99999999 1A:AAAAAAAA 1B:BBBBBBBB 1C:00000001 1D:000007C0 1E:00000009 1F:00000008
0B4: 00198993  ADDI x19, x19, 1    00:00000000 01:000000C8 02:0000074C 05:00000008 06:00000004 07:0000000A 08:000007EC 09:00000002 0A:000007B8 0B:00000001 0C:00000009 0D:00000000 12:0000000A 13:00000001 14:00000002 15:000007DC 16:66666666 17:77777777 18:88888888 19:99999999 1A:AAAAAAAA 1B:BBBBBBBB 1C:00000001 1D:000007C0 1E:00000009 1F:00000008
0B8: 01499333  SLL x6, x19, x20    00:00000000 01:000000C8 02:0000074C 05:00000008 06:00000004 07:0000000A 08:000007EC 09:00000002 0A:000007B8 0B:00000001 0C:00000009 0D:00000000 12:0000000A 13:00000002 14:00000002 15:000007DC 16:66666666 17:77777777 18:88888888 19:99999999 1A:AAAAAAAA 1B:BBBBBBBB 1C:00000001 1D:000007C0 1E:00000009 1F:00000008
0BC: 006505B3  ADD x11, x10, x6    00:00000000 01:000000C8 02:0000074C 05:00000008 06:00000008 07:0000000A 08:000007EC 09:00000002 0A:000007B8 0B:00000001 0C:00000009 0D:00000000 12:0000000A 13:00000002 14:00000002 15:000007DC 16:66666666 17:77777777 18:88888888 19:99999999 1A:AAAAAAAA 1B:BBBBBBBB 1C:00000001 1D:000007C0 1E:00000009 1F:00000008
0C0: 000E8613  ADDI x12, x29, 0    00:00000000 01:000000C8 02:0000074C 05:00000008 06:00000008 07:0000000A 08:000007EC 09:00000002 0A:000007B8 0B:000007C0 0C:00000009 0D:00000000 12:0000000A 13:00000002 14:00000002 15:000007DC 16:66666666 17:77777777 18:88888888 19:99999999 1A:AAAAAAAA 1B:BBBBBBBB 1C:00000001 1D:000007C0 1E:00000009 1F:00000008
0C4: F7DFF0EF  JAL x1, -132        00:00000000 01:000000C8 02:0000074C 05:00000008 06:00000008 07:0000000A 08:000007EC 09:00000002 0A:000007B8 0B:000007C0 0C:000007C0 0D:00000000 12:0000000A 13:00000002 14:00000002 15:000007DC 16:66666666 17:77777777 18:88888888 19:99999999 1A:AAAAAAAA 1B:BBBBBBBB 1C:00000001 1D:000007C0 1E:00000009 1F:00000008
040: FE010113  ADDI x2, x2, -32    00:00000000 01:000000C8 02:0000074C 05:00000008 06:00000008 07:0000000A 08:000007EC 09:00000002 0A:000007B8 0B:000007C0 0C:000007C0 0D:00000000 12:0000000A 13:00000002 14:00000002 15:000007DC 16:66666666 17:77777777 18:88888888 19:99999999 1A:AAAAAAAA 1B:BBBBBBBB 1C:00000001 1D:000007C0 1E:00000009 1F:00000008
044: 00112E23  SW x1, 28(x2)       00:00000000 01:000000C8 02:0000072C 05:00000008 06:00000008 07:0000000A 08:000007EC 09:00000002 0A:000007B8 0B:000007C0 0C:000007C0 0D:00000000 12:0000000A 13:00000002 14:00000002 15:000007DC 16:66666666 17:77777777 18:88888888 19:99999999 1A:AAAAAAAA 1B:BBBBBBBB 1C:00000001 1D:000007C0 1E:00000009 1F:00000008
048: 0005AF03  LW x30, 0(x11)      00:00000000 01:000000C8 02:0000072C 05:00000008 06:00000008 07:0000000A 08:000007EC 09:00000002 0A:000007B8 0B:000007C0 0C:000007C0 0D:00000000 12:0000000A 13:00000002 14:00000002 15:000007DC 16:66666666 17:77777777 18:88888888 19:99999999 1A:AAAAAAAA 1B:BBBBBBBB 1C:00000001 1D:000007C0 1E:00000009 1F:00000008
04C: 00062F83  LW x31, 0(x12)      00:00000000 01:000000C8 02:0000072C 05:00000008 06:00000008 07:0000000A 08:000007EC 09:00000002 0A:000007B8 0B:000007C0 0C:000007C0 0D:00000000 12:0000000A 13:00000002 14:00000002 15:000007DC 16:66666666 17:77777777 18:88888888 19:99999999 1A:AAAAAAAA 1B:BBBBBBBB 1C:00000001 1D:000007C0 1E:00000008 1F:00000008
050: 01F5A023  SW x31, 0(x11)      00:00000000 01:000000C8 02:0000072C 05:00000008 06:00000008 07:0000000A 08:000007EC 09:00000002 0A:000007B8 0B:000007C0 0C:000007C0 0D:00000000 12:0000000A 13:00000002 14:00000002 15:000007DC 16:66666666 17:77777777 18:88888888 19:99999999 1A:AAAAAAAA 1B:BBBBBBBB 1C:00000001 1D:000007C0 1E:00000008 1F:00000008
054: 01E62023  SW x30, 0(x12)      00:00000000 01:000000C8 02:0000072C 05:00000008 06:00000008 07:0000000A 08:000007EC 09:00000002 0A:000007B8 0B:000007C0 0C:000007C0 0D:00000000 12:0000000A 13:00000002 14:00000002 15:000007DC 16:66666666 17:77777777 18:88888888 19:99999999 1A:AAAAAAAA 1B:BBBBBBBB 1C:00000001 1D:000007C0 1E:00000008 1F:00000008
058: 01C12083  LW x1, 28(x2)       00:00000000 01:000000C8 02:0000072C 05:00000008 06:00000008 07:0000000A 08:000007EC 09:00000002 0A:000007B8 0B:000007C0 0C:000007C0 0D:00000000 12:0000000A 13:00000002 14:00000002 15:000007DC 16:66666666 17:77777777 18:88888888 19:99999999 1A:AAAAAAAA 1B:BBBBBBBB 1C:00000001 1D:000007C0 1E:00000008 1F:00000008
05C: 02010113  ADDI x2, x2, 32     00:00000000 01:000000C8 02:0000072C 05:00000008 06:00000008 07:0000000A 08:000007EC 09:00000002 0A:000007B8 0B:000007C0 0C:000007C0 0D:00000000 12:0000000A 13:00000002 14:00000002 15:000007DC 16:66666666 17:77777777 18:88888888 19:99999999 1A:AAAAAAAA 1B:BBBBBBBB 1C:00000001 1D:000007C0 1E:00000008 1F:00000008
060: 00008067  JALR x0, 0(x1)      00:00000000 01:000000C8 02:0000074C 05:00000008 06:00000008 07:0000000A 08:000007EC 09:00000002 0A:000007B8 0B:000007C0 0C:000007C0 0D:00000000 12:0000000A 13:00000002 14:00000002 15:000007DC 16:66666666 17:77777777 18:88888888 19:99999999 1A:AAAAAAAA 1B:BBBBBBBB 1C:00000001 1D:000007C0 1E:00000008 1F:00000008
0C8: 00412583  LW x11, 4(x2)       00:00000000 01:000000C8 02:0000074C 05:00000008 06:00000008 07:0000000A 08:000007EC 09:00000002 0A:000007B8 0B:000007C0 0C:000007C0 0D:00000000 12:0000000A 13:00000002 14:00000002 15:000007DC 16:66666666 17:77777777 18:88888888 19:99999999 1A:AAAAAAAA 1B:BBBBBBBB 1C:00000001 1D:000007C0 1E:00000008 1F:00000008
0CC: 00012603  LW x12, 0(x2)       00:00000000 01:000000C8 02:0000074C 05:00000008 06:00000008 07:0000000A 08:000007EC 09:00000002 0A:000007B8 0B:00000001 0C:000007C0 0D:00000000 12:0000000A 13:00000002 14:00000002 15:000007DC 16:66666666 17:77777777 18:88888888 19:99999999 1A:AAAAAAAA 1B:BBBBBBBB 1C:00000001 1D:000007C0 1E:00000008 1F:00000008
0D0: 0040006F  JAL x0, 4           00:00000000 01:000000C8 02:0000074C 05:00000008 06:00000008 07:0000000A 08:000007EC 09:00000002 0A:000007B8 0B:00000001 0C:00000009 0D:00000000 12:0000000A 13:00000002 14:00000002 15:000007DC 16:66666666 17:77777777 18:88888888 19:99999999 1A:AAAAAAAA 1B:BBBBBBBB 1C:00000001 1D:000007C0 1E:00000008 1F:00000008
0D4: 00148493  ADDI x9, x9, 1      00:00000000 01:000000C8 02:0000074C 05:00000008 06:00000008 07:0000000A 08:000007EC 09:00000002 0A:000007B8 0B:00000001 0C:00000009 0D:00000000 12:0000000A 13:00000002 14:00000002 15:000007DC 16:66666666 17:77777777 18:88888888 19:99999999 1A:AAAAAAAA 1B:BBBBBBBB 1C:00000001 1D:000007C0 1E:00000008 1F:00000008
0D8: FC9FF06F  JAL x0, -56         00:00000000 01:000000C8 02:0000074C 05:00000008 06:00000008 07:0000000A 08:000007EC 09:00000003 0A:000007B8 0B:00000001 0C:00000009 0D:00000000 12:0000000A 13:00000002 14:00000002 15:000007DC 16:66666666 17:77777777 18:88888888 19:99999999 1A:AAAAAAAA 1B:BBBBBBBB 1C:00000001 1D:000007C0 1E:00000008 1F:00000008
0A0: 02C4DE63  BGE x9, x12, 60     00:00000000 01:000000C8 02:0000074C 05:00000008 06:00000008 07:0000000A 08:000007EC 09:00000003 0A:000007B8 0B:00000001 0C:00000009 0D:00000000 12:0000000A 13:00000002 14:00000002 15:000007DC 16:66666666 17:77777777 18:88888888 19:99999999 1A:AAAAAAAA 1B:BBBBBBBB 1C:00000001 1D:000007C0 1E:00000008 1F:00000008
0A4: 014492B3  SLL x5, x9, x20     00:00000000 01:000000C8 02:0000074C 05:00000008 06:00000008 07:0000000A 08:000007EC 09:00000003 0A:000007B8 0B:00000001 0C:00000009 0D:00000000 12:0000000A 13:00000002 14:00000002 15:000007DC 16:66666666 17:77777777 18:88888888 19:99999999 1A:AAAAAAAA 1B:BBBBBBBB 1C:00000001 1D:000007C0 1E:00000008 1F:00000008
0A8: 00550EB3  ADD x29, x10, x5    00:00000000 01:000000C8 02:0000074C 05:0000000C 06:00000008 07:0000000A 08:000007EC 09:00000003 0A:000007B8 0B:00000001 0C:00000009 0D:00000000 12:0000000A 13:00000002 14:00000002 15:000007DC 16:66666666 17:77777777 18:88888888 19:99999999 1A:AAAAAAAA 1B:BBBBBBBB 1C:00000001 1D:000007C0 1E:00000008 1F:00000008
0AC: 000EAF83  LW x31, 0(x29)      00:00000000 01:000000C8 02:0000074C 05:0000000C 06:00000008 07:0000000A 08:000007EC 09:00000003 0A:000007B8 0B:00000001 0C:00000009 0D:00000000 12:0000000A 13:00000002 14:00000002 15:000007DC 16:66666666 17:77777777 18:88888888 19:99999999 1A:AAAAAAAA 1B:BBBBBBBB 1C:00000001 1D:000007C4 1E:00000008 1F:00000008
0B0: 032FD263  BGE x31, x18, 36    00:00000000 01:000000C8 02:0000074C 05:0000000C 06:00000008 07:0000000A 08:000007EC 09:00000003 0A:000007B8 0B:00000001 0C:00000009 0D:00000000 12:0000000A 13:00000002 14:00000002 15:000007DC 16:66666666 17:77777777 18:88888888 19:99999999 1A:AAAAAAAA 1B:BBBBBBBB 1C:00000001 1D:000007C4 1E:00000008 1F:00000007
0B4: 00198993  ADDI x19, x19, 1    00:00000000 01:000000C8 02:0000074C 05:0000000C 06:00000008 07:0000000A 08:000007EC 09:00000003 0A:000007B8 0B:00000001 0C:00000009 0D:00000000 12:0000000A 13:00000002 14:00000002 15:000007DC 16:66666666 17:77777777 18:88888888 19:99999999 1A:AAAAAAAA 1B:BBBBBBBB 1C:00000001 1D:000007C4 1E:00000008 1F:00000007
0B8: 01499333  SLL x6, x19, x20    00:00000000 01:000000C8 02:0000074C 05:0000000C 06:00000008 07:0000000A 08:000007EC 09:00000003 0A:000007B8 0B:00000001 0C:00000009 0D:00000000 12:0000000A 13:00000003 14:00000002 15:000007DC 16:66666666 17:77777777 18:88888888 19:99999999 1A:AAAAAAAA 1B:BBBBBBBB 1C:00000001 1D:000007C4 1E:00000008 1F:00000007
0BC: 006505B3  ADD x11, x10, x6    00:00000000 01:000000C8 02:0000074C 05:0000000C 06:0000000C 07:0000000A 08:000007EC 09:00000003 0A:000007B8 0B:00000001 0C:00000009 0D:00000000 12:0000000A 13:00000003 14:00000002 15:000007DC 16:66666666 17:77777777 18:88888888 19:99999999 1A:AAAAAAAA 1B:BBBBBBBB 1C:00000001 1D:000007C4 1E:00000008 1F:00000007
0C0: 000E8613  ADDI x12, x29, 0    00:00000000 01:000000C8 02:0000074C 05:0000000C 06:0000000C 07:0000000A 08:000007EC 09:00000003 0A:000007B8 0B:000007C4 0C:00000009 0D:00000000 12:0000000A 13:00000003 14:00000002 15:000007DC 16:66666666 17:77777777 18:88888888 19:99999999 1A:AAAAAAAA 1B:BBBBBBBB 1C:00000001 1D:000007C4 1E:00000008 1F:00000007
0C4: F7DFF0EF  JAL x1, -132        00:00000000 01:000000C8 02:0000074C 05:0000000C 06:0000000C 07:0000000A 08:000007EC 09:00000003 0A:000007B8 0B:000007C4 0C:000007C4 0D:00000000 12:0000000A 13:00000003 14:00000002 15:000007DC 16:66666666 17:77777777 18:88888888 19:99999999 1A:AAAAAAAA 1B:BBBBBBBB 1C:00000001 1D:000007C4 1E:00000008 1F:00000007
040: FE010113  ADDI x2, x2, -32    00:00000000 01:000000C8 02:0000074C 05:0000000C 06:0000000C 07:0000000A 08:000007EC 09:00000003 0A:000007B8 0B:000007C4 0C:000007C4 0D:00000000 12:0000000A 13:00000003 14:00000002 15:000007DC 16:66666666 17:77777777 18:88888888 19:99999999 1A:AAAAAAAA 1B:BBBBBBBB 1C:00000001 1D:000007C4 1E:00000008 1F:00000007
044: 00112E23  SW x1, 28(x2)       00:00000000 01:000000C8 02:0000072C 05:0000000C 06:0000000C 07:0000000A 08:000007EC 09:00000003 0A:000007B8 0B:000007C4 0C:000007C4 0D:00000000 12:0000000A 13:00000003 14:00000002 15:000007DC 16:66666666 17:77777777 18:88888888 19:99999999 1A:AAAAAAAA 1B:BBBBBBBB 1C:00000001 1D:000007C4 1E:00000008 1F:00000007
048: 0005AF03  LW x30, 0(x11)      00:00000000 01:000000C8 02:0000072C 05:0000000C 06:0000000C 07:0000000A 08:000007EC 09:00000003 0A:000007B8 0B:000007C4 0C:000007C4 0D:00000000 12:0000000A 13:00000003 14:00000002 15:000007DC 16:66666666 17:77777777 18:88888888 19:99999999 1A:AAAAAAAA 1B:BBBBBBBB 1C:00000001 1D:000007C4 1E:00000008 1F:00000007
04C: 00062F83  LW x31, 0(x12)      00:00000000 01:000000C8 02:0000072C 05:0000000C 06:0000000C 07:0000000A 08:000007EC 09:00000003 0A:000007B8 0B:000007C4 0C:000007C4 0D:00000000 12:0000000A 13:00000003 14:00000002 15:000007DC 16:66666666 17:77777777 18:88888888 19:99999999 1A:AAAAAAAA 1B:BBBBBBBB 1C:00000001 1D:000007C4 1E:00000007 1F:00000007
050: 01F5A023  SW x31, 0(x11)      00:00000000 01:000000C8 02:0000072C 05:0000000C 06:0000000C 07:0000000A 08:000007EC 09:00000003 0A:000007B8 0B:000007C4 0C:000007C4 0D:00000000 12:0000000A 13:00000003 14:00000002 15:000007DC 16:66666666 17:77777777 18:88888888 19:99999999 1A:AAAAAAAA 1B:BBBBBBBB 1C:00000001 1D:000007C4 1E:00000007 1F:00000007
054: 01E62023  SW x30, 0(x12)      00:00000000 01:000000C8 02:0000072C 05:0000000C 06:0000000C 07:0000000A 08:000007EC 09:00000003 0A:000007B8 0B:000007C4 0C:000007C4 0D:00000000 12:0000000A 13:00000003 14:00000002 15:000007DC 16:66666666 17:77777777 18:88888888 19:99999999 1A:AAAAAAAA 1B:BBBBBBBB 1C:00000001 1D:000007C4 1E:00000007 1F:00000007
058: 01C12083  LW x1, 28(x2)       00:00000000 01:000000C8 02:0000072C 05:0000000C 06:0000000C 07:0000000A 08:000007EC 09:00000003 0A:000007B8 0B:000007C4 0C:000007C4 0D:00000000 12:0000000A 13:00000003 14:00000002 15:000007DC 16:66666666 17:77777777 18:88888888 19:99999999 1A:AAAAAAAA 1B:BBBBBBBB 1C:00000001 1D:000007C4 1E:00000007 1F:00000007
05C: 02010113  ADDI x2, x2, 32     00:00000000 01:000000C8 02:0000072C 05:0000000C 06:0000000C 07:0000000A 08:000007EC 09:00000003 0A:000007B8 0B:000007C4 0C:000007C4 0D:00000000 12:0000000A 13:00000003 14:00000002 15:000007DC 16:66666666 17:77777777 18:88888888 19:99999999 1A:AAAAAAAA 1B:BBBBBBBB 1C:00000001 1D:000007C4 1E:00000007 1F:00000007
060: 00008067  JALR x0, 0(x1)      00:00000000 01:000000C8 02:0000074C 05:0000000C 06:0000000C 07:0000000A 08:000007EC 09:00000003 0A:000007B8 0B:000007C4 0C:000007C4 0D:00000000 12:0000000A 13:00000003 14:00000002 15:000007DC 16:66666666 17:77777777 18:88888888 19:99999999 1A:AAAAAAAA 1B:BBBBBBBB 1C:00000001 1D:000007C4 1E:00000007 1F:00000007
0C8: 00412583  LW x11, 4(x2)       00:00000000 01:000000C8 02:0000074C 05:0000000C 06:0000000C 07:0000000A 08:000007EC 09:00000003 0A:000007B8 0B:000007C4 0C:000007C4 0D:00000000 12:0000000A 13:00000003 14:00000002 15:000007DC 16:66666666 17:77777777 18:88888888 19:99999999 1A:AAAAAAAA 1B:BBBBBBBB 1C:00000001 1D:000007C4 1E:00000007 1F:00000007
0CC: 00012603  LW x12, 0(x2)       00:00000000 01:000000C8 02:0000074C 05:0000000C 06:0000000C 07:0000000A 08:000007EC 09:00000003 0A:000007B8 0B:00000001 0C:000007C4 0D:00000000 12:0000000A 13:00000003 14:00000002 15:000007DC 16:66666666 17:77777777 18:88888888 19:99999999 1A:AAAAAAAA 1B:BBBBBBBB 1C:00000001 1D:000007C4 1E:00000007 1F:00000007
0D0: 0040006F  JAL x0, 4           00:00000000 01:000000C8 02:0000074C 05:0000000C 06:0000000C 07:0000000A 08:000007EC 09:00000003 0A:000007B8 0B:00000001 0C:00000009 0D:00000000 12:0000000A 13:00000003 14:00000002 15:000007DC 16:66666666 17:77777777 18:88888888 19:99999999 1A:AAAAAAAA 1B:BBBBBBBB 1C:00000001 1D:000007C4 1E:00000007 1F:00000007
0D4: 00148493  ADDI x9, x9, 1      00:00000000 01:000000C8 02:0000074C 05:0000000C 06:0000000C 07:0000000A 08:000007EC 09:00000003 0A:000007B8 0B:00000001 0C:00000009 0D:00000000 12:0000000A 13:00000003 14:00000002 15:000007DC 16:66666666 17:77777777 18:88888888 19:99999999 1A:AAAAAAAA 1B:BBBBBBBB 1C:00000001 1D:000007C4 1E:00000007 1F:00000007
0D8: FC9FF06F  JAL x0, -56         00:00000000 01:000000C8 02:0000074C 05:0000000C 06:0000000C 07:0000000A 08:000007EC 09:00000004 0A:000007B8 0B:00000001 0C:00000009 0D:00000000 12:0000000A 13:00000003 14:00000002 15:000007DC 16:66666666 17:77777777 18:88888888 19:99999999 1A:AAAAAAAA 1B:BBBBBBBB 1C:00000001 1D:000007C4 1E:00000007 1F:00000007
0A0: 02C4DE63  BGE x9, x12, 60     00:00000000 01:000000C8 02:0000074C 05:0000000C 06:0000000C 07:0000000A 08:000007EC 09:00000004 0A:000007B8 0B:00000001 0C:00000009 0D:00000000 12:0000000A 13:00000003 14:00000002 15:000007DC 16:66666666 17:77777777 18:88888888 19:99999999 1A:AAAAAAAA 1B:BBBBBBBB 1C:00000001 1D:000007C4 1E:00000007 1F:00000007
0A4: 014492B3  SLL x5, x9, x20     00:00000000 01:000000C8 02:0000074C 05:0000000C 06:0000000C 07:0000000A 08:000007EC 09:00000004 0A:000007B8 0B:00000001 0C:00000009 0D:00000000 12:0000000A 13:00000003 14:00000002 15:000007DC 16:66666666 17:77777777 18:88888888 19:99999999 1A:AAAAAAAA 1B:BBBBBBBB 1C:00000001 1D:000007C4 1E:00000007 1F:00000007
0A8: 00550EB3  ADD x29, x10, x5    00:00000000 01:000000C8 02:0000074C 05:00000010 06:0000000C 07:0000000A 08:000007EC 09:00000004 0A:000007B8 0B:00000001 0C:00000009 0D:00000000 12:0000000A 13:00000003 14:00000002 15:000007DC 16:66666666 17:77777777 18:88888888 19:99999999 1A:AAAAAAAA 1B:BBBBBBBB 1C:00000001 1D:000007C4 1E:00000007 1F:00000007
0AC: 000EAF83  LW x31, 0(x29)      00:00000000 01:000000C8 02:0000074C 05:00000010 06:0000000C 07:0000000A 08:000007EC 09:00000004 0A:000007B8 0B:00000001 0C:00000009 0D:00000000 12:0000000A 13:00000003 14:00000002 15:000007DC 16:66666666 17:77777777 18:88888888 19:99999999 1A:AAAAAAAA 1B:BBBBBBBB 1C:00000001 1D:000007C8 1E:00000007 1F:00000007
0B0: 032FD263  BGE x31, x18, 36    00:00000000 01:000000C8 02:0000074C 05:00000010 06:0000000C 07:0000000A 08:000007EC 09:00000004 0A:000007B8 0B:00000001 0C:00000009 0D:00000000 12:0000000A 13:00000003 14:00000002 15:000007DC 16:66666666 17:77777777 18:88888888 19:99999999 1A:AAAAAAAA 1B:BBBBBBBB 1C:00000001 1D:000007C8 1E:00000007 1F:00000006
0B4: 00198993  ADDI x19, x19, 1    00:00000000 01:000000C8 02:0000074C 05:00000010 06:0000000C 07:0000000A 08:000007EC 09:00000004 0A:000007B8 0B:00000001 0C:00000009 0D:00000000 12:0000000A 13:00000003 14:00000002 15:000007DC 16:66666666 17:77777777 18:88888888 19:99999999 1A:AAAAAAAA 1B:BBBBBBBB 1C:00000001 1D:000007C8 1E:00000007 1F:00000006
0B8: 01499333  SLL x6, x19, x20    00:00000000 01:000000C8 02:0000074C 05:00000010 06:0000000C 07:0000000A 08:000007EC 09:00000004 0A:000007B8 0B:00000001 0C:00000009 0D:00000000 12:0000000A 13:00000004 14:00000002 15:000007DC 16:66666666 17:77777777 18:88888888 19:99999999 1A:AAAAAAAA 1B:BBBBBBBB 1C:00000001 1D:000007C8 1E:00000007 1F:00000006
0BC: 006505B3  ADD x11, x10, x6    00:00000000 01:000000C8 02:0000074C 05:00000010 06:00000010 07:0000000A 08:000007EC 09:00000004 0A:000007B8 0B:00000001 0C:00000009 0D:00000000 12:0000000A 13:00000004 14:00000002 15:000007DC 16:66666666 17:77777777 18:88888888 19:99999999 1A:AAAAAAAA 1B:BBBBBBBB 1C:00000001 1D:000007C8 1E:00000007 1F:00000006
0C0: 000E8613  ADDI x12, x29, 0    00:00000000 01:000000C8 02:0000074C 05:00000010 06:00000010 07:0000000A 08:000007EC 09:00000004 0A:000007B8 0B:000007C8 0C:00000009 0D:00000000 12:0000000A 13:00000004 14:00000002 15:000007DC 16:66666666 17:77777777 18:88888888 19:99999999 1A:AAAAAAAA 1B:BBBBBBBB 1C:00000001 1D:000007C8 1E:00000007 1F:00000006
0C4: F7DFF0EF  JAL x1, -132        00:00000000 01:000000C8 02:0000074C 05:00000010 06:00000010 07:0000000A 08:000007EC 09:00000004 0A:000007B8 0B:000007C8 0C:000007C8 0D:00000000 12:0000000A 13:00000004 14:00000002 15:000007DC 16:66666666 17:77777777 18:88888888 19:99999999 1A:AAAAAAAA 1B:BBBBBBBB 1C:00000001 1D:000007C8 1E:00000007 1F:00000006
040: FE010113  ADDI x2, x2, -32    00:00000000 01:000000C8 02:0000074C 05:00000010 06:00000010 07:0000000A 08:000007EC 09:00000004 0A:000007B8 0B:000007C8 0C:000007C8 0D:00000000 12:0000000A 13:00000004 14:00000002 15:000007DC 16:66666666 17:77777777 18:88888888 19:99999999 1A:AAAAAAAA 1B:BBBBBBBB 1C:00000001 1D:000007C8 1E:00000007 1F:00000006
044: 00112E23  SW x1, 28(x2)       00:00000000 01:000000C8 02:0000072C 05:00000010 06:00000010 07:0000000A 08:000007EC 09:00000004 0A:000007B8 0B:000007C8 0C:000007C8 0D:00000000 12:0000000A 13:00000004 14:00000002 15:000007DC 16:66666666 17:77777777 18:88888888 19:99999999 1A:AAAAAAAA 1B:BBBBBBBB 1C:00000001 1D:000007C8 1E:00000007 1F:00000006
048: 0005AF03  LW x30, 0(x11)      00:00000000 01:000000C8 02:0000072C 05:00000010 06:00000010 07:0000000A 08:000007EC 09:00000004 0A:000007B8 0B:000007C8 0C:000007C8 0D:00000000 12:0000000A 13:00000004 14:00000002 15:000007DC 16:66666666 17:77777777 18:88888888 19:99999999 1A:AAAAAAAA 1B:BBBBBBBB 1C:00000001 1D:000007C8 1E:00000007 1F:00000006
04C: 00062F83  LW x31, 0(x12)      00:00000000 01:000000C8 02:0000072C 05:00000010 06:00000010 07:0000000A 08:000007EC 09:00000004 0A:000007B8 0B:000007C8 0C:000007C8 0D:00000000 12:0000000A 13:00000004 14:00000002 15:000007DC 16:66666666 17:77777777 18:88888888 19:99999999 1A:AAAAAAAA 1B:BBBBBBBB 1C:00000001 1D:000007C8 1E:00000006 1F:00000006
050: 01F5A023  SW x31, 0(x11)      00:00000000 01:000000C8 02:0000072C 05:00000010 06:00000010 07:0000000A 08:000007EC 09:00000004 0A:000007B8 0B:000007C8 0C:000007C8 0D:00000000 12:0000000A 13:00000004 14:00000002 15:000007DC 16:66666666 17:77777777 18:88888888 19:99999999 1A:AAAAAAAA 1B:BBBBBBBB 1C:00000001 1D:000007C8 1E:00000006 1F:00000006
054: 01E62023  SW x30, 0(x12)      00:00000000 01:000000C8 02:0000072C 05:00000010 06:00000010 07:0000000A 08:000007EC 09:00000004 0A:000007B8 0B:000007C8 0C:000007C8 0D:00000000 12:0000000A 13:00000004 14:00000002 15:000007DC 16:66666666 17:77777777 18:88888888 19:99999999 1A:AAAAAAAA 1B:BBBBBBBB 1C:00000001 1D:000007C8 1E:00000006 1F:00000006
058: 01C12083  LW x1, 28(x2)       00:00000000 01:000000C8 02:0000072C 05:00000010 06:00000010 07:0000000A 08:000007EC 09:00000004 0A:000007B8 0B:000007C8 0C:000007C8 0D:00000000 12:0000000A 13:00000004 14:00000002 15:000007DC 16:66666666 17:77777777 18:88888888 19:99999999 1A:AAAAAAAA 1B:BBBBBBBB 1C:00000001 1D:000007C8 1E:00000006 1F:00000006
05C: 02010113  ADDI x2, x2, 32     00:00000000 01:000000C8 02:0000072C 05:00000010 06:00000010 07:0000000A 08:000007EC 09:00000004 0A:000007B8 0B:000007C8 0C:000007C8 0D:00000000 12:0000000A 13:00000004 14:00000002 15:000007DC 16:66666666 17:77777777 18:88888888 19:99999999 1A:AAAAAAAA 1B:BBBBBBBB 1C:00000001 1D:000007C8 1E:00000006 1F:00000006
060: 00008067  JALR x0, 0(x1)      00:00000000 01:000000C8 02:0000074C 05:00000010 06:00000010 07:0000000A 08:000007EC 09:00000004 0A:000007B8 0B:000007C8 0C:000007C8 0D:00000000 12:0000000A 13:00000004 14:00000002 15:000007DC 16:66666666 17:77777777 18:88888888 19:99999999 1A:AAAAAAAA 1B:BBBBBBBB 1C:00000001 1D:000007C8 1E:00000006 1F:00000006
0C8: 00412583  LW x11, 4(x2)       00:00000000 01:000000C8 02:0000074C 05:00000010 06:00000010 07:0000000A 08:000007EC 09:00000004 0A:000007B8 0B:000007C8 0C:000007C8 0D:00000000 12:0000000A 13:00000004 14:00000002 15:000007DC 16:66666666 17:77777777 18:88888888 19:99999999 1A:AAAAAAAA 1B:BBBBBBBB 1C:00000001 1D:000007C8 1E:00000006 1F:00000006
0CC: 00012603  LW x12, 0(x2)       00:00000000 01:000000C8 02:0000074C 05:00000010 06:00000010 07:0000000A 08:000007EC 09:00000004 0A:000007B8 0B:00000001 0C:000007C8 0D:00000000 12:0000000A 13:00000004 14:00000002 15:000007DC 16:66666666 17:77777777 18:88888888 19:99999999 1A:AAAAAAAA 1B:BBBBBBBB 1C:00000001 1D:000007C8 1E:00000006 1F:00000006
0D0: 0040006F  JAL x0, 4           00:00000000 01:000000C8 02:0000074C 05:00000010 06:00000010 07:0000000A 08:000007EC 09:00000004 0A:000007B8 0B:00000001 0C:00000009 0D:00000000 12:0000000A 13:00000004 14:00000002 15:000007DC 16:66666666 17:77777777 18:88888888 19:99999999 1A:AAAAAAAA 1B:BBBBBBBB 1C:00000001 1D:000007C8 1E:00000006 1F:00000006
0D4: 00148493  ADDI x9, x9, 1      00:00000000 01:000000C8 02:0000074C 05:00000010 06:00000010 07:0000000A 08:000007EC 09:00000004 0A:000007B8 0B:00000001 0C:00000009 0D:00000000 12:0000000A 13:00000004 14:00000002 15:000007DC 16:66666666 17:77777777 18:88888888 19:99999999 1A:AAAAAAAA 1B:BBBBBBBB 1C:00000001 1D:000007C8 1E:00000006 1F:00000006
0D8: FC9FF06F  JAL x0, -56         00:00000000 01:000000C8 02:0000074C 05:00000010 06:00000010 07:0000000A 08:000007EC 09:00000005 0A:000007B8 0B:00000001 0C:00000009 0D:00000000 12:0000000A 13:00000004 14:00000002 15:000007DC 16:66666666 17:77777777 18:88888888 19:99999999 1A:AAAAAAAA 1B:BBBBBBBB 1C:00000001 1D:000007C8 1E:00000006 1F:00000006
0A0: 02C4DE63  BGE x9, x12, 60     00:00000000 01:000000C8 02:0000074C 05:00000010 06:00000010 07:0000000A 08:000007EC 09:00000005 0A:000007B8 0B:00000001 0C:00000009 0D:00000000 12:0000000A 13:00000004 14:00000002 15:000007DC 16:66666666 17:77777777 18:88888888 19:99999999 1A:AAAAAAAA 1B:BBBBBBBB 1C:00000001 1D:000007C8 1E:00000006 1F:00000006
0A4: 014492B3  SLL x5, x9, x20     00:00000000 01:000000C8 02:0000074C 05:00000010 06:00000010 07:0000000A 08:000007EC 09:00000005 0A:000007B8 0B:00000001 0C:00000009 0D:00000000 12:0000000A 13:00000004 14:00000002 15:000007DC 16:66666666 17:77777777 18:88888888 19:99999999 1A:AAAAAAAA 1B:BBBBBBBB 1C:00000001 1D:000007C8 1E:00000006 1F:00000006
0A8: 00550EB3  ADD x29, x10, x5    00:00000000 01:000000C8 02:0000074C 05:00000014 06:00000010 07:0000000A 08:000007EC 09:00000005 0A:000007B8 0B:00000001 0C:00000009 0D:00000000 12:0000000A 13:00000004 14:00000002 15:000007DC 16:66666666 17:77777777 18:88888888 19:99999999 1A:AAAAAAAA 1B:BBBBBBBB 1C:00000001 1D:000007C8 1E:00000006 1F:00000006
0AC: 000EAF83  LW x31, 0(x29)      00:00000000 01:000000C8 02:0000074C 05:00000014 06:00000010 07:0000000A 08:000007EC 09:00000005 0A:000007B8 0B:00000001 0C:00000009 0D:00000000 12:0000000A 13:00000004 14:00000002 15:000007DC 16:66666666 17:77777777 18:88888888 19:99999999 1A:AAAAAAAA 1B:BBBBBBBB 1C:00000001 1D:000007CC 1E:00000006 1F:00000006
0B0: 032FD263  BGE x31, x18, 36    00:00000000 01:000000C8 02:0000074C 05:00000014 06:00000010 07:0000000A 08:000007EC 09:00000005 0A:000007B8 0B:00000001 0C:00000009 0D:00000000 12:0000000A 13:00000004 14:00000002 15:000007DC 16:66666666 17:77777777 18:88888888 19:99999999 1A:AAAAAAAA 1B:BBBBBBBB 1C:00000001 1D:000007CC 1E:00000006 1F:00000005
0B4: 00198993  ADDI x19, x19, 1    00:00000000 01:000000C8 02:0000074C 05:00000014 06:00000010 07:0000000A 08:000007EC 09:00000005 0A:000007B8 0B:00000001 0C:00000009 0D:00000000 12:0000000A 13:00000004 14:00000002 15:000007DC 16:66666666 17:77777777 18:88888888 19:99999999 1A:AAAAAAAA 1B:BBBBBBBB 1C:00000001 1D:000007CC 1E:00000006 1F:00000005
0B8: 01499333  SLL x6, x19, x20    00:00000000 01:000000C8 02:0000074C 05:00000014 06:00000010 07:0000000A 08:000007EC 09:00000005 0A:000007B8 0B:00000001 0C:00000009 0D:00000000 12:0000000A 13:00000005 14:00000002 15:000007DC 16:66666666 17:77777777 18:88888888 19:99999999 1A:AAAAAAAA 1B:BBBBBBBB 1C:00000001 1D:000007CC 1E:00000006 1F:00000005
0BC: 006505B3  ADD x11, x10, x6    00:00000000 01:000000C8 02:0000074C 05:00000014 06:00000014 07:0000000A 08:000007EC 09:00000005 0A:000007B8 0B:00000001 0C:00000009 0D:00000000 12:0000000A 13:00000005 14:00000002 15:000007DC 16:66666666 17:77777777 18:88888888 19:99999999 1A:AAAAAAAA 1B:BBBBBBBB 1C:00000001 1D:000007CC 1E:00000006 1F:00000005
0C0: 000E8613  ADDI x12, x29, 0    00:00000000 01:000000C8 02:0000074C 05:00000014 06:00000014 07:0000000A 08:000007EC 09:00000005 0A:000007B8 0B:000007CC 0C:00000009 0D:00000000 12:0000000A 13:00000005 14:00000002 15:000007DC 16:66666666 17:77777777 18:88888888 19:99999999 1A:AAAAAAAA 1B:BBBBBBBB 1C:00000001 1D:000007CC 1E:00000006 1F:00000005
0C4: F7DFF0EF  JAL x1, -132        00:00000000 01:000000C8 02:0000074C 05:00000014 06:00000014 07:0000000A 08:000007EC 09:00000005 0A:000007B8 0B:000007CC 0C:000007CC 0D:00000000 12:0000000A 13:00000005 14:00000002 15:000007DC 16:66666666 17:77777777 18:88888888 19:99999999 1A:AAAAAAAA 1B:BBBBBBBB 1C:00000001 1D:000007CC 1E:00000006 1F:00000005
040: FE010113  ADDI x2, x2, -32    00:00000000 01:000000C8 02:0000074C 05:00000014 06:00000014 07:0000000A 08:000007EC 09:00000005 0A:000007B8 0B:000007CC 0C:000007CC 0D:00000000 12:0000000A 13:00000005 14:00000002 15:000007DC 16:66666666 17:77777777 18:88888888 19:99999999 1A:AAAAAAAA 1B:BBBBBBBB 1C:00000001 1D:000007CC 1E:00000006 1F:00000005
044: 00112E23  SW x1, 28(x2)       00:00000000 01:000000C8 02:0000072C 05:00000014 06:00000014 07:0000000A 08:000007EC 09:00000005 0A:000007B8 0B:000007CC 0C:000007CC 0D:00000000 12:0000000A 13:00000005 14:00000002 15:000007DC 16:66666666 17:77777777 18:88888888 19:99999999 1A:AAAAAAAA 1B:BBBBBBBB 1C:00000001 1D:000007CC 1E:00000006 1F:00000005
048: 0005AF03  LW x30, 0(x11)      00:00000000 01:000000C8 02:0000072C 05:00000014 06:00000014 07:0000000A 08:000007EC 09:00000005 0A:000007B8 0B:000007CC 0C:000007CC 0D:00000000 12:0000000A 13:00000005 14:00000002 15:000007DC 16:66666666 17:77777777 18:88888888 19:99999999 1A:AAAAAAAA 1B:BBBBBBBB 1C:00000001 1D:000007CC 1E:00000006 1F:00000005
04C: 00062F83  LW x31, 0(x12)      00:00000000 01:000000C8 02:0000072C 05:00000014 06:00000014 07:0000000A 08:000007EC 09:00000005 0A:000007B8 0B:000007CC 0C:000007CC 0D:00000000 12:0000000A 13:00000005 14:00000002 15:000007DC 16:66666666 17:77777777 18:88888888 19:99999999 1A:AAAAAAAA 1B:BBBBBBBB 1C:00000001 1D:000007CC 1E:00000005 1F:00000005
050: 01F5A023  SW x31, 0(x11)      00:00000000 01:000000C8 02:0000072C 05:00000014 06:00000014 07:0000000A 08:000007EC 09:00000005 0A:000007B8 0B:000007CC 0C:000007CC 0D:00000000 12:0000000A 13:00000005 14:00000002 15:000007DC 16:66666666 17:77777777 18:88888888 19:99999999 1A:AAAAAAAA 1B:BBBBBBBB 1C:00000001 1D:000007CC 1E:00000005 1F:00000005
054: 01E62023  SW x30, 0(x12)      00:00000000 01:000000C8 02:0000072C 05:00000014 06:00000014 07:0000000A 08:000007EC 09:00000005 0A:000007B8 0B:000007CC 0C:000007CC 0D:00000000 12:0000000A 13:00000005 14:00000002 15:000007DC 16:66666666 17:77777777 18:88888888 19:99999999 1A:AAAAAAAA 1B:BBBBBBBB 1C:00000001 1D:000007CC 1E:00000005 1F:00000005
058: 01C12083  LW x1, 28(x2)       00:00000000 01:000000C8 02:0000072C 05:00000014 06:00000014 07:0000000A 08:000007EC 09:00000005 0A:000007B8 0B:000007CC 0C:000007CC 0D:00000000 12:0000000A 13:00000005 14:00000002 15:000007DC 16:66666666 17:77777777 18:88888888 19:99999999 1A:AAAAAAAA 1B:BBBBBBBB 1C:00000001 1D:000007CC 1E:00000005 1F:00000005
05C: 02010113  ADDI x2, x2, 32     00:00000000 01:000000C8 02:0000072C 05:00000014 06:00000014 07:0000000A 08:000007EC 09:00000005 0A:000007B8 0B:000007CC 0C:000007CC 0D:00000000 12:0000000A 13:00000005 14:00000002 15:000007DC 16:66666666 17:77777777 18:88888888 19:99999999 1A:AAAAAAAA 1B:BBBBBBBB 1C:00000001 1D:000007CC 1E:00000005 1F:00000005
060: 00008067  JALR x0, 0(x1)      00:00000000 01:000000C8 02:0000074C 05:00000014 06:00000014 07:0000000A 08:000007EC 09:00000005 0A:000007B8 0B:000007CC 0C:000007CC 0D:00000000 12:0000000A 13:00000005 14:00000002 15:000007DC 16:66666666 17:77777777 18:88888888 19:99999999 1A:AAAAAAAA 1B:BBBBBBBB 1C:00000001 1D:000007CC 1E:00000005 1F:00000005
0C8: 00412583  LW x11, 4(x2)       00:00000000 01:000000C8 02:0000074C 05:00000014 06:00000014 07:0000000A 08:000007EC 09:00000005 0A:000007B8 0B:000007CC 0C:000007CC 0D:00000000 12:0000000A 13:00000005 14:00000002 15:000007DC 16:66666666 17:77777777 18:88888888 19:99999999 1A:AAAAAAAA 1B:BBBBBBBB 1C:00000001 1D:000007CC 1E:00000005 1F:00000005
0CC: 00012603  LW x12, 0(x2)       00:00000000 01:000000C8 02:0000074C 05:00000014 06:00000014 07:0000000A 08:000007EC 09:00000005 0A:000007B8 0B:00000001 0C:000007CC 0D:00000000 12:0000000A 13:00000005 14:00000002 15:000007DC 16:66666666 17:77777777 18:88888888 19:99999999 1A:AAAAAAAA 1B:BBBBBBBB 1C:00000001 1D:000007CC 1E:00000005 1F:00000005
0D0: 0040006F  JAL x0, 4           00:00000000 01:000000C8 02:0000074C 05:00000014 06:00000014 07:0000000A 08:000007EC 09:00000005 0A:000007B8 0B:00000001 0C:00000009 0D:00000000 12:0000000A 13:00000005 14:00000002 15:000007DC 16:66666666 17:77777777 18:88888888 19:99999999 1A:AAAAAAAA 1B:BBBBBBBB 1C:00000001 1D:000007CC 1E:00000005 1F:00000005
0D4: 00148493  ADDI x9, x9, 1      00:00000000 01:000000C8 02:0000074C 05:00000014 06:00000014 07:0000000A 08:000007EC 09:00000005 0A:000007B8 0B:00000001 0C:00000009 0D:00000000 12:0000000A 13:00000005 14:00000002 15:000007DC 16:66666666 17:77777777 18:88888888 19:99999999 1A:AAAAAAAA 1B:BBBBBBBB 1C:00000001 1D:000007CC 1E:00000005 1F:00000005
0D8: FC9FF06F  JAL x0, -56         00:00000000 01:000000C8 02:0000074C 05:00000014 06:00000014 07:0000000A 08:000007EC 09:00000006 0A:000007B8 0B:00000001 0C:00000009 0D:00000000 12:0000000A 13:00000005 14:00000002 15:000007DC 16:66666666 17:77777777 18:88888888 19:99999999 1A:AAAAAAAA 1B:BBBBBBBB 1C:00000001 1D:000007CC 1E:00000005 1F:00000005
0A0: 02C4DE63  BGE x9, x12, 60     00:00000000 01:000000C8 02:0000074C 05:00000014 06:00000014 07:0000000A 08:000007EC 09:00000006 0A:000007B8 0B:00000001 0C:00000009 0D:00000000 12:0000000A 13:00000005 14:00000002 15:000007DC 16:66666666 17:77777777 18:88888888 19:99999999 1A:AAAAAAAA 1B:BBBBBBBB 1C:00000001 1D:000007CC 1E:00000005 1F:00000005
0A4: 014492B3  SLL x5, x9, x20     00:00000000 01:000000C8 02:0000074C 05:00000014 06:00000014 07:0000000A 08:000007EC 09:00000006 0A:000007B8 0B:00000001 0C:00000009 0D:00000000 12:0000000A 13:00000005 14:00000002 15:000007DC 16:66666666 17:77777777 18:88888888 19:99999999 1A:AAAAAAAA 1B:BBBBBBBB 1C:00000001 1D:000007CC 1E:00000005 1F:00000005
0A8: 00550EB3  ADD x29, x10, x5    00:00000000 01:000000C8 02:0000074C 05:00000018 06:00000014 07:0000000A 08:000007EC 09:00000006 0A:000007B8 0B:00000001 0C:00000009 0D:00000000 12:0000000A 13:00000005 14:00000002 15:000007DC 16:66666666 17:77777777 18:88888888 19:99999999 1A:AAAAAAAA 1B:BBBBBBBB 1C:00000001 1D:000007CC 1E:00000005 1F:00000005
0AC: 000EAF83  LW x31, 0(x29)      00:00000000 01:000000C8 02:0000074C 05:00000018 06:00000014 07:0000000A 08:000007EC 09:00000006 0A:000007B8 0B:00000001 0C:00000009 0D:00000000 12:0000000A 13:00000005 14:00000002 15:000007DC 16:66666666 17:77777777 18:88888888 19:99999999 1A:AAAAAAAA 1B:BBBBBBBB 1C:00000001 1D:000007D0 1E:00000005 1F:00000005
0B0: 032FD263  BGE x31, x18, 36    00:00000000 01:000000C8 02:0000074C 05:00000018 06:00000014 07:0000000A 08:000007EC 09:00000006 0A:000007B8 0B:00000001 0C:00000009 0D:00000000 12:0000000A 13:00000005 14:00000002 15:000007DC 16:66666666 17:77777777 18:88888888 19:99999999 1A:AAAAAAAA 1B:BBBBBBBB 1C:00000001 1D:000007D0 1E:00000005 1F:00000004
0B4: 00198993  ADDI x19, x19, 1    00:00000000 01:000000C8 02:0000074C 05:00000018 06:00000014 07:0000000A 08:000007EC 09:00000006 0A:000007B8 0B:00000001 0C:00000009 0D:00000000 12:0000000A 13:00000005 14:00000002 15:000007DC 16:66666666 17:77777777 18:88888888 19:99999999 1A:AAAAAAAA 1B:BBBBBBBB 1C:00000001 1D:000007D0 1E:00000005 1F:00000004
0B8: 01499333  SLL x6, x19, x20    00:00000000 01:000000C8 02:0000074C 05:00000018 06:00000014 07:0000000A 08:000007EC 09:00000006 0A:000007B8 0B:00000001 0C:00000009 0D:00000000 12:0000000A 13:00000006 14:00000002 15:000007DC 16:66666666 17:77777777 18:88888888 19:99999999 1A:AAAAAAAA 1B:BBBBBBBB 1C:00000001 1D:000007D0 1E:00000005 1F:00000004
0BC: 006505B3  ADD x11, x10, x6    00:00000000 01:000000C8 02:0000074C 05:00000018 06:00000018 07:0000000A 08:000007EC 09:00000006 0A:000007B8 0B:00000001 0C:00000009 0D:00000000 12:0000000A 13:00000006 14:00000002 15:000007DC 16:66666666 17:77777777 18:88888888 19:99999999 1A:AAAAAAAA 1B:BBBBBBBB 1C:00000001 1D:000007D0 1E:00000005 1F:00000004
0C0: 000E8613  ADDI x12, x29, 0    00:00000000 01:000000C8 02:0000074C 05:00000018 06:00000018 07:0000000A 08:000007EC 09:00000006 0A:000007B8 0B:000007D0 0C:00000009 0D:00000000 12:0000000A 13:00000006 14:00000002 15:000007DC 16:66666666 17:77777777 18:88888888 19:99999999 1A:AAAAAAAA 1B:BBBBBBBB 1C:00000001 1D:000007D0 1E:00000005 1F:00000004
0C4: F7DFF0EF  JAL x1, -132        00:00000000 01:000000C8 02:0000074C 05:00000018 06:00000018 07:0000000A 08:000007EC 09:00000006 0A:000007B8 0B:000007D0 0C:000007D0 0D:00000000 12:0000000A 13:00000006 14:00000002 15:000007DC 16:66666666 17:77777777 18:88888888 19:99999999 1A:AAAAAAAA 1B:BBBBBBBB 1C:00000001 1D:000007D0 1E:00000005 1F:00000004
040: FE010113  ADDI x2, x2, -32    00:00000000 01:000000C8 02:0000074C 05:00000018 06:00000018 07:0000000A 08:000007EC 09:00000006 0A:000007B8 0B:000007D0 0C:000007D0 0D:00000000 12:0000000A 13:00000006 14:00000002 15:000007DC 16:66666666 17:77777777 18:88888888 19:99999999 1A:AAAAAAAA 1B:BBBBBBBB 1C:00000001 1D:000007D0 1E:00000005 1F:00000004
044: 00112E23  SW x1, 28(x2)       00:00000000 01:000000C8 02:0000072C 05:00000018 06:00000018 07:0000000A 08:000007EC 09:00000006 0A:000007B8 0B:000007D0 0C:000007D0 0D:00000000 12:0000000A 13:00000006 14:00000002 15:000007DC 16:66666666 17:77777777 18:88888888 19:99999999 1A:AAAAAAAA 1B:BBBBBBBB 1C:00000001 1D:000007D0 1E:00000005 1F:00000004
048: 0005AF03  LW x30, 0(x11)      00:00000000 01:000000C8 02:0000072C 05:00000018 06:00000018 07:0000000A 08:000007EC 09:00000006 0A:000007B8 0B:000007D0 0C:000007D0 0D:00000000 12:0000000A 13:00000006 14:00000002 15:000007DC 16:66666666 17:77777777 18:88888888 19:99999999 1A:AAAAAAAA 1B:BBBBBBBB 1C:00000001 1D:000007D0 1E:00000005 1F:00000004
04C: 00062F83  LW x31, 0(x12)      00:00000000 01:000000C8 02:0000072C 05:00000018 06:00000018 07:0000000A 08:000007EC 09:00000006 0A:000007B8 0B:000007D0 0C:000007D0 0D:00000000 12:0000000A 13:00000006 14:00000002 15:000007DC 16:66666666 17:77777777 18:88888888 19:99999999 1A:AAAAAAAA 1B:BBBBBBBB 1C:00000001 1D:000007D0 1E:00000004 1F:00000004
050: 01F5A023  SW x31, 0(x11)      00:00000000 01:000000C8 02:0000072C 05:00000018 06:00000018 07:0000000A 08:000007EC 09:00000006 0A:000007B8 0B:000007D0 0C:000007D0 0D:00000000 12:0000000A 13:00000006 14:00000002 15:000007DC 16:66666666 17:77777777 18:88888888 19:99999999 1A:AAAAAAAA 1B:BBBBBBBB 1C:00000001 1D:000007D0 1E:00000004 1F:00000004
054: 01E62023  SW x30, 0(x12)      00:00000000 01:000000C8 02:0000072C 05:00000018 06:00000018 07:0000000A 08:000007EC 09:00000006 0A:000007B8 0B:000007D0 0C:000007D0 0D:00000000 12:0000000A 13:00000006 14:00000002 15:000007DC 16:66666666 17:77777777 18:88888888 19:99999999 1A:AAAAAAAA 1B:BBBBBBBB 1C:00000001 1D:000007D0 1E:00000004 1F:00000004
058: 01C12083  LW x1, 28(x2)       00:00000000 01:000000C8 02:0000072C 05:00000018 06:00000018 07:0000000A 08:000007EC 09:00000006 0A:000007B8 0B:000007D0 0C:000007D0 0D:00000000 12:0000000A 13:00000006 14:00000002 15:000007DC 16:66666666 17:77777777 18:88888888 19:99999999 1A:AAAAAAAA 1B:BBBBBBBB 1C:00000001 1D:000007D0 1E:00000004 1F:00000004
05C: 02010113  ADDI x2, x2, 32     00:00000000 01:000000C8 02:0000072C 05:00000018 06:00000018 07:0000000A 08:000007EC 09:00000006 0A:000007B8 0B:000007D0 0C:000007D0 0D:00000000 12:0000000A 13:00000006 14:00000002 15:000007DC 16:66666666 17:77777777 18:88888888 19:99999999 1A:AAAAAAAA 1B:BBBBBBBB 1C:00000001 1D:000007D0 1E:00000004 1F:00000004
060: 00008067  JALR x0, 0(x1)      00:00000000 01:000000C8 02:0000074C 05:00000018 06:00000018 07:0000000A 08:000007EC 09:00000006 0A:000007B8 0B:000007D0 0C:000007D0 0D:00000000 12:0000000A 13:00000006 14:00000002 15:000007DC 16:66666666 17:77777777 18:88888888 19:99999999 1A:AAAAAAAA 1B:BBBBBBBB 1C:00000001 1D:000007D0 1E:00000004 1F:00000004
0C8: 00412583  LW x11, 4(x2)       00:00000000 01:000000C8 02:0000074C 05:00000018 06:00000018 07:0000000A 08:000007EC 09:00000006 0A:000007B8 0B:000007D0 0C:000007D0 0D:00000000 12:0000000A 13:00000006 14:00000002 15:000007DC 16:66666666 17:77777777 18:88888888 19:99999999 1A:AAAAAAAA 1B:BBBBBBBB 1C:00000001 1D:000007D0 1E:00000004 1F:00000004
0CC: 00012603  LW x12, 0(x2)       00:00000000 01:000000C8 02:0000074C 05:00000018 06:00000018 07:0000000A 08:000007EC 09:00000006 0A:000007B8 0B:00000001 0C:000007D0 0D:00000000 12:0000000A 13:00000006 14:00000002 15:000007DC 16:66666666 17:77777777 18:88888888 19:99999999 1A:AAAAAAAA 1B:BBBBBBBB 1C:00000001 1D:000007D0 1E:00000004 1F:00000004
0D0: 0040006F  JAL x0, 4           00:00000000 01:000000C8 02:0000074C 05:00000018 06:00000018 07:0000000A 08:000007EC 09:00000006 0A:000007B8 0B:00000001 0C:00000009 0D:00000000 12:0000000A 13:00000006 14:00000002 15:000007DC 16:66666666 17:77777777 18:88888888 19:99999999 1A:AAAAAAAA 1B:BBBBBBBB 1C:00000001 1D:000007D0 1E:00000004 1F:00000004
0D4: 00148493  ADDI x9, x9, 1      00:00000000 01:000000C8 02:0000074C 05:00000018 06:00000018 07:0000000A 08:000007EC 09:00000006 0A:000007B8 0B:00000001 0C:00000009 0D:00000000 12:0000000A 13:00000006 14:00000002 15:000007DC 16:66666666 17:77777777 18:88888888 19:99999999 1A:AAAAAAAA 1B:BBBBBBBB 1C:00000001 1D:000007D0 1E:00000004 1F:00000004
0D8: FC9FF06F  JAL x0, -56         00:00000000 01:000000C8 02:0000074C 05:00000018 06:00000018 07:0000000A 08:000007EC 09:00000007 0A:000007B8 0B:00000001 0C:00000009 0D:00000000 12:0000000A 13:00000006 14:00000002 15:000007DC 16:66666666 17:77777777 18:88888888 19:99999999 1A:AAAAAAAA 1B:BBBBBBBB 1C:00000001 1D:000007D0 1E:00000004 1F:00000004
0A0: 02C4DE63  BGE x9, x12, 60     00:00000000 01:000000C8 02:0000074C 05:00000018 06:00000018 07:0000000A 08:000007EC 09:00000007 0A:000007B8 0B:00000001 0C:00000009 0D:00000000 12:0000000A 13:00000006 14:00000002 15:000007DC 16:66666666 17:77777777 18:88888888 19:99999999 1A:AAAAAAAA 1B:BBBBBBBB 1C:00000001 1D:000007D0 1E:00000004 1F:00000004
0A4: 014492B3  SLL x5, x9, x20     00:00000000 01:000000C8 02:0000074C 05:00000018 06:00000018 07:0000000A 08:000007EC 09:00000007 0A:000007B8 0B:00000001 0C:00000009 0D:00000000 12:0000000A 13:00000006 14:00000002 15:000007DC 16:66666666 17:77777777 18:88888888 19:99999999 1A:AAAAAAAA 1B:BBBBBBBB 1C:00000001 1D:000007D0 1E:00000004 1F:00000004
0A8: 00550EB3  ADD x29, x10, x5    00:00000000 01:000000C8 02:0000074C 05:0000001C 06:00000018 07:0000000A 08:000007EC 09:00000007 0A:000007B8 0B:00000001 0C:00000009 0D:00000000 12:0000000A 13:00000006 14:00000002 15:000007DC 16:66666666 17:77777777 18:88888888 19:99999999 1A:AAAAAAAA 1B:BBBBBBBB 1C:00000001 1D:000007D0 1E:00000004 1F:00000004
0AC: 000EAF83  LW x31, 0(x29)      00:00000000 01:000000C8 02:0000074C 05:0000001C 06:00000018 07:0000000A 08:000007EC 09:00000007 0A:000007B8 0B:00000001 0C:00000009 0D:00000000 12:0000000A 13:00000006 14:00000002 15:000007DC 16:66666666 17:77777777 18:88888888 19:99999999 1A:AAAAAAAA 1B:BBBBBBBB 1C:00000001 1D:000007D4 1E:00000004 1F:00000004
0B0: 032FD263  BGE x31, x18, 36    00:00000000 01:000000C8 02:0000074C 05:0000001C 06:00000018 07:0000000A 08:000007EC 09:00000007 0A:000007B8 0B:00000001 0C:00000009 0D:00000000 12:0000000A 13:00000006 14:00000002 15:000007DC 16:66666666 17:77777777 18:88888888 19:99999999 1A:AAAAAAAA 1B:BBBBBBBB 1C:00000001 1D:000007D4 1E:00000004 1F:00000003
0B4: 00198993  ADDI x19, x19, 1    00:00000000 01:000000C8 02:0000074C 05:0000001C 06:00000018 07:0000000A 08:000007EC 09:00000007 0A:000007B8 0B:00000001 0C:00000009 0D:00000000 12:0000000A 13:00000006 14:00000002 15:000007DC 16:66666666 17:77777777 18:88888888 19:99999999 1A:AAAAAAAA 1B:BBBBBBBB 1C:00000001 1D:000007D4 1E:00000004 1F:00000003
0B8: 01499333  SLL x6, x19, x20    00:00000000 01:000000C8 02:0000074C 05:0000001C 06:00000018 07:0000000A 08:000007EC 09:00000007 0A:000007B8 0B:00000001 0C:00000009 0D:00000000 12:0000000A 13:00000007 14:00000002 15:000007DC 16:66666666 17:77777777 18:88888888 19:99999999 1A:AAAAAAAA 1B:BBBBBBBB 1C:00000001 1D:000007D4 1E:00000004 1F:00000003
0BC: 006505B3  ADD x11, x10, x6    00:00000000 01:000000C8 02:0000074C 05:0000001C 06:0000001C 07:0000000A 08:000007EC 09:00000007 0A:000007B8 0B:00000001 0C:00000009 0D:00000000 12:0000000A 13:00000007 14:00000002 15:000007DC 16:66666666 17:77777777 18:88888888 19:99999999 1A:AAAAAAAA 1B:BBBBBBBB 1C:00000001 1D:000007D4 1E:00000004 1F:00000003
0C0: 000E8613  ADDI x12, x29, 0    00:00000000 01:000000C8 02:0000074C 05:0000001C 06:0000001C 07:0000000A 08:000007EC 09:00000007 0A:000007B8 0B:000007D4 0C:00000009 0D:00000000 12:0000000A 13:00000007 14:00000002 15:000007DC 16:66666666 17:77777777 18:88888888 19:99999999 1A:AAAAAAAA 1B:BBBBBBBB 1C:00000001 1D:000007D4 1E:00000004 1F:00000003
0C4: F7DFF0EF  JAL x1, -132        00:00000000 01:000000C8 02:0000074C 05:0000001C 06:0000001C 07:0000000A 08:000007EC 09:00000007 0A:000007B8 0B:000007D4 0C:000007D4 0D:00000000 12:0000000A 13:00000007 14:00000002 15:000007DC 16:66666666 17:77777777 18:88888888 19:99999999 1A:AAAAAAAA 1B:BBBBBBBB 1C:00000001 1D:000007D4 1E:00000004 1F:00000003
040: FE010113  ADDI x2, x2, -32    00:00000000 01:000000C8 02:0000074C 05:0000001C 06:0000001C 07:0000000A 08:000007EC 09:00000007 0A:000007B8 0B:000007D4 0C:000007D4 0D:00000000 12:0000000A 13:00000007 14:00000002 15:000007DC 16:66666666 17:77777777 18:88888888 19:99999999 1A:AAAAAAAA 1B:BBBBBBBB 1C:00000001 1D:000007D4 1E:00000004 1F:00000003
044: 00112E23  SW x1, 28(x2)       00:00000000 01:000000C8 02:0000072C 05:0000001C 06:0000001C 07:0000000A 08:000007EC 09:00000007 0A:000007B8 0B:000007D4 0C:000007D4 0D:00000000 12:0000000A 13:00000007 14:00000002 15:000007DC 16:66666666 17:77777777 18:88888888 19:99999999 1A:AAAAAAAA 1B:BBBBBBBB 1C:00000001 1D:000007D4 1E:00000004 1F:00000003
048: 0005AF03  LW x30, 0(x11)      00:00000000 01:000000C8 02:0000072C 05:0000001C 06:0000001C 07:0000000A 08:000007EC 09:00000007 0A:000007B8 0B:000007D4 0C:000007D4 0D:00000000 12:0000000A 13:00000007 14:00000002 15:000007DC 16:66666666 17:77777777 18:88888888 19:99999999 1A:AAAAAAAA 1B:BBBBBBBB 1C:00000001 1D:000007D4 1E:00000004 1F:00000003
04C: 00062F83  LW x31, 0(x12)      00:00000000 01:000000C8 02:0000072C 05:0000001C 06:0000001C 07:0000000A 08:000007EC 09:00000007 0A:000007B8 0B:000007D4 0C:000007D4 0D:00000000 12:0000000A 13:00000007 14:00000002 15:000007DC 16:66666666 17:77777777 18:88888888 19:99999999 1A:AAAAAAAA 1B:BBBBBBBB 1C:00000001 1D:000007D4 1E:00000003 1F:00000003
050: 01F5A023  SW x31, 0(x11)      00:00000000 01:000000C8 02:0000072C 05:0000001C 06:0000001C 07:0000000A 08:000007EC 09:00000007 0A:000007B8 0B:000007D4 0C:000007D4 0D:00000000 12:0000000A 13:00000007 14:00000002 15:000007DC 16:66666666 17:77777777 18:88888888 19:99999999 1A:AAAAAAAA 1B:BBBBBBBB 1C:00000001 1D:000007D4 1E:00000003 1F:00000003
054: 01E62023  SW x30, 0(x12)      00:00000000 01:000000C8 02:0000072C 05:0000001C 06:0000001C 07:0000000A 08:000007EC 09:00000007 0A:000007B8 0B:000007D4 0C:000007D4 0D:00000000 12:0000000A 13:00000007 14:00000002 15:000007DC 16:66666666 17:77777777 18:88888888 19:99999999 1A:AAAAAAAA 1B:BBBBBBBB 1C:00000001 1D:000007D4 1E:00000003 1F:00000003
058: 01C12083  LW x1, 28(x2)       00:00000000 01:000000C8 02:0000072C 05:0000001C 06:0000001C 07:0000000A 08:000007EC 09:00000007 0A:000007B8 0B:000007D4 0C:000007D4 0D:00000000 12:0000000A 13:00000007 14:00000002 15:000007DC 16:66666666 17:77777777 18:88888888 19:99999999 1A:AAAAAAAA 1B:BBBBBBBB 1C:00000001 1D:000007D4 1E:00000003 1F:00000003
05C: 02010113  ADDI x2, x2, 32     00:00000000 01:000000C8 02:0000072C 05:0000001C 06:0000001C 07:0000000A 08:000007EC 09:00000007 0A:000007B8 0B:000007D4 0C:000007D4 0D:00000000 12:0000000A 13:00000007 14:00000002 15:000007DC 16:66666666 17:77777777 18:88888888 19:99999999 1A:AAAAAAAA 1B:BBBBBBBB 1C:00000001 1D:000007D4 1E:00000003 1F:00000003
060: 00008067  JALR x0, 0(x1)      00:00000000 01:000000C8 02:0000074C 05:0000001C 06:0000001C 07:0000000A 08:000007EC 09:00000007 0A:000007B8 0B:000007D4 0C:000007D4 0D:00000000 12:0000000A 13:00000007 14:00000002 15:000007DC 16:66666666 17:77777777 18:88888888 19:99999999 1A:AAAAAAAA 1B:BBBBBBBB 1C:00000001 1D:000007D4 1E:00000003 1F:00000003
0C8: 00412583  LW x11, 4(x2)       00:00000000 01:000000C8 02:0000074C 05:0000001C 06:0000001C 07:0000000A 08:000007EC 09:00000007 0A:000007B8 0B:000007D4 0C:000007D4 0D:00000000 12:0000000A 13:00000007 14:00000002 15:000007DC 16:66666666 17:77777777 18:88888888 19:99999999 1A:AAAAAAAA 1B:BBBBBBBB 1C:00000001 1D:000007D4 1E:00000003 1F:00000003
0CC: 00012603  LW x12, 0(x2)       00:00000000 01:000000C8 02:0000074C 05:0000001C 06:0000001C 07:0000000A 08:000007EC 09:00000007 0A:000007B8 0B:00000001 0C:000007D4 0D:00000000 12:0000000A 13:00000007 14:00000002 15:000007DC 16:66666666 17:77777777 18:88888888 19:99999999 1A:AAAAAAAA 1B:BBBBBBBB 1C:00000001 1D:000007D4 1E:00000003 1F:00000003
0D0: 0040006F  JAL x0, 4           00:00000000 01:000000C8 02:0000074C 05:0000001C 06:0000001C 07:0000000A 08:000007EC 09:00000007 0A:000007B8 0B:00000001 0C:00000009 0D:00000000 12:0000000A 13:00000007 14:00000002 15:000007DC 16:66666666 17:77777777 18:88888888 19:99999999 1A:AAAAAAAA 1B:BBBBBBBB 1C:00000001 1D:000007D4 1E:00000003 1F:00000003
0D4: 00148493  ADDI x9, x9, 1      00:00000000 01:000000C8 02:0000074C 05:0000001C 06:0000001C 07:0000000A 08:000007EC 09:00000007 0A:000007B8 0B:00000001 0C:00000009 0D:00000000 12:0000000A 13:00000007 14:00000002 15:000007DC 16:66666666 17:77777777 18:88888888 19:99999999 1A:AAAAAAAA 1B:BBBBBBBB 1C:00000001 1D:000007D4 1E:00000003 1F:00000003
0D8: FC9FF06F  JAL x0, -56         00:00000000 01:000000C8 02:0000074C 05:0000001C 06:0000001C 07:0000000A 08:000007EC 09:00000008 0A:000007B8 0B:00000001 0C:00000009 0D:00000000 12:0000000A 13:00000007 14:00000002 15:000007DC 16:66666666 17:77777777 18:88888888 19:99999999 1A:AAAAAAAA 1B:BBBBBBBB 1C:00000001 1D:000007D4 1E:00000003 1F:00000003
0A0: 02C4DE63  BGE x9, x12, 60     00:00000000 01:000000C8 02:0000074C 05:0000001C 06:0000001C 07:0000000A 08:000007EC 09:00000008 0A:000007B8 0B:00000001 0C:00000009 0D:00000000 12:0000000A 13:00000007 14:00000002 15:000007DC 16:66666666 17:77777777 18:88888888 19:99999999 1A:AAAAAAAA 1B:BBBBBBBB 1C:00000001 1D:000007D4 1E:00000003 1F:00000003
0A4: 014492B3  SLL x5, x9, x20     00:00000000 01:000000C8 02:0000074C 05:0000001C 06:0000001C 07:0000000A 08:000007EC 09:00000008 0A:000007B8 0B:00000001 0C:00000009 0D:00000000 12:0000000A 13:00000007 14:00000002 15:000007DC 16:66666666 17:77777777 18:88888888 19:99999999 1A:AAAAAAAA 1B:BBBBBBBB 1C:00000001 1D:000007D4 1E:00000003 1F:00000003
0A8: 00550EB3  ADD x29, x10, x5    00:00000000 01:000000C8 02:0000074C 05:00000020 06:0000001C 07:0000000A 08:000007EC 09:00000008 0A:000007B8 0B:00000001 0C:00000009 0D:00000000 12:0000000A 13:00000007 14:00000002 15:000007DC 16:66666666 17:77777777 18:88888888 19:99999999 1A:AAAAAAAA 1B:BBBBBBBB 1C:00000001 1D:000007D4 1E:00000003 1F:00000003
0AC: 000EAF83  LW x31, 0(x29)      00:00000000 01:000000C8 02:0000074C 05:00000020 06:0000001C 07:0000000A 08:000007EC 09:00000008 0A:000007B8 0B:00000001 0C:00000009 0D:00000000 12:0000000A 13:00000007 14:00000002 15:000007DC 16:66666666 17:77777777 18:88888888 19:99999999 1A:AAAAAAAA 1B:BBBBBBBB 1C:00000001 1D:000007D8 1E:00000003 1F:00000003
0B0: 032FD263  BGE x31, x18, 36    00:00000000 01:000000C8 02:0000074C 05:00000020 06:0000001C 07:0000000A 08:000007EC 09:00000008 0A:000007B8 0B:00000001 0C:00000009 0D:00000000 12:0000000A 13:00000007 14:00000002 15:000007DC 16:66666666 17:77777777 18:88888888 19:99999999 1A:AAAAAAAA 1B:BBBBBBBB 1C:00000001 1D:000007D8 1E:00000003 1F:00000002
0B4: 00198993  ADDI x19, x19, 1    00:00000000 01:000000C8 02:0000074C 05:00000020 06:0000001C 07:0000000A 08:000007EC 09:00000008 0A:000007B8 0B:00000001 0C:00000009 0D:00000000 12:0000000A 13:00000007 14:00000002 15:000007DC 16:66666666 17:77777777 18:88888888 19:99999999 1A:AAAAAAAA 1B:BBBBBBBB 1C:00000001 1D:000007D8 1E:00000003 1F:00000002
0B8: 01499333  SLL x6, x19, x20    00:00000000 01:000000C8 02:0000074C 05:00000020 06:0000001C 07:0000000A 08:000007EC 09:00000008 0A:000007B8 0B:00000001 0C:00000009 0D:00000000 12:0000000A 13:00000008 14:00000002 15:000007DC 16:66666666 17:77777777 18:88888888 19:99999999 1A:AAAAAAAA 1B:BBBBBBBB 1C:00000001 1D:000007D8 1E:00000003 1F:00000002
0BC: 006505B3  ADD x11, x10, x6    00:00000000 01:000000C8 02:0000074C 05:00000020 06:00000020 07:0000000A 08:000007EC 09:00000008 0A:000007B8 0B:00000001 0C:00000009 0D:00000000 12:0000000A 13:00000008 14:00000002 15:000007DC 16:66666666 17:77777777 18:88888888 19:99999999 1A:AAAAAAAA 1B:BBBBBBBB 1C:00000001 1D:000007D8 1E:00000003 1F:00000002
0C0: 000E8613  ADDI x12, x29, 0    00:00000000 01:000000C8 02:0000074C 05:00000020 06:00000020 07:0000000A 08:000007EC 09:00000008 0A:000007B8 0B:000007D8 0C:00000009 0D:00000000 12:0000000A 13:00000008 14:00000002 15:000007DC 16:66666666 17:77777777 18:88888888 19:99999999 1A:AAAAAAAA 1B:BBBBBBBB 1C:00000001 1D:000007D8 1E:00000003 1F:00000002
0C4: F7DFF0EF  JAL x1, -132        00:00000000 01:000000C8 02:0000074C 05:00000020 06:00000020 07:0000000A 08:000007EC 09:00000008 0A:000007B8 0B:000007D8 0C:000007D8 0D:00000000 12:0000000A 13:00000008 14:00000002 15:000007DC 16:66666666 17:77777777 18:88888888 19:99999999 1A:AAAAAAAA 1B:BBBBBBBB 1C:00000001 1D:000007D8 1E:00000003 1F:00000002
040: FE010113  ADDI x2, x2, -32    00:00000000 01:000000C8 02:0000074C 05:00000020 06:00000020 07:0000000A 08:000007EC 09:00000008 0A:000007B8 0B:000007D8 0C:000007D8 0D:00000000 12:0000000A 13:00000008 14:00000002 15:000007DC 16:66666666 17:77777777 18:88888888 19:99999999 1A:AAAAAAAA 1B:BBBBBBBB 1C:00000001 1D:000007D8 1E:00000003 1F:00000002
044: 00112E23  SW x1, 28(x2)       00:00000000 01:000000C8 02:0000072C 05:00000020 06:00000020 07:0000000A 08:000007EC 09:00000008 0A:000007B8 0B:000007D8 0C:000007D8 0D:00000000 12:0000000A 13:00000008 14:00000002 15:000007DC 16:66666666 17:77777777 18:88888888 19:99999999 1A:AAAAAAAA 1B:BBBBBBBB 1C:00000001 1D:000007D8 1E:00000003 1F:00000002
048: 0005AF03  LW x30, 0(x11)      00:00000000 01:000000C8 02:0000072C 05:00000020 06:00000020 07:0000000A 08:000007EC 09:00000008 0A:000007B8 0B:000007D8 0C:000007D8 0D:00000000 12:0000000A 13:00000008 14:00000002 15:000007DC 16:66666666 17:77777777 18:88888888 19:99999999 1A:AAAAAAAA 1B:BBBBBBBB 1C:00000001 1D:000007D8 1E:00000003 1F:00000002
04C: 00062F83  LW x31, 0(x12)      00:00000000 01:000000C8 02:0000072C 05:00000020 06:00000020 07:0000000A 08:000007EC 09:00000008 0A:000007B8 0B:000007D8 0C:000007D8 0D:00000000 12:0000000A 13:00000008 14:00000002 15:000007DC 16:66666666 17:77777777 18:88888888 19:99999999 1A:AAAAAAAA 1B:BBBBBBBB 1C:00000001 1D:000007D8 1E:00000002 1F:00000002
050: 01F5A023  SW x31, 0(x11)      00:00000000 01:000000C8 02:0000072C 05:00000020 06:00000020 07:0000000A 08:000007EC 09:00000008 0A:000007B8 0B:000007D8 0C:000007D8 0D:00000000 12:0000000A 13:00000008 14:00000002 15:000007DC 16:66666666 17:77777777 18:88888888 19:99999999 1A:AAAAAAAA 1B:BBBBBBBB 1C:00000001 1D:000007D8 1E:00000002 1F:00000002
054: 01E62023  SW x30, 0(x12)      00:00000000 01:000000C8 02:0000072C 05:00000020 06:00000020 07:0000000A 08:000007EC 09:00000008 0A:000007B8 0B:000007D8 0C:000007D8 0D:00000000 12:0000000A 13:00000008 14:00000002 15:000007DC 16:66666666 17:77777777 18:88888888 19:99999999 1A:AAAAAAAA 1B:BBBBBBBB 1C:00000001 1D:000007D8 1E:00000002 1F:00000002
058: 01C12083  LW x1, 28(x2)       00:00000000 01:000000C8 02:0000072C 05:00000020 06:00000020 07:0000000A 08:000007EC 09:00000008 0A:000007B8 0B:000007D8 0C:000007D8 0D:00000000 12:0000000A 13:00000008 14:00000002 15:000007DC 16:66666666 17:77777777 18:88888888 19:99999999 1A:AAAAAAAA 1B:BBBBBBBB 1C:00000001 1D:000007D8 1E:00000002 1F:00000002
05C: 02010113  ADDI x2, x2, 32     00:00000000 01:000000C8 02:0000072C 05:00000020 06:00000020 07:0000000A 08:000007EC 09:00000008 0A:000007B8 0B:000007D8 0C:000007D8 0D:00000000 12:0000000A 13:00000008 14:00000002 15:000007DC 16:66666666 17:77777777 18:88888888 19:99999999 1A:AAAAAAAA 1B:BBBBBBBB 1C:00000001 1D:000007D8 1E:00000002 1F:00000002
060: 00008067  JALR x0, 0(x1)      00:00000000 01:000000C8 02:0000074C 05:00000020 06:00000020 07:0000000A 08:000007EC 09:00000008 0A:000007B8 0B:000007D8 0C:000007D8 0D:00000000 12:0000000A 13:00000008 14:00000002 15:000007DC 16:66666666 17:77777777 18:88888888 19:99999999 1A:AAAAAAAA 1B:BBBBBBBB 1C:00000001 1D:000007D8 1E:00000002 1F:00000002
0C8: 00412583  LW x11, 4(x2)       00:00000000 01:000000C8 02:0000074C 05:00000020 06:00000020 07:0000000A 08:000007EC 09:00000008 0A:000007B8 0B:000007D8 0C:000007D8 0D:00000000 12:0000000A 13:00000008 14:00000002 15:000007DC 16:66666666 17:77777777 18:88888888 19:99999999 1A:AAAAAAAA 1B:BBBBBBBB 1C:00000001 1D:000007D8 1E:00000002 1F:00000002
0CC: 00012603  LW x12, 0(x2)       00:00000000 01:000000C8 02:0000074C 05:00000020 06:00000020 07:0000000A 08:000007EC 09:00000008 0A:000007B8 0B:00000001 0C:000007D8 0D:00000000 12:0000000A 13:00000008 14:00000002 15:000007DC 16:66666666 17:77777777 18:88888888 19:99999999 1A:AAAAAAAA 1B:BBBBBBBB 1C:00000001 1D:000007D8 1E:00000002 1F:00000002
0D0: 0040006F  JAL x0, 4           00:00000000 01:000000C8 02:0000074C 05:00000020 06:00000020 07:0000000A 08:000007EC 09:00000008 0A:000007B8 0B:00000001 0C:00000009 0D:00000000 12:0000000A 13:00000008 14:00000002 15:000007DC 16:66666666 17:77777777 18:88888888 19:99999999 1A:AAAAAAAA 1B:BBBBBBBB 1C:00000001 1D:000007D8 1E:00000002 1F:00000002
0D4: 00148493  ADDI x9, x9, 1      00:00000000 01:000000C8 02:0000074C 05:00000020 06:00000020 07:0000000A 08:000007EC 09:00000008 0A:000007B8 0B:00000001 0C:00000009 0D:00000000 12:0000000A 13:00000008 14:00000002 15:000007DC 16:66666666 17:77777777 18:88888888 19:99999999 1A:AAAAAAAA 1B:BBBBBBBB 1C:00000001 1D:000007D8 1E:00000002 1F:00000002
0D8: FC9FF06F  JAL x0, -56         00:00000000 01:000000C8 02:0000074C 05:00000020 06:00000020 07:0000000A 08:000007EC 09:00000009 0A:000007B8 0B:00000001 0C:00000009 0D:00000000 12:0000000A 13:00000008 14:00000002 15:000007DC 16:66666666 17:77777777 18:88888888 19:99999999 1A:AAAAAAAA 1B:BBBBBBBB 1C:00000001 1D:000007D8 1E:00000002 1F:00000002
0A0: 02C4DE63  BGE x9, x12, 60     00:00000000 01:000000C8 02:0000074C 05:00000020 06:00000020 07:0000000A 08:000007EC 09:00000009 0A:000007B8 0B:00000001 0C:00000009 0D:00000000 12:0000000A 13:00000008 14:00000002 15:000007DC 16:66666666 17:77777777 18:88888888 19:99999999 1A:AAAAAAAA 1B:BBBBBBBB 1C:00000001 1D:000007D8 1E:00000002 1F:00000002
0DC: 00198993  ADDI x19, x19, 1    00:00000000 01:000000C8 02:0000074C 05:00000020 06:00000020 07:0000000A 08:000007EC 09:00000009 0A:000007B8 0B:00000001 0C:00000009 0D:00000000 12:0000000A 13:00000008 14:00000002 15:000007DC 16:66666666 17:77777777 18:88888888 19:99999999 1A:AAAAAAAA 1B:BBBBBBBB 1C:00000001 1D:000007D8 1E:00000002 1F:00000002
0E0: 01499333  SLL x6, x19, x20    00:00000000 01:000000C8 02:0000074C 05:00000020 06:00000020 07:0000000A 08:000007EC 09:00000009 0A:000007B8 0B:00000001 0C:00000009 0D:00000000 12:0000000A 13:00000009 14:00000002 15:000007DC 16:66666666 17:77777777 18:88888888 19:99999999 1A:AAAAAAAA 1B:BBBBBBBB 1C:00000001 1D:000007D8 1E:00000002 1F:00000002
0E4: 006505B3  ADD x11, x10, x6    00:00000000 01:000000C8 02:0000074C 05:00000020 06:00000024 07:0000000A 08:000007EC 09:00000009 0A:000007B8 0B:00000001 0C:00000009 0D:00000000 12:0000000A 13:00000009 14:00000002 15:000007DC 16:66666666 17:77777777 18:88888888 19:99999999 1A:AAAAAAAA 1B:BBBBBBBB 1C:00000001 1D:000007D8 1E:00000002 1F:00000002
0E8: 000A8613  ADDI x12, x21, 0    00:00000000 01:000000C8 02:0000074C 05:00000020 06:00000024 07:0000000A 08:000007EC 09:00000009 0A:000007B8 0B:000007DC 0C:00000009 0D:00000000 12:0000000A 13:00000009 14:00000002 15:000007DC 16:66666666 17:77777777 18:88888888 19:99999999 1A:AAAAAAAA 1B:BBBBBBBB 1C:00000001 1D:000007D8 1E:00000002 1F:00000002
0EC: F55FF0EF  JAL x1, -172        00:00000000 01:000000C8 02:0000074C 05:00000020 06:00000024 07:0000000A 08:000007EC 09:00000009 0A:000007B8 0B:000007DC 0C:000007DC 0D:00000000 12:0000000A 13:00000009 14:00000002 15:000007DC 16:66666666 17:77777777 18:88888888 19:99999999 1A:AAAAAAAA 1B:BBBBBBBB 1C:00000001 1D:000007D8 1E:00000002 1F:00000002
040: FE010113  ADDI x2, x2, -32    00:00000000 01:000000F0 02:0000074C 05:00000020 06:00000024 07:0000000A 08:000007EC 09:00000009 0A:000007B8 0B:000007DC 0C:000007DC 0D:00000000 12:0000000A 13:00000009 14:00000002 15:000007DC 16:66666666 17:77777777 18:88888888 19:99999999 1A:AAAAAAAA 1B:BBBBBBBB 1C:00000001 1D:000007D8 1E:00000002 1F:00000002
044: 00112E23  SW x1, 28(x2)       00:00000000 01:000000F0 02:0000072C 05:00000020 06:00000024 07:0000000A 08:000007EC 09:00000009 0A:000007B8 0B:000007DC 0C:000007DC 0D:00000000 12:0000000A 13:00000009 14:00000002 15:000007DC 16:66666666 17:77777777 18:88888888 19:99999999 1A:AAAAAAAA 1B:BBBBBBBB 1C:00000001 1D:000007D8 1E:00000002 1F:00000002
048: 0005AF03  LW x30, 0(x11)      00:00000000 01:000000F0 02:0000072C 05:00000020 06:00000024 07:0000000A 08:000007EC 09:00000009 0A:000007B8 0B:000007DC 0C:000007DC 0D:00000000 12:0000000A 13:00000009 14:00000002 15:000007DC 16:66666666 17:77777777 18:88888888 19:99999999 1A:AAAAAAAA 1B:BBBBBBBB 1C:00000001 1D:000007D8 1E:00000002 1F:00000002
04C: 00062F83  LW x31, 0(x12)      00:00000000 01:000000F0 02:0000072C 05:00000020 06:00000024 07:0000000A 08:000007EC 09:00000009 0A:000007B8 0B:000007DC 0C:000007DC 0D:00000000 12:0000000A 13:00000009 14:00000002 15:000007DC 16:66666666 17:77777777 18:88888888 19:99999999 1A:AAAAAAAA 1B:BBBBBBBB 1C:00000001 1D:000007D8 1E:0000000A 1F:00000002
050: 01F5A023  SW x31, 0(x11)      00:00000000 01:000000F0 02:0000072C 05:00000020 06:00000024 07:0000000A 08:000007EC 09:00000009 0A:000007B8 0B:000007DC 0C:000007DC 0D:00000000 12:0000000A 13:00000009 14:00000002 15:000007DC 16:66666666 17:77777777 18:88888888 19:99999999 1A:AAAAAAAA 1B:BBBBBBBB 1C:00000001 1D:000007D8 1E:0000000A 1F:0000000A
054: 01E62023  SW x30, 0(x12)      00:00000000 01:000000F0 02:0000072C 05:00000020 06:00000024 07:0000000A 08:000007EC 09:00000009 0A:000007B8 0B:000007DC 0C:000007DC 0D:00000000 12:0000000A 13:00000009 14:00000002 15:000007DC 16:66666666 17:77777777 18:88888888 19:99999999 1A:AAAAAAAA 1B:BBBBBBBB 1C:00000001 1D:000007D8 1E:0000000A 1F:0000000A
058: 01C12083  LW x1, 28(x2)       00:00000000 01:000000F0 02:0000072C 05:00000020 06:00000024 07:0000000A 08:000007EC 09:00000009 0A:000007B8 0B:000007DC 0C:000007DC 0D:00000000 12:0000000A 13:00000009 14:00000002 15:000007DC 16:66666666 17:77777777 18:88888888 19:99999999 1A:AAAAAAAA 1B:BBBBBBBB 1C:00000001 1D:000007D8 1E:0000000A 1F:0000000A
05C: 02010113  ADDI x2, x2, 32     00:00000000 01:000000F0 02:0000072C 05:00000020 06:00000024 07:0000000A 08:000007EC 09:00000009 0A:000007B8 0B:000007DC 0C:000007DC 0D:00000000 12:0000000A 13:00000009 14:00000002 15:000007DC 16:66666666 17:77777777 18:88888888 19:99999999 1A:AAAAAAAA 1B:BBBBBBBB 1C:00000001 1D:000007D8 1E:0000000A 1F:0000000A
060: 00008067  JALR x0, 0(x1)      00:00000000 01:000000F0 02:0000074C 05:00000020 06:00000024 07:0000000A 08:000007EC 09:00000009 0A:000007B8 0B:000007DC 0C:000007DC 0D:00000000 12:0000000A 13:00000009 14:00000002 15:000007DC 16:66666666 17:77777777 18:88888888 19:99999999 1A:AAAAAAAA 1B:BBBBBBBB 1C:00000001 1D:000007D8 1E:0000000A 1F:0000000A
0F0: 00412583  LW x11, 4(x2)       00:00000000 01:000000F0 02:0000074C 05:00000020 06:00000024 07:0000000A 08:000007EC 09:00000009 0A:000007B8 0B:000007DC 0C:000007DC 0D:00000000 12:0000000A 13:00000009 14:00000002 15:000007DC 16:66666666 17:77777777 18:88888888 19:99999999 1A:AAAAAAAA 1B:BBBBBBBB 1C:00000001 1D:000007D8 1E:0000000A 1F:0000000A
0F4: 00012603  LW x12, 0(x2)       00:00000000 01:000000F0 02:0000074C 05:00000020 06:00000024 07:0000000A 08:000007EC 09:00000009 0A:000007B8 0B:00000001 0C:000007DC 0D:00000000 12:0000000A 13:00000009 14:00000002 15:000007DC 16:66666666 17:77777777 18:88888888 19:99999999 1A:AAAAAAAA 1B:BBBBBBBB 1C:00000001 1D:000007D8 1E:0000000A 1F:0000000A
0F8: 00098513  ADDI x10, x19, 0    00:00000000 01:000000F0 02:0000074C 05:00000020 06:00000024 07:0000000A 08:000007EC 09:00000009 0A:000007B8 0B:00000001 0C:00000009 0D:00000000 12:0000000A 13:00000009 14:00000002 15:000007DC 16:66666666 17:77777777 18:88888888 19:99999999 1A:AAAAAAAA 1B:BBBBBBBB 1C:00000001 1D:000007D8 1E:0000000A 1F:0000000A
0FC: 01812483  LW x9, 24(x2)       00:00000000 01:000000F0 02:0000074C 05:00000020 06:00000024 07:0000000A 08:000007EC 09:00000009 0A:00000009 0B:00000001 0C:00000009 0D:00000000 12:0000000A 13:00000009 14:00000002 15:000007DC 16:66666666 17:77777777 18:88888888 19:99999999 1A:AAAAAAAA 1B:BBBBBBBB 1C:00000001 1D:000007D8 1E:0000000A 1F:0000000A
100: 01412903  LW x18, 20(x2)      00:00000000 01:000000F0 02:0000074C 05:00000020 06:00000024 07:0000000A 08:000007EC 09:11111111 0A:00000009 0B:00000001 0C:00000009 0D:00000000 12:0000000A 13:00000009 14:00000002 15:000007DC 16:66666666 17:77777777 18:88888888 19:99999999 1A:AAAAAAAA 1B:BBBBBBBB 1C:00000001 1D:000007D8 1E:0000000A 1F:0000000A
104: 01012983  LW x19, 16(x2)      00:00000000 01:000000F0 02:0000074C 05:00000020 06:00000024 07:0000000A 08:000007EC 09:11111111 0A:00000009 0B:00000001 0C:00000009 0D:00000000 12:22222222 13:00000009 14:00000002 15:000007DC 16:66666666 17:77777777 18:88888888 19:99999999 1A:AAAAAAAA 1B:BBBBBBBB 1C:00000001 1D:000007D8 1E:0000000A 1F:0000000A
108: 00C12A03  LW x20, 12(x2)      00:00000000 01:000000F0 02:0000074C 05:00000020 06:00000024 07:0000000A 08:000007EC 09:11111111 0A:00000009 0B:00000001 0C:00000009 0D:00000000 12:22222222 13:33333333 14:00000002 15:000007DC 16:66666666 17:77777777 18:88888888 19:99999999 1A:AAAAAAAA 1B:BBBBBBBB 1C:00000001 1D:000007D8 1E:0000000A 1F:0000000A
10C: 00812A83  LW x21, 8(x2)       00:00000000 01:000000F0 02:0000074C 05:00000020 06:00000024 07:0000000A 08:000007EC 09:11111111 0A:00000009 0B:00000001 0C:00000009 0D:00000000 12:22222222 13:33333333 14:44444444 15:000007DC 16:66666666 17:77777777 18:88888888 19:99999999 1A:AAAAAAAA 1B:BBBBBBBB 1C:00000001 1D:000007D8 1E:0000000A 1F:0000000A
110: 01C12083  LW x1, 28(x2)       00:00000000 01:000000F0 02:0000074C 05:00000020 06:00000024 07:0000000A 08:000007EC 09:11111111 0A:00000009 0B:00000001 0C:00000009 0D:00000000 12:22222222 13:33333333 14:44444444 15:55555555 16:66666666 17:77777777 18:88888888 19:99999999 1A:AAAAAAAA 1B:BBBBBBBB 1C:00000001 1D:000007D8 1E:0000000A 1F:0000000A
114: 02010113  ADDI x2, x2, 32     00:00000000 01:00000134 02:0000074C 05:00000020 06:00000024 07:0000000A 08:000007EC 09:11111111 0A:00000009 0B:00000001 0C:00000009 0D:00000000 12:22222222 13:33333333 14:44444444 15:55555555 16:66666666 17:77777777 18:88888888 19:99999999 1A:AAAAAAAA 1B:BBBBBBBB 1C:00000001 1D:000007D8 1E:0000000A 1F:0000000A
118: 00008067  JALR x0, 0(x1)      00:00000000 01:00000134 02:0000076C 05:00000020 06:00000024 07:0000000A 08:000007EC 09:11111111 0A:00000009 0B:00000001 0C:00000009 0D:00000000 12:22222222 13:33333333 14:44444444 15:55555555 16:66666666 17:77777777 18:88888888 19:99999999 1A:AAAAAAAA 1B:BBBBBBBB 1C:00000001 1D:000007D8 1E:0000000A 1F:0000000A
134: 00050693  ADDI x13, x10, 0    00:00000000 01:00000134 02:0000076C 05:00000020 06:00000024 07:0000000A 08:000007EC 09:11111111 0A:00000009 0B:00000001 0C:00000009 0D:00000000 12:22222222 13:33333333 14:44444444 15:55555555 16:66666666 17:77777777 18:88888888 19:99999999 1A:AAAAAAAA 1B:BBBBBBBB 1C:00000001 1D:000007D8 1E:0000000A 1F:0000000A
138: 00C12503  LW x10, 12(x2)      00:00000000 01:00000134 02:0000076C 05:00000020 06:00000024 07:0000000A 08:000007EC 09:11111111 0A:00000009 0B:00000001 0C:00000009 0D:00000009 12:22222222 13:33333333 14:44444444 15:55555555 16:66666666 17:77777777 18:88888888 19:99999999 1A:AAAAAAAA 1B:BBBBBBBB 1C:00000001 1D:000007D8 1E:0000000A 1F:0000000A
13C: FFF68613  ADDI x12, x13, -1   00:00000000 01:00000134 02:0000076C 05:00000020 06:00000024 07:0000000A 08:000007EC 09:11111111 0A:000007B8 0B:00000001 0C:00000009 0D:00000009 12:22222222 13:33333333 14:44444444 15:55555555 16:66666666 17:77777777 18:88888888 19:99999999 1A:AAAAAAAA 1B:BBBBBBBB 1C:00000001 1D:000007D8 1E:0000000A 1F:0000000A
140: FDDFF0EF  JAL x1, -36         00:00000000 01:00000134 02:0000076C 05:00000020 06:00000024 07:0000000A 08:000007EC 09:11111111 0A:000007B8 0B:00000001 0C:00000008 0D:00000009 12:22222222 13:33333333 14:44444444 15:55555555 16:66666666 17:77777777 18:88888888 19:99999999 1A:AAAAAAAA 1B:BBBBBBBB 1C:00000001 1D:000007D8 1E:0000000A 1F:0000000A
11C: FE010113  ADDI x2, x2, -32    00:00000000 01:00000144 02:0000076C 05:00000020 06:00000024 07:0000000A 08:000007EC 09:11111111 0A:000007B8 0B:00000001 0C:00000008 0D:00000009 12:22222222 13:33333333 14:44444444 15:55555555 16:66666666 17:77777777 18:88888888 19:99999999 1A:AAAAAAAA 1B:BBBBBBBB 1C:00000001 1D:000007D8 1E:0000000A 1F:0000000A
120: 00112E23  SW x1, 28(x2)       00:00000000 01:00000144 02:0000074C 05:00000020 06:00000024 07:0000000A 08:000007EC 09:11111111 0A:000007B8 0B:00000001 0C:00000008 0D:00000009 12:22222222 13:33333333 14:44444444 15:55555555 16:66666666 17:77777777 18:88888888 19:99999999 1A:AAAAAAAA 1B:BBBBBBBB 1C:00000001 1D:000007D8 1E:0000000A 1F:0000000A
124: 00C12A23  SW x12, 20(x2)      00:00000000 01:00000144 02:0000074C 05:00000020 06:00000024 07:0000000A 08:000007EC 09:11111111 0A:000007B8 0B:00000001 0C:00000008 0D:00000009 12:22222222 13:33333333 14:44444444 15:55555555 16:66666666 17:77777777 18:88888888 19:99999999 1A:AAAAAAAA 1B:BBBBBBBB 1C:00000001 1D:000007D8 1E:0000000A 1F:0000000A
128: 00A12623  SW x10, 12(x2)      00:00000000 01:00000144 02:0000074C 05:00000020 06:00000024 07:0000000A 08:000007EC 09:11111111 0A:000007B8 0B:00000001 0C:00000008 0D:00000009 12:22222222 13:33333333 14:44444444 15:55555555 16:66666666 17:77777777 18:88888888 19:99999999 1A:AAAAAAAA 1B:BBBBBBBB 1C:00000001 1D:000007D8 1E:0000000A 1F:0000000A
12C: 02C5D463  BGE x11, x12, 40    00:00000000 01:00000144 02:0000074C 05:00000020 06:00000024 07:0000000A 08:000007EC 09:11111111 0A:000007B8 0B:00000001 0C:00000008 0D:00000009 12:22222222 13:33333333 14:44444444 15:55555555 16:66666666 17:77777777 18:88888888 19:99999999 1A:AAAAAAAA 1B:BBBBBBBB 1C:00000001 1D:000007D8 1E:0000000A 1F:0000000A
130: F35FF0EF  JAL x1, -204        00:00000000 01:00000144 02:0000074C 05:00000020 06:00000024 07:0000000A 08:000007EC 09:11111111 0A:000007B8 0B:00000001 0C:00000008 0D:00000009 12:22222222 13:33333333 14:44444444 15:55555555 16:66666666 17:77777777 18:88888888 19:99999999 1A:AAAAAAAA 1B:BBBBBBBB 1C:00000001 1D:000007D8 1E:0000000A 1F:0000000A
064: FE010113  ADDI x2, x2, -32    00:00000000 01:00000134 02:0000074C 05:00000020 06:00000024 07:0000000A 08:000007EC 09:11111111 0A:000007B8 0B:00000001 0C:00000008 0D:00000009 12:22222222 13:33333333 14:44444444 15:55555555 16:66666666 17:77777777 18:88888888 19:99999999 1A:AAAAAAAA 1B:BBBBBBBB 1C:00000001 1D:000007D8 1E:0000000A 1F:0000000A
068: 00112E23  SW x1, 28(x2)       00:00000000 01:00000134 02:0000072C 05:00000020 06:00000024 07:0000000A 08:000007EC 09:11111111 0A:000007B8 0B:00000001 0C:00000008 0D:00000009 12:22222222 13:33333333 14:44444444 15:55555555 16:66666666 17:77777777 18:88888888 19:99999999 1A:AAAAAAAA 1B:BBBBBBBB 1C:00000001 1D:000007D8 1E:0000000A 1F:0000000A
06C: 00912C23  SW x9, 24(x2)       00:00000000 01:00000134 02:0000072C 05:00000020 06:00000024 07:0000000A 08:000007EC 09:11111111 0A:000007B8 0B:00000001 0C:00000008 0D:00000009 12:22222222 13:33333333 14:44444444 15:55555555 16:66666666 17:77777777 18:88888888 19:99999999 1A:AAAAAAAA 1B:BBBBBBBB 1C:00000001 1D:000007D8 1E:0000000A 1F:0000000A
070: 01212A23  SW x18, 20(x2)      00:00000000 01:00000134 02:0000072C 05:00000020 06:00000024 07:0000000A 08:000007EC 09:11111111 0A:000007B8 0B:00000001 0C:00000008 0D:00000009 12:22222222 13:33333333 14:44444444 15:55555555 16:66666666 17:77777777 18:88888888 19:99999999 1A:AAAAAAAA 1B:BBBBBBBB 1C:00000001 1D:000007D8 1E:0000000A 1F:0000000A
074: 01312823  SW x19, 16(x2)      00:00000000 01:00000134 02:0000072C 05:00000020 06:00000024 07:0000000A 08:000007EC 09:11111111 0A:000007B8 0B:00000001 0C:00000008 0D:00000009 12:22222222 13:33333333 14:44444444 15:55555555 16:66666666 17:77777777 18:88888888 19:99999999 1A:AAAAAAAA 1B:BBBBBBBB 1C:00000001 1D:000007D8 1E:0000000A 1F:0000000A
078: 01412623  SW x20, 12(x2)      00:00000000 01:00000134 02:0000072C 05:00000020 06:00000024 07:0000000A 08:000007EC 09:11111111 0A:000007B8 0B:00000001 0C:00000008 0D:00000009 12:22222222 13:33333333 14:44444444 15:55555555 16:66666666 17:77777777 18:88888888 19:99999999 1A:AAAAAAAA 1B:BBBBBBBB 1C:00000001 1D:000007D8 1E:0000000A 1F:0000000A
07C: 01512423  SW x21, 8(x2)       00:00000000 01:00000134 02:0000072C 05:00000020 06:00000024 07:0000000A 08:000007EC 09:11111111 0A:000007B8 0B:00000001 0C:00000008 0D:00000009 12:22222222 13:33333333 14:44444444 15:55555555 16:66666666 17:77777777 18:88888888 19:99999999 1A:AAAAAAAA 1B:BBBBBBBB 1C:00000001 1D:000007D8 1E:0000000A 1F:0000000A
080: 00B12223  SW x11, 4(x2)       00:00000000 01:00000134 02:0000072C 05:00000020 06:00000024 07:0000000A 08:000007EC 09:11111111 0A:000007B8 0B:00000001 0C:00000008 0D:00000009 12:22222222 13:33333333 14:44444444 15:55555555 16:66666666 17:77777777 18:88888888 19:99999999 1A:AAAAAAAA 1B:BBBBBBBB 1C:00000001 1D:000007D8 1E:0000000A 1F:0000000A
084: 00C12023  SW x12, 0(x2)       00:00000000 01:00000134 02:0000072C 05:00000020 06:00000024 07:0000000A 08:000007EC 09:11111111 0A:000007B8 0B:00000001 0C:00000008 0D:00000009 12:22222222 13:33333333 14:44444444 15:55555555 16:66666666 17:77777777 18:88888888 19:99999999 1A:AAAAAAAA 1B:BBBBBBBB 1C:00000001 1D:000007D8 1E:0000000A 1F:0000000A
088: 00200A13  ADDI x20, x0, 2     00:00000000 01:00000134 02:0000072C 05:00000020 06:00000024 07:0000000A 08:000007EC 09:11111111 0A:000007B8 0B:00000001 0C:00000008 0D:00000009 12:22222222 13:33333333 14:44444444 15:55555555 16:66666666 17:77777777 18:88888888 19:99999999 1A:AAAAAAAA 1B:BBBBBBBB 1C:00000001 1D:000007D8 1E:0000000A 1F:0000000A
08C: 01461333  SLL x6, x12, x20    00:00000000 01:00000134 02:0000072C 05:00000020 06:00000024 07:0000000A 08:000007EC 09:11111111 0A:000007B8 0B:00000001 0C:00000008 0D:00000009 12:22222222 13:33333333 14:00000002 15:55555555 16:66666666 17:77777777 18:88888888 19:99999999 1A:AAAAAAAA 1B:BBBBBBBB 1C:00000001 1D:000007D8 1E:0000000A 1F:0000000A
090: 00650AB3  ADD x21, x10, x6    00:00000000 01:00000134 02:0000072C 05:00000020 06:00000020 07:0000000A 08:000007EC 09:11111111 0A:000007B8 0B:00000001 0C:00000008 0D:00000009 12:22222222 13:33333333 14:00000002 15:55555555 16:66666666 17:77777777 18:88888888 19:99999999 1A:AAAAAAAA 1B:BBBBBBBB 1C:00000001 1D:000007D8 1E:0000000A 1F:0000000A
094: 000AA903  LW x18, 0(x21)      00:00000000 01:00000134 02:0000072C 05:00000020 06:00000020 07:0000000A 08:000007EC 09:11111111 0A:000007B8 0B:00000001 0C:00000008 0D:00000009 12:22222222 13:33333333 14:00000002 15:000007D8 16:66666666 17:77777777 18:88888888 19:99999999 1A:AAAAAAAA 1B:BBBBBBBB 1C:00000001 1D:000007D8 1E:0000000A 1F:0000000A
098: 00058493  ADDI x9, x11, 0     00:00000000 01:00000134 02:0000072C 05:00000020 06:00000020 07:0000000A 08:000007EC 09:11111111 0A:000007B8 0B:00000001 0C:00000008 0D:00000009 12:00000002 13:33333333 14:00000002 15:000007D8 16:66666666 17:77777777 18:88888888 19:99999999 1A:AAAAAAAA 1B:BBBBBBBB 1C:00000001 1D:000007D8 1E:0000000A 1F:0000000A
09C: FFF58993  ADDI x19, x11, -1   00:00000000 01:00000134 02:0000072C 05:00000020 06:00000020 07:0000000A 08:000007EC 09:00000001 0A:000007B8 0B:00000001 0C:00000008 0D:00000009 12:00000002 13:33333333 14:00000002 15:000007D8 16:66666666 17:77777777 18:88888888 19:99999999 1A:AAAAAAAA 1B:BBBBBBBB 1C:00000001 1D:000007D8 1E:0000000A 1F:0000000A
0A0: 02C4DE63  BGE x9, x12, 60     00:00000000 01:00000134 02:0000072C 05:00000020 06:00000020 07:0000000A 08:000007EC 09:00000001 0A:000007B8 0B:00000001 0C:00000008 0D:00000009 12:00000002 13:00000000 14:00000002 15:000007D8 16:66666666 17:77777777 18:88888888 19:99999999 1A:AAAAAAAA 1B:BBBBBBBB 1C:00000001 1D:000007D8 1E:0000000A 1F:0000000A
0A4: 014492B3  SLL x5, x9, x20     00:00000000 01:00000134 02:0000072C 05:00000020 06:00000020 07:0000000A 08:000007EC 09:00000001 0A:000007B8 0B:00000001 0C:00000008 0D:00000009 12:00000002 13:00000000 14:00000002 15:000007D8 16:66666666 17:77777777 18:88888888 19:99999999 1A:AAAAAAAA 1B:BBBBBBBB 1C:00000001 1D:000007D8 1E:0000000A 1F:0000000A
0A8: 00550EB3  ADD x29, x10, x5    00:00000000 01:00000134 02:0000072C 05:00000004 06:00000020 07:0000000A 08:000007EC 09:00000001 0A:000007B8 0B:00000001 0C:00000008 0D:00000009 12:00000002 13:00000000 14:00000002 15:000007D8 16:66666666 17:77777777 18:88888888 19:99999999 1A:AAAAAAAA 1B:BBBBBBBB 1C:00000001 1D:000007D8 1E:0000000A 1F:0000000A
0AC: 000EAF83  LW x31, 0(x29)      00:00000000 01:00000134 02:0000072C 05:00000004 06:00000020 07:0000000A 08:000007EC 09:00000001 0A:000007B8 0B:00000001 0C:00000008 0D:00000009 12:00000002 13:00000000 14:00000002 15:000007D8 16:66666666 17:77777777 18:88888888 19:99999999 1A:AAAAAAAA 1B:BBBBBBBB 1C:00000001 1D:000007BC 1E:0000000A 1F:0000000A
0B0: 032FD263  BGE x31, x18, 36    00:00000000 01:00000134 02:0000072C 05:00000004 06:00000020 07:0000000A 08:000007EC 09:00000001 0A:000007B8 0B:00000001 0C:00000008 0D:00000009 12:00000002 13:00000000 14:00000002 15:000007D8 16:66666666 17:77777777 18:88888888 19:99999999 1A:AAAAAAAA 1B:BBBBBBBB 1C:00000001 1D:000007BC 1E:0000000A 1F:00000009
0D4: 00148493  ADDI x9, x9, 1      00:00000000 01:00000134 02:0000072C 05:00000004 06:00000020 07:0000000A 08:000007EC 09:00000001 0A:000007B8 0B:00000001 0C:00000008 0D:00000009 12:00000002 13:00000000 14:00000002 15:000007D8 16:66666666 17:77777777 18:88888888 19:99999999 1A:AAAAAAAA 1B:BBBBBBBB 1C:00000001 1D:000007BC 1E:0000000A 1F:00000009
0D8: FC9FF06F  JAL x0, -56         00:00000000 01:00000134 02:0000072C 05:00000004 06:00000020 07:0000000A 08:000007EC 09:00000002 0A:000007B8 0B:00000001 0C:00000008 0D:00000009 12:00000002 13:00000000 14:00000002 15:000007D8 16:66666666 17:77777777 18:88888888 19:99999999 1A:AAAAAAAA 1B:BBBBBBBB 1C:00000001 1D:000007BC 1E:0000000A 1F:00000009
0A0: 02C4DE63  BGE x9, x12, 60     00:00000000 01:00000134 02:0000072C 05:00000004 06:00000020 07:0000000A 08:000007EC 09:00000002 0A:000007B8 0B:00000001 0C:00000008 0D:00000009 12:00000002 13:00000000 14:00000002 15:000007D8 16:66666666 17:77777777 18:88888888 19:99999999 1A:AAAAAAAA 1B:BBBBBBBB 1C:00000001 1D:000007BC 1E:0000000A 1F:00000009
0A4: 014492B3  SLL x5, x9, x20     00:00000000 01:00000134 02:0000072C 05:00000004 06:00000020 07:0000000A 08:000007EC 09:00000002 0A:000007B8 0B:00000001 0C:00000008 0D:00000009 12:00000002 13:00000000 14:00000002 15:000007D8 16:66666666 17:77777777 18:88888888 19:99999999 1A:AAAAAAAA 1B:BBBBBBBB 1C:00000001 1D:000007BC 1E:0000000A 1F:00000009
0A8: 00550EB3  ADD x29, x10, x5    00:00000000 01:00000134 02:0000072C 05:00000008 06:00000020 07:0000000A 08:000007EC 09:00000002 0A:000007B8 0B:00000001 0C:00000008 0D:00000009 12:00000002 13:00000000 14:00000002 15:000007D8 16:66666666 17:77777777 18:88888888 19:99999999 1A:AAAAAAAA 1B:BBBBBBBB 1C:00000001 1D:000007BC 1E:0000000A 1F:00000009
0AC: 000EAF83  LW x31, 0(x29)      00:00000000 01:00000134 02:0000072C 05:00000008 06:00000020 07:0000000A 08:000007EC 09:00000002 0A:000007B8 0B:00000001 0C:00000008 0D:00000009 12:00000002 13:00000000 14:00000002 15:000007D8 16:66666666 17:77777777 18:88888888 19:99999999 1A:AAAAAAAA 1B:BBBBBBBB 1C:00000001 1D:000007C0 1E:0000000A 1F:00000009
0B0: 032FD263  BGE x31, x18, 36    00:00000000 01:00000134 02:0000072C 05:00000008 06:00000020 07:0000000A 08:000007EC 09:00000002 0A:000007B8 0B:00000001 0C:00000008 0D:00000009 12:00000002 13:00000000 14:00000002 15:000007D8 16:66666666 17:77777777 18:88888888 19:99999999 1A:AAAAAAAA 1B:BBBBBBBB 1C:00000001 1D:000007C0 1E:0000000A 1F:00000008
0D4: 00148493  ADDI x9, x9, 1      00:00000000 01:00000134 02:0000072C 05:00000008 06:00000020 07:0000000A 08:000007EC 09:00000002 0A:000007B8 0B:00000001 0C:00000008 0D:00000009 12:00000002 13:00000000 14:00000002 15:000007D8 16:66666666 17:77777777 18:88888888 19:99999999 1A:AAAAAAAA 1B:BBBBBBBB 1C:00000001 1D:000007C0 1E:0000000A 1F:00000008
0D8: FC9FF06F  JAL x0, -56         00:00000000 01:00000134 02:0000072C 05:00000008 06:00000020 07:0000000A 08:000007EC 09:00000003 0A:000007B8 0B:00000001 0C:00000008 0D:00000009 12:00000002 13:00000000 14:00000002 15:000007D8 16:66666666 17:77777777 18:88888888 19:99999999 1A:AAAAAAAA 1B:BBBBBBBB 1C:00000001 1D:000007C0 1E:0000000A 1F:00000008
0A0: 02C4DE63  BGE x9, x12, 60     00:00000000 01:00000134 02:0000072C 05:00000008 06:00000020 07:0000000A 08:000007EC 09:00000003 0A:000007B8 0B:00000001 0C:00000008 0D:00000009 12:00000002 13:00000000 14:00000002 15:000007D8 16:66666666 17:77777777 18:88888888 19:99999999 1A:AAAAAAAA 1B:BBBBBBBB 1C:00000001 1D:000007C0 1E:0000000A 1F:00000008
0A4: 014492B3  SLL x5, x9, x20     00:00000000 01:00000134 02:0000072C 05:00000008 06:00000020 07:0000000A 08:000007EC 09:00000003 0A:000007B8 0B:00000001 0C:00000008 0D:00000009 12:00000002 13:00000000 14:00000002 15:000007D8 16:66666666 17:77777777 18:88888888 19:99999999 1A:AAAAAAAA 1B:BBBBBBBB 1C:00000001 1D:000007C0 1E:0000000A 1F:00000008
0A8: 00550EB3  ADD x29, x10, x5    00:00000000 01:00000134 02:0000072C 05:0000000C 06:00000020 07:0000000A 08:000007EC 09:00000003 0A:000007B8 0B:00000001 0C:00000008 0D:00000009 12:00000002 13:00000000 14:00000002 15:000007D8 16:66666666 17:77777777 18:88888888 19:99999999 1A:AAAAAAAA 1B:BBBBBBBB 1C:00000001 1D:000007C0 1E:0000000A 1F:00000008
0AC: 000EAF83  LW x31, 0(x29)      00:00000000 01:00000134 02:0000072C 05:0000000C 06:00000020 07:0000000A 08:000007EC 09:00000003 0A:000007B8 0B:00000001 0C:00000008 0D:00000009 12:00000002 13:00000000 14:00000002 15:000007D8 16:66666666 17:77777777 18:88888888 19:99999999 1A:AAAAAAAA 1B:BBBBBBBB 1C:00000001 1D:000007C4 1E:0000000A 1F:00000008
0B0: 032FD263  BGE x31, x18, 36    00:00000000 01:00000134 02:0000072C 05:0000000C 06:00000020 07:0000000A 08:000007EC 09:00000003 0A:000007B8 0B:00000001 0C:00000008 0D:00000009 12:00000002 13:00000000 14:00000002 15:000007D8 16:66666666 17:77777777 18:88888888 19:99999999 1A:AAAAAAAA 1B:BBBBBBBB 1C:00000001 1D:000007C4 1E:0000000A 1F:00000007
0D4: 00148493  ADDI x9, x9, 1      00:00000000 01:00000134 02:0000072C 05:0000000C 06:00000020 07:0000000A 08:000007EC 09:00000003 0A:000007B8 0B:00000001 0C:00000008 0D:00000009 12:00000002 13:00000000 14:00000002 15:000007D8 16:66666666 17:77777777 18:88888888 19:99999999 1A:AAAAAAAA 1B:BBBBBBBB 1C:00000001 1D:000007C4 1E:0000000A 1F:00000007
0D8: FC9FF06F  JAL x0, -56         00:00000000 01:00000134 02:0000072C 05:0000000C 06:00000020 07:0000000A 08:000007EC 09:00000004 0A:000007B8 0B:00000001 0C:00000008 0D:00000009 12:00000002 13:00000000 14:00000002 15:000007D8 16:66666666 17:77777777 18:88888888 19:99999999 1A:AAAAAAAA 1B:BBBBBBBB 1C:00000001 1D:000007C4 1E:0000000A 1F:00000007
0A0: 02C4DE63  BGE x9, x12, 60     00:00000000 01:00000134 02:0000072C 05:0000000C 06:00000020 07:0000000A 08:000007EC 09:00000004 0A:000007B8 0B:00000001 0C:00000008 0D:00000009 12:00000002 13:00000000 14:00000002 15:000007D8 16:66666666 17:77777777 18:88888888 19:99999999 1A:AAAAAAAA 1B:BBBBBBBB 1C:00000001 1D:000007C4 1E:0000000A 1F:00000007
0A4: 014492B3  SLL x5, x9, x20     00:00000000 01:00000134 02:0000072C 05:0000000C 06:00000020 07:0000000A 08:000007EC 09:00000004 0A:000007B8 0B:00000001 0C:00000008 0D:00000009 12:00000002 13:00000000 14:00000002 15:000007D8 16:66666666 17:77777777 18:88888888 19:99999999 1A:AAAAAAAA 1B:BBBBBBBB 1C:00000001 1D:000007C4 1E:0000000A 1F:00000007
0A8: 00550EB3  ADD x29, x10, x5    00:00000000 01:00000134 02:0000072C 05:00000010 06:00000020 07:0000000A 08:000007EC 09:00000004 0A:000007B8 0B:00000001 0C:00000008 0D:00000009 12:00000002 13:00000000 14:00000002 15:000007D8 16:66666666 17:77777777 18:88888888 19:99999999 1A:AAAAAAAA 1B:BBBBBBBB 1C:00000001 1D:000007C4 1E:0000000A 1F:00000007
0AC: 000EAF83  LW x31, 0(x29)      00:00000000 01:00000134 02:0000072C 05:00000010 06:00000020 07:0000000A 08:000007EC 09:00000004 0A:000007B8 0B:00000001 0C:00000008 0D:00000009 12:00000002 13:00000000 14:00000002 15:000007D8 16:66666666 17:77777777 18:88888888 19:99999999 1A:AAAAAAAA 1B:BBBBBBBB 1C:00000001 1D:000007C8 1E:0000000A 1F:00000007
0B0: 032FD263  BGE x31, x18, 36    00:00000000 01:00000134 02:0000072C 05:00000010 06:00000020 07:0000000A 08:000007EC 09:00000004 0A:000007B8 0B:00000001 0C:00000008 0D:00000009 12:00000002 13:00000000 14:00000002 15:000007D8 16:66666666 17:77777777 18:88888888 19:99999999 1A:AAAAAAAA 1B:BBBBBBBB 1C:00000001 1D:000007C8 1E:0000000A 1F:00000006
0D4: 00148493  ADDI x9, x9, 1      00:00000000 01:00000134 02:0000072C 05:00000010 06:00000020 07:0000000A 08:000007EC 09:00000004 0A:000007B8 0B:00000001 0C:00000008 0D:00000009 12:00000002 13:00000000 14:00000002 15:000007D8 16:66666666 17:77777777 18:88888888 19:99999999 1A:AAAAAAAA 1B:BBBBBBBB 1C:00000001 1D:000007C8 1E:0000000A 1F:00000006
0D8: FC9FF06F  JAL x0, -56         00:00000000 01:00000134 02:0000072C 05:00000010 06:00000020 07:0000000A 08:000007EC 09:00000005 0A:000007B8 0B:00000001 0C:00000008 0D:00000009 12:00000002 13:00000000 14:00000002 15:000007D8 16:66666666 17:77777777 18:88888888 19:99999999 1A:AAAAAAAA 1B:BBBBBBBB 1C:00000001 1D:000007C8 1E:0000000A 1F:00000006
0A0: 02C4DE63  BGE x9, x12, 60     00:00000000 01:00000134 02:0000072C 05:00000010 06:00000020 07:0000000A 08:000007EC 09:00000005 0A:000007B8 0B:00000001 0C:00000008 0D:00000009 12:00000002 13:00000000 14:00000002 15:000007D8 16:66666666 17:77777777 18:88888888 19:99999999 1A:AAAAAAAA 1B:BBBBBBBB 1C:00000001 1D:000007C8 1E:0000000A 1F:00000006
0A4: 014492B3  SLL x5, x9, x20     00:00000000 01:00000134 02:0000072C 05:00000010 06:00000020 07:0000000A 08:000007EC 09:00000005 0A:000007B8 0B:00000001 0C:00000008 0D:00000009 12:00000002 13:00000000 14:00000002 15:000007D8 16:66666666 17:77777777 18:88888888 19:99999999 1A:AAAAAAAA 1B:BBBBBBBB 1C:00000001 1D:000007C8 1E:0000000A 1F:00000006
0A8: 00550EB3  ADD x29, x10, x5    00:00000000 01:00000134 02:0000072C 05:00000014 06:00000020 07:0000000A 08:000007EC 09:00000005 0A:000007B8 0B:00000001 0C:00000008 0D:00000009 12:00000002 13:00000000 14:00000002 15:000007D8 16:66666666 17:77777777 18:88888888 19:99999999 1A:AAAAAAAA 1B:BBBBBBBB 1C:00000001 1D:000007C8 1E:0000000A 1F:00000006
0AC: 000EAF83  LW x31, 0(x29)      00:00000000 01:00000134 02:0000072C 05:00000014 06:00000020 07:0000000A 08:000007EC 09:00000005 0A:000007B8 0B:00000001 0C:00000008 0D:00000009 12:00000002 13:00000000 14:00000002 15:000007D8 16:66666666 17:77777777 18:88888888 19:99999999 1A:AAAAAAAA 1B:BBBBBBBB 1C:00000001 1D:000007CC 1E:0000000A 1F:00000006
0B0: 032FD263  BGE x31, x18, 36    00:00000000 01:00000134 02:0000072C 05:00000014 06:00000020 07:0000000A 08:000007EC 09:00000005 0A:000007B8 0B:00000001 0C:00000008 0D:00000009 12:00000002 13:00000000 14:00000002 15:000007D8 16:66666666 17:77777777 18:88888888 19:99999999 1A:AAAAAAAA 1B:BBBBBBBB 1C:00000001 1D:000007CC 1E:0000000A 1F:00000005
0D4: 00148493  ADDI x9, x9, 1      00:00000000 01:00000134 02:0000072C 05:00000014 06:00000020 07:0000000A 08:000007EC 09:00000005 0A:000007B8 0B:00000001 0C:00000008 0D:00000009 12:00000002 13:00000000 14:00000002 15:000007D8 16:66666666 17:77777777 18:88888888 19:99999999 1A:AAAAAAAA 1B:BBBBBBBB 1C:00000001 1D:000007CC 1E:0000000A 1F:00000005
0D8: FC9FF06F  JAL x0, -56         00:00000000 01:00000134 02:0000072C 05:00000014 06:00000020 07:0000000A 08:000007EC 09:00000006 0A:000007B8 0B:00000001 0C:00000008 0D:00000009 12:00000002 13:00000000 14:00000002 15:000007D8 16:66666666 17:77777777 18:88888888 19:99999999 1A:AAAAAAAA 1B:BBBBBBBB 1C:00000001 1D:000007CC 1E:0000000A 1F:00000005
0A0: 02C4DE63  BGE x9, x12, 60     00:00000000 01:00000134 02:0000072C 05:00000014 06:00000020 07:0000000A 08:000007EC 09:00000006 0A:000007B8 0B:00000001 0C:00000008 0D:00000009 12:00000002 13:00000000 14:00000002 15:000007D8 16:66666666 17:77777777 18:88888888 19:99999999 1A:AAAAAAAA 1B:BBBBBBBB 1C:00000001 1D:000007CC 1E:0000000A 1F:00000005
0A4: 014492B3  SLL x5, x9, x20     00:00000000 01:00000134 02:0000072C 05:00000014 06:00000020 07:0000000A 08:000007EC 09:00000006 0A:000007B8 0B:00000001 0C:00000008 0D:00000009 12:00000002 13:00000000 14:00000002 15:000007D8 16:66666666 17:77777777 18:88888888 19:99999999 1A:AAAAAAAA 1B:BBBBBBBB 1C:00000001 1D:000007CC 1E:0000000A 1F:00000005
0A8: 00550EB3  ADD x29, x10, x5    00:00000000 01:00000134 02:0000072C 05:00000018 06:00000020 07:0000000A 08:000007EC 09:00000006 0A:000007B8 0B:00000001 0C:00000008 0D:00000009 12:00000002 13:00000000 14:00000002 15:000007D8 16:66666666 17:77777777 18:88888888 19:99999999 1A:AAAAAAAA 1B:BBBBBBBB 1C:00000001 1D:000007CC 1E:0000000A 1F:00000005
0AC: 000EAF83  LW x31, 0(x29)      00:00000000 01:00000134 02:0000072C 05:00000018 06:00000020 07:0000000A 08:000007EC 09:00000006 0A:000007B8 0B:00000001 0C:00000008 0D:00000009 12:00000002 13:00000000 14:00000002 15:000007D8 16:66666666 17:77777777 18:88888888 19:99999999 1A:AAAAAAAA 1B:BBBBBBBB 1C:00000001 1D:000007D0 1E:0000000A 1F:00000005
0B0: 032FD263  BGE x31, x18, 36    00:00000000 01:00000134 02:0000072C 05:00000018 06:00000020 07:0000000A 08:000007EC 09:00000006 0A:000007B8 0B:00000001 0C:00000008 0D:00000009 12:00000002 13:00000000 14:00000002 15:000007D8 16:66666666 17:77777777 18:88888888 19:99999999 1A:AAAAAAAA 1B:BBBBBBBB 1C:00000001 1D:000007D0 1E:0000000A 1F:00000004
0D4: 00148493  ADDI x9, x9, 1      00:00000000 01:00000134 02:0000072C 05:00000018 06:00000020 07:0000000A 08:000007EC 09:00000006 0A:000007B8 0B:00000001 0C:00000008 0D:00000009 12:00000002 13:00000000 14:00000002 15:000007D8 16:66666666 17:77777777 18:88888888 19:99999999 1A:AAAAAAAA 1B:BBBBBBBB 1C:00000001 1D:000007D0 1E:0000000A 1F:00000004
0D8: FC9FF06F  JAL x0, -56         00:00000000 01:00000134 02:0000072C 05:00000018 06:00000020 07:0000000A 08:000007EC 09:00000007 0A:000007B8 0B:00000001 0C:00000008 0D:00000009 12:00000002 13:00000000 14:00000002 15:000007D8 16:66666666 17:77777777 18:88888888 19:99999999 1A:AAAAAAAA 1B:BBBBBBBB 1C:00000001 1D:000007D0 1E:0000000A 1F:00000004
0A0: 02C4DE63  BGE x9, x12, 60     00:00000000 01:00000134 02:0000072C 05:00000018 06:00000020 07:0000000A 08:000007EC 09:00000007 0A:000007B8 0B:00000001 0C:00000008 0D:00000009 12:00000002 13:00000000 14:00000002 15:000007D8 16:66666666 17:77777777 18:88888888 19:99999999 1A:AAAAAAAA 1B:BBBBBBBB 1C:00000001 1D:000007D0 1E:0000000A 1F:00000004
0A4: 014492B3  SLL x5, x9, x20     00:00000000 01:00000134 02:0000072C 05:00000018 06:00000020 07:0000000A 08:000007EC 09:00000007 0A:000007B8 0B:00000001 0C:00000008 0D:00000009 12:00000002 13:00000000 14:00000002 15:000007D8 16:66666666 17:77777777 18:88888888 19:99999999 1A:AAAAAAAA 1B:BBBBBBBB 1C:00000001 1D:000007D0 1E:0000000A 1F:00000004
0A8: 00550EB3  ADD x29, x10, x5    00:00000000 01:00000134 02:0000072C 05:0000001C 06:00000020 07:0000000A 08:000007EC 09:00000007 0A:000007B8 0B:00000001 0C:00000008 0D:00000009 12:00000002 13:00000000 14:00000002 15:000007D8 16:66666666 17:77777777 18:88888888 19:99999999 1A:AAAAAAAA 1B:BBBBBBBB 1C:00000001 1D:000007D0 1E:0000000A 1F:00000004
0AC: 000EAF83  LW x31, 0(x29)      00:00000000 01:00000134 02:0000072C 05:0000001C 06:00000020 07:0000000A 08:000007EC 09:00000007 0A:000007B8 0B:00000001 0C:00000008 0D:00000009 12:00000002 13:00000000 14:00000002 15:000007D8 16:66666666 17:77777777 18:88888888 19:99999999 1A:AAAAAAAA 1B:BBBBBBBB 1C:00000001 1D:000007D4 1E:0000000A 1F:00000004
0B0: 032FD263  BGE x31, x18, 36    00:00000000 01:00000134 02:0000072C 05:0000001C 06:00000020 07:0000000A 08:000007EC 09:00000007 0A:000007B8 0B:00000001 0C:00000008 0D:00000009 12:00000002 13:00000000 14:00000002 15:000007D8 16:66666666 17:77777777 18:88888888 19:99999999 1A:AAAAAAAA 1B:BBBBBBBB 1C:00000001 1D:000007D4 1E:0000000A 1F:00000003
0D4: 00148493  ADDI x9, x9, 1      00:00000000 01:00000134 02:0000072C 05:0000001C 06:00000020 07:0000000A 08:000007EC 09:00000007 0A:000007B8 0B:00000001 0C:00000008 0D:00000009 12:00000002 13:00000000 14:00000002 15:000007D8 16:66666666 17:77777777 18:88888888 19:99999999 1A:AAAAAAAA 1B:BBBBBBBB 1C:00000001 1D:000007D4 1E:0000000A 1F:00000003
0D8: FC9FF06F  JAL x0, -56         00:00000000 01:00000134 02:0000072C 05:0000001C 06:00000020 07:0000000A 08:000007EC 09:00000008 0A:000007B8 0B:00000001 0C:00000008 0D:00000009 12:00000002 13:00000000 14:00000002 15:000007D8 16:66666666 17:77777777 18:88888888 19:99999999 1A:AAAAAAAA 1B:BBBBBBBB 1C:00000001 1D:000007D4 1E:0000000A 1F:00000003
0A0: 02C4DE63  BGE x9, x12, 60     00:00000000 01:00000134 02:0000072C 05:0000001C 06:00000020 07:0000000A 08:000007EC 09:00000008 0A:000007B8 0B:00000001 0C:00000008 0D:00000009 12:00000002 13:00000000 14:00000002 15:000007D8 16:66666666 17:77777777 18:88888888 19:99999999 1A:AAAAAAAA 1B:BBBBBBBB 1C:00000001 1D:000007D4 1E:0000000A 1F:00000003
0DC: 00198993  ADDI x19, x19, 1    00:00000000 01:00000134 02:0000072C 05:0000001C 06:00000020 07:0000000A 08:000007EC 09:00000008 0A:000007B8 0B:00000001 0C:00000008 0D:00000009 12:00000002 13:00000000 14:00000002 15:000007D8 16:66666666 17:77777777 18:88888888 19:99999999 1A:AAAAAAAA 1B:BBBBBBBB 1C:00000001 1D:000007D4 1E:0000000A 1F:00000003
0E0: 01499333  SLL x6, x19, x20    00:00000000 01:00000134 02:0000072C 05:0000001C 06:00000020 07:0000000A 08:000007EC 09:00000008 0A:000007B8 0B:00000001 0C:00000008 0D:00000009 12:00000002 13:00000001 14:00000002 15:000007D8 16:66666666 17:77777777 18:88888888 19:99999999 1A:AAAAAAAA 1B:BBBBBBBB 1C:00000001 1D:000007D4 1E:0000000A 1F:00000003
0E4: 006505B3  ADD x11, x10, x6    00:00000000 01:00000134 02:0000072C 05:0000001C 06:00000004 07:0000000A 08:000007EC 09:00000008 0A:000007B8 0B:00000001 0C:00000008 0D:00000009 12:00000002 13:00000001 14:00000002 15:000007D8 16:66666666 17:77777777 18:88888888 19:99999999 1A:AAAAAAAA 1B:BBBBBBBB 1C:00000001 1D:000007D4 1E:0000000A 1F:00000003
0E8: 000A8613  ADDI x12, x21, 0    00:00000000 01:00000134 02:0000072C 05:0000001C 06:00000004 07:0000000A 08:000007EC 09:00000008 0A:000007B8 0B:000007BC 0C:00000008 0D:00000009 12:00000002 13:00000001 14:00000002 15:000007D8 16:66666666 17:77777777 18:88888888 19:99999999 1A:AAAAAAAA 1B:BBBBBBBB 1C:00000001 1D:000007D4 1E:0000000A 1F:00000003
0EC: F55FF0EF  JAL x1, -172        00:00000000 01:00000134 02:0000072C 05:0000001C 06:00000004 07:0000000A 08:000007EC 09:00000008 0A:000007B8 0B:000007BC 0C:000007D8 0D:00000009 12:00000002 13:00000001 14:00000002 15:000007D8 16:66666666 17:77777777 18:88888888 19:99999999 1A:AAAAAAAA 1B:BBBBBBBB 1C:00000001 1D:000007D4 1E:0000000A 1F:00000003
040: FE010113  ADDI x2, x2, -32    00:00000000 01:000000F0 02:0000072C 05:0000001C 06:00000004 07:0000000A 08:000007EC 09:00000008 0A:000007B8 0B:000007BC 0C:000007D8 0D:00000009 12:00000002 13:00000001 14:00000002 15:000007D8 16:66666666 17:77777777 18:88888888 19:99999999 1A:AAAAAAAA 1B:BBBBBBBB 1C:00000001 1D:000007D4 1E:0000000A 1F:00000003
044: 00112E23  SW x1, 28(x2)       00:00000000 01:000000F0 02:0000070C 05:0000001C 06:00000004 07:0000000A 08:000007EC 09:00000008 0A:000007B8 0B:000007BC 0C:000007D8 0D:00000009 12:00000002 13:00000001 14:00000002 15:000007D8 16:66666666 17:77777777 18:88888888 19:99999999 1A:AAAAAAAA 1B:BBBBBBBB 1C:00000001 1D:000007D4 1E:0000000A 1F:00000003
048: 0005AF03  LW x30, 0(x11)      00:00000000 01:000000F0 02:0000070C 05:0000001C 06:00000004 07:0000000A 08:000007EC 09:00000008 0A:000007B8 0B:000007BC 0C:000007D8 0D:00000009 12:00000002 13:00000001 14:00000002 15:000007D8 16:66666666 17:77777777 18:88888888 19:99999999 1A:AAAAAAAA 1B:BBBBBBBB 1C:00000001 1D:000007D4 1E:0000000A 1F:00000003
04C: 00062F83  LW x31, 0(x12)      00:00000000 01:000000F0 02:0000070C 05:0000001C 06:00000004 07:0000000A 08:000007EC 09:00000008 0A:000007B8 0B:000007BC 0C:000007D8 0D:00000009 12:00000002 13:00000001 14:00000002 15:000007D8 16:66666666 17:77777777 18:88888888 19:99999999 1A:AAAAAAAA 1B:BBBBBBBB 1C:00000001 1D:000007D4 1E:00000009 1F:00000003
050: 01F5A023  SW x31, 0(x11)      00:00000000 01:000000F0 02:0000070C 05:0000001C 06:00000004 07:0000000A 08:000007EC 09:00000008 0A:000007B8 0B:000007BC 0C:000007D8 0D:00000009 12:00000002 13:00000001 14:00000002 15:000007D8 16:66666666 17:77777777 18:88888888 19:99999999 1A:AAAAAAAA 1B:BBBBBBBB 1C:00000001 1D:000007D4 1E:00000009 1F:00000002
054: 01E62023  SW x30, 0(x12)      00:00000000 01:000000F0 02:0000070C 05:0000001C 06:00000004 07:0000000A 08:000007EC 09:00000008 0A:000007B8 0B:000007BC 0C:000007D8 0D:00000009 12:00000002 13:00000001 14:00000002 15:000007D8 16:66666666 17:77777777 18:88888888 19:99999999 1A:AAAAAAAA 1B:BBBBBBBB 1C:00000001 1D:000007D4 1E:00000009 1F:00000002
058: 01C12083  LW x1, 28(x2)       00:00000000 01:000000F0 02:0000070C 05:0000001C 06:00000004 07:0000000A 08:000007EC 09:00000008 0A:000007B8 0B:000007BC 0C:000007D8 0D:00000009 12:00000002 13:00000001 14:00000002 15:000007D8 16:66666666 17:77777777 18:88888888 19:99999999 1A:AAAAAAAA 1B:BBBBBBBB 1C:00000001 1D:000007D4 1E:00000009 1F:00000002
05C: 02010113  ADDI x2, x2, 32     00:00000000 01:000000F0 02:0000070C 05:0000001C 06:00000004 07:0000000A 08:000007EC 09:00000008 0A:000007B8 0B:000007BC 0C:000007D8 0D:00000009 12:00000002 13:00000001 14:00000002 15:000007D8 16:66666666 17:77777777 18:88888888 19:99999999 1A:AAAAAAAA 1B:BBBBBBBB 1C:00000001 1D:000007D4 1E:00000009 1F:00000002
060: 00008067  JALR x0, 0(x1)      00:00000000 01:000000F0 02:0000072C 05:0000001C 06:00000004 07:0000000A 08:000007EC 09:00000008 0A:000007B8 0B:000007BC 0C:000007D8 0D:00000009 12:00000002 13:00000001 14:00000002 15:000007D8 16:66666666 17:77777777 18:88888888 19:99999999 1A:AAAAAAAA 1B:BBBBBBBB 1C:00000001 1D:000007D4 1E:00000009 1F:00000002
0F0: 00412583  LW x11, 4(x2)       00:00000000 01:000000F0 02:0000072C 05:0000001C 06:00000004 07:0000000A 08:000007EC 09:00000008 0A:000007B8 0B:000007BC 0C:000007D8 0D:00000009 12:00000002 13:00000001 14:00000002 15:000007D8 16:66666666 17:77777777 18:88888888 19:99999999 1A:AAAAAAAA 1B:BBBBBBBB 1C:00000001 1D:000007D4 1E:00000009 1F:00000002
0F4: 00012603  LW x12, 0(x2)       00:00000000 01:000000F0 02:0000072C 05:0000001C 06:00000004 07:0000000A 08:000007EC 09:00000008 0A:000007B8 0B:00000001 0C:000007D8 0D:00000009 12:00000002 13:00000001 14:00000002 15:000007D8 16:66666666 17:77777777 18:88888888 19:99999999 1A:AAAAAAAA 1B:BBBBBBBB 1C:00000001 1D:000007D4 1E:00000009 1F:00000002
0F8: 00098513  ADDI x10, x19, 0    00:00000000 01:000000F0 02:0000072C 05:0000001C 06:00000004 07:0000000A 08:000007EC 09:00000008 0A:000007B8 0B:00000001 0C:00000008 0D:00000009 12:00000002 13:00000001 14:00000002 15:000007D8 16:66666666 17:77777777 18:88888888 19:99999999 1A:AAAAAAAA 1B:BBBBBBBB 1C:00000001 1D:000007D4 1E:00000009 1F:00000002
0FC: 01812483  LW x9, 24(x2)       00:00000000 01:000000F0 02:0000072C 05:0000001C 06:00000004 07:0000000A 08:000007EC 09:00000008 0A:00000001 0B:00000001 0C:00000008 0D:00000009 12:00000002 13:00000001 14:00000002 15:000007D8 16:66666666 17:77777777 18:88888888 19:99999999 1A:AAAAAAAA 1B:BBBBBBBB 1C:00000001 1D:000007D4 1E:00000009 1F:00000002
100: 01412903  LW x18, 20(x2)      00:00000000 01:000000F0 02:0000072C 05:0000001C 06:00000004 07:0000000A 08:000007EC 09:11111111 0A:00000001 0B:00000001 0C:00000008 0D:00000009 12:00000002 13:00000001 14:00000002 15:000007D8 16:66666666 17:77777777 18:88888888 19:99999999 1A:AAAAAAAA 1B:BBBBBBBB 1C:00000001 1D:000007D4 1E:00000009 1F:00000002
104: 01012983  LW x19, 16(x2)      00:00000000 01:000000F0 02:0000072C 05:0000001C 06:00000004 07:0000000A 08:000007EC 09:11111111 0A:00000001 0B:00000001 0C:00000008 0D:00000009 12:22222222 13:00000001 14:00000002 15:000007D8 16:66666666 17:77777777 18:88888888 19:99999999 1A:AAAAAAAA 1B:BBBBBBBB 1C:00000001 1D:000007D4 1E:00000009 1F:00000002
108: 00C12A03  LW x20, 12(x2)      00:00000000 01:000000F0 02:0000072C 05:0000001C 06:00000004 07:0000000A 08:000007EC 09:11111111 0A:00000001 0B:00000001 0C:00000008 0D:00000009 12:22222222 13:33333333 14:00000002 15:000007D8 16:66666666 17:77777777 18:88888888 19:99999999 1A:AAAAAAAA 1B:BBBBBBBB 1C:00000001 1D:000007D4 1E:00000009 1F:00000002
10C: 00812A83  LW x21, 8(x2)       00:00000000 01:000000F0 02:0000072C 05:0000001C 06:00000004 07:0000000A 08:000007EC 09:11111111 0A:00000001 0B:00000001 0C:00000008 0D:00000009 12:22222222 13:33333333 14:44444444 15:000007D8 16:66666666 17:77777777 18:88888888 19:99999999 1A:AAAAAAAA 1B:BBBBBBBB 1C:00000001 1D:000007D4 1E:00000009 1F:00000002
110: 01C12083  LW x1, 28(x2)       00:00000000 01:000000F0 02:0000072C 05:0000001C 06:00000004 07:0000000A 08:000007EC 09:11111111 0A:00000001 0B:00000001 0C:00000008 0D:00000009 12:22222222 13:33333333 14:44444444 15:55555555 16:66666666 17:77777777 18:88888888 19:99999999 1A:AAAAAAAA 1B:BBBBBBBB 1C:00000001 1D:000007D4 1E:00000009 1F:00000002
114: 02010113  ADDI x2, x2, 32     00:00000000 01:00000134 02:0000072C 05:0000001C 06:00000004 07:0000000A 08:000007EC 09:11111111 0A:00000001 0B:00000001 0C:00000008 0D:00000009 12:22222222 13:33333333 14:44444444 15:55555555 16:66666666 17:77777777 18:88888888 19:99999999 1A:AAAAAAAA 1B:BBBBBBBB 1C:00000001 1D:000007D4 1E:00000009 1F:00000002
118: 00008067  JALR x0, 0(x1)      00:00000000 01:00000134 02:0000074C 05:0000001C 06:00000004 07:0000000A 08:000007EC 09:11111111 0A:00000001 0B:00000001 0C:00000008 0D:00000009 12:22222222 13:33333333 14:44444444 15:55555555 16:66666666 17:77777777 18:88888888 19:99999999 1A:AAAAAAAA 1B:BBBBBBBB 1C:00000001 1D:000007D4 1E:00000009 1F:00000002
134: 00050693  ADDI x13, x10, 0    00:00000000 01:00000134 02:0000074C 05:0000001C 06:00000004 07:0000000A 08:000007EC 09:11111111 0A:00000001 0B:00000001 0C:00000008 0D:00000009 12:22222222 13:33333333 14:44444444 15:55555555 16:66666666 17:77777777 18:88888888 19:99999999 1A:AAAAAAAA 1B:BBBBBBBB 1C:00000001 1D:000007D4 1E:00000009 1F:00000002
138: 00C12503  LW x10, 12(x2)      00:00000000 01:00000134 02:0000074C 05:0000001C 06:00000004 07:0000000A 08:000007EC 09:11111111 0A:00000001 0B:00000001 0C:00000008 0D:00000001 12:22222222 13:33333333 14:44444444 15:55555555 16:66666666 17:77777777 18:88888888 19:99999999 1A:AAAAAAAA 1B:BBBBBBBB 1C:00000001 1D:000007D4 1E:00000009 1F:00000002
13C: FFF68613  ADDI x12, x13, -1   00:00000000 01:00000134 02:0000074C 05:0000001C 06:00000004 07:0000000A 08:000007EC 09:11111111 0A:000007B8 0B:00000001 0C:00000008 0D:00000001 12:22222222 13:33333333 14:44444444 15:55555555 16:66666666 17:77777777 18:88888888 19:99999999 1A:AAAAAAAA 1B:BBBBBBBB 1C:00000001 1D:000007D4 1E:00000009 1F:00000002
140: FDDFF0EF  JAL x1, -36         00:00000000 01:00000134 02:0000074C 05:0000001C 06:00000004 07:0000000A 08:000007EC 09:11111111 0A:000007B8 0B:00000001 0C:00000000 0D:00000001 12:22222222 13:33333333 14:44444444 15:55555555 16:66666666 17:77777777 18:88888888 19:99999999 1A:AAAAAAAA 1B:BBBBBBBB 1C:00000001 1D:000007D4 1E:00000009 1F:00000002
11C: FE010113  ADDI x2, x2, -32    00:00000000 01:00000144 02:0000074C 05:0000001C 06:00000004 07:0000000A 08:000007EC 09:11111111 0A:000007B8 0B:00000001 0C:00000000 0D:00000001 12:22222222 13:33333333 14:44444444 15:55555555 16:66666666 17:77777777 18:88888888 19:99999999 1A:AAAAAAAA 1B:BBBBBBBB 1C:00000001 1D:000007D4 1E:00000009 1F:00000002
120: 00112E23  SW x1, 28(x2)       00:00000000 01:00000144 02:0000072C 05:0000001C 06:00000004 07:0000000A 08:000007EC 09:11111111 0A:000007B8 0B:00000001 0C:00000000 0D:00000001 12:22222222 13:33333333 14:44444444 15:55555555 16:66666666 17:77777777 18:88888888 19:99999999 1A:AAAAAAAA 1B:BBBBBBBB 1C:00000001 1D:000007D4 1E:00000009 1F:00000002
124: 00C12A23  SW x12, 20(x2)      00:00000000 01:00000144 02:0000072C 05:0000001C 06:00000004 07:0000000A 08:000007EC 09:11111111 0A:000007B8 0B:00000001 0C:00000000 0D:00000001 12:22222222 13:33333333 14:44444444 15:55555555 16:66666666 17:77777777 18:88888888 19:99999999 1A:AAAAAAAA 1B:BBBBBBBB 1C:00000001 1D:000007D4 1E:00000009 1F:00000002
128: 00A12623  SW x10, 12(x2)      00:00000000 01:00000144 02:0000072C 05:0000001C 06:00000004 07:0000000A 08:000007EC 09:11111111 0A:000007B8 0B:00000001 0C:00000000 0D:00000001 12:22222222 13:33333333 14:44444444 15:55555555 16:66666666 17:77777777 18:88888888 19:99999999 1A:AAAAAAAA 1B:BBBBBBBB 1C:00000001 1D:000007D4 1E:00000009 1F:00000002
12C: 02C5D463  BGE x11, x12, 40    00:00000000 01:00000144 02:0000072C 05:0000001C 06:00000004 07:0000000A 08:000007EC 09:11111111 0A:000007B8 0B:00000001 0C:00000000 0D:00000001 12:22222222 13:33333333 14:44444444 15:55555555 16:66666666 17:77777777 18:88888888 19:99999999 1A:AAAAAAAA 1B:BBBBBBBB 1C:00000001 1D:000007D4 1E:00000009 1F:00000002
154: 01C12083  LW x1, 28(x2)       00:00000000 01:00000144 02:0000072C 05:0000001C 06:00000004 07:0000000A 08:000007EC 09:11111111 0A:000007B8 0B:00000001 0C:00000000 0D:00000001 12:22222222 13:33333333 14:44444444 15:55555555 16:66666666 17:77777777 18:88888888 19:99999999 1A:AAAAAAAA 1B:BBBBBBBB 1C:00000001 1D:000007D4 1E:00000009 1F:00000002
158: 02010113  ADDI x2, x2, 32     00:00000000 01:00000144 02:0000072C 05:0000001C 06:00000004 07:0000000A 08:000007EC 09:11111111 0A:000007B8 0B:00000001 0C:00000000 0D:00000001 12:22222222 13:33333333 14:44444444 15:55555555 16:66666666 17:77777777 18:88888888 19:99999999 1A:AAAAAAAA 1B:BBBBBBBB 1C:00000001 1D:000007D4 1E:00000009 1F:00000002
15C: 00008067  JALR x0, 0(x1)      00:00000000 01:00000144 02:0000074C 05:0000001C 06:00000004 07:0000000A 08:000007EC 09:11111111 0A:000007B8 0B:00000001 0C:00000000 0D:00000001 12:22222222 13:33333333 14:44444444 15:55555555 16:66666666 17:77777777 18:88888888 19:99999999 1A:AAAAAAAA 1B:BBBBBBBB 1C:00000001 1D:000007D4 1E:00000009 1F:00000002
144: 00168593  ADDI x11, x13, 1    00:00000000 01:00000144 02:0000074C 05:0000001C 06:00000004 07:0000000A 08:000007EC 09:11111111 0A:000007B8 0B:00000001 0C:00000000 0D:00000001 12:22222222 13:33333333 14:44444444 15:55555555 16:66666666 17:77777777 18:88888888 19:99999999 1A:AAAAAAAA 1B:BBBBBBBB 1C:00000001 1D:000007D4 1E:00000009 1F:00000002
148: 01412603  LW x12, 20(x2)      00:00000000 01:00000144 02:0000074C 05:0000001C 06:00000004 07:0000000A 08:000007EC 09:11111111 0A:000007B8 0B:00000002 0C:00000000 0D:00000001 12:22222222 13:33333333 14:44444444 15:55555555 16:66666666 17:77777777 18:88888888 19:99999999 1A:AAAAAAAA 1B:BBBBBBBB 1C:00000001 1D:000007D4 1E:00000009 1F:00000002
14C: FD1FF0EF  JAL x1, -48         00:00000000 01:00000144 02:0000074C 05:0000001C 06:00000004 07:0000000A 08:000007EC 09:11111111 0A:000007B8 0B:00000002 0C:00000008 0D:00000001 12:22222222 13:33333333 14:44444444 15:55555555 16:66666666 17:77777777 18:88888888 19:99999999 1A:AAAAAAAA 1B:BBBBBBBB 1C:00000001 1D:000007D4 1E:00000009 1F:00000002
11C: FE010113  ADDI x2, x2, -32    00:00000000 01:00000150 02:0000074C 05:0000001C 06:00000004 07:0000000A 08:000007EC 09:11111111 0A:000007B8 0B:00000002 0C:00000008 0D:00000001 12:22222222 13:33333333 14:44444444 15:55555555 16:66666666 17:77777777 18:88888888 19:99999999 1A:AAAAAAAA 1B:BBBBBBBB 1C:00000001 1D:000007D4 1E:00000009 1F:00000002
120: 00112E23  SW x1, 28(x2)       00:00000000 01:00000150 02:0000072C 05:0000001C 06:00000004 07:0000000A 08:000007EC 09:11111111 0A:000007B8 0B:00000002 0C:00000008 0D:00000001 12:22222222 13:33333333 14:44444444 15:55555555 16:66666666 17:77777777 18:88888888 19:99999999 1A:AAAAAAAA 1B:BBBBBBBB 1C:00000001 1D:000007D4 1E:00000009 1F:00000002
124: 00C12A23  SW x12, 20(x2)      00:00000000 01:00000150 02:0000072C 05:0000001C 06:00000004 07:0000000A 08:000007EC 09:11111111 0A:000007B8 0B:00000002 0C:00000008 0D:00000001 12:22222222 13:33333333 14:44444444 15:55555555 16:66666666 17:77777777 18:88888888 19:99999999 1A:AAAAAAAA 1B:BBBBBBBB 1C:00000001 1D:000007D4 1E:00000009 1F:00000002
128: 00A12623  SW x10, 12(x2)      00:00000000 01:00000150 02:0000072C 05:0000001C 06:00000004 07:0000000A 08:000007EC 09:11111111 0A:000007B8 0B:00000002 0C:00000008 0D:00000001 12:22222222 13:33333333 14:44444444 15:55555555 16:66666666 17:77777777 18:88888888 19:99999999 1A:AAAAAAAA 1B:BBBBBBBB 1C:00000001 1D:000007D4 1E:00000009 1F:00000002
12C: 02C5D463  BGE x11, x12, 40    00:00000000 01:00000150 02:0000072C 05:0000001C 06:00000004 07:0000000A 08:000007EC 09:11111111 0A:000007B8 0B:00000002 0C:00000008 0D:00000001 12:22222222 13:33333333 14:44444444 15:55555555 16:66666666 17:77777777 18:88888888 19:99999999 1A:AAAAAAAA 1B:BBBBBBBB 1C:00000001 1D:000007D4 1E:00000009 1F:00000002
130: F35FF0EF  JAL x1, -204        00:00000000 01:00000150 02:0000072C 05:0000001C 06:00000004 07:0000000A 08:000007EC 09:11111111 0A:000007B8 0B:00000002 0C:00000008 0D:00000001 12:22222222 13:33333333 14:44444444 15:55555555 16:66666666 17:77777777 18:88888888 19:99999999 1A:AAAAAAAA 1B:BBBBBBBB 1C:00000001 1D:000007D4 1E:00000009 1F:00000002
064: FE010113  ADDI x2, x2, -32    00:00000000 01:00000134 02:0000072C 05:0000001C 06:00000004 07:0000000A 08:000007EC 09:11111111 0A:000007B8 0B:00000002 0C:00000008 0D:00000001 12:22222222 13:33333333 14:44444444 15:55555555 16:66666666 17:77777777 18:88888888 19:99999999 1A:AAAAAAAA 1B:BBBBBBBB 1C:00000001 1D:000007D4 1E:00000009 1F:00000002
068: 00112E23  SW x1, 28(x2)       00:00000000 01:00000134 02:0000070C 05:0000001C 06:00000004 07:0000000A 08:000007EC 09:11111111 0A:000007B8 0B:00000002 0C:00000008 0D:00000001 12:22222222 13:33333333 14:44444444 15:55555555 16:66666666 17:77777777 18:88888888 19:99999999 1A:AAAAAAAA 1B:BBBBBBBB 1C:00000001 1D:000007D4 1E:00000009 1F:00000002
06C: 00912C23  SW x9, 24(x2)       00:00000000 01:00000134 02:0000070C 05:0000001C 06:00000004 07:0000000A 08:000007EC 09:11111111 0A:000007B8 0B:00000002 0C:00000008 0D:00000001 12:22222222 13:33333333 14:44444444 15:55555555 16:66666666 17:77777777 18:88888888 19:99999999 1A:AAAAAAAA 1B:BBBBBBBB 1C:00000001 1D:000007D4 1E:00000009 1F:00000002
070: 01212A23  SW x18, 20(x2)      00:00000000 01:00000134 02:0000070C 05:0000001C 06:00000004 07:0000000A 08:000007EC 09:11111111 0A:000007B8 0B:00000002 0C:00000008 0D:00000001 12:22222222 13:33333333 14:44444444 15:55555555 16:66666666 17:77777777 18:88888888 19:99999999 1A:AAAAAAAA 1B:BBBBBBBB 1C:00000001 1D:000007D4 1E:00000009 1F:00000002
074: 01312823  SW x19, 16(x2)      00:00000000 01:00000134 02:0000070C 05:0000001C 06:00000004 07:0000000A 08:000007EC 09:11111111 0A:000007B8 0B:00000002 0C:00000008 0D:00000001 12:22222222 13:33333333 14:44444444 15:55555555 16:66666666 17:77777777 18:88888888 19:99999999 1A:AAAAAAAA 1B:BBBBBBBB 1C:00000001 1D:000007D4 1E:00000009 1F:00000002
078: 01412623  SW x20, 12(x2)      00:00000000 01:00000134 02:0000070C 05:0000001C 06:00000004 07:0000000A 08:000007EC 09:11111111 0A:000007B8 0B:00000002 0C:00000008 0D:00000001 12:22222222 13:33333333 14:44444444 15:55555555 16:66666666 17:77777777 18:88888888 19:99999999 1A:AAAAAAAA 1B:BBBBBBBB 1C:00000001 1D:000007D4 1E:00000009 1F:00000002
07C: 01512423  SW x21, 8(x2)       00:00000000 01:00000134 02:0000070C 05:0000001C 06:00000004 07:0000000A 08:000007EC 09:11111111 0A:000007B8 0B:00000002 0C:00000008 0D:00000001 12:22222222 13:33333333 14:44444444 15:55555555 16:66666666 17:77777777 18:88888888 19:99999999 1A:AAAAAAAA 1B:BBBBBBBB 1C:00000001 1D:000007D4 1E:00000009 1F:00000002
080: 00B12223  SW x11, 4(x2)       00:00000000 01:00000134 02:0000070C 05:0000001C 06:00000004 07:0000000A 08:000007EC 09:11111111 0A:000007B8 0B:00000002 0C:00000008 0D:00000001 12:22222222 13:33333333 14:44444444 15:55555555 16:66666666 17:77777777 18:88888888 19:99999999 1A:AAAAAAAA 1B:BBBBBBBB 1C:00000001 1D:000007D4 1E:00000009 1F:00000002
084: 00C12023  SW x12, 0(x2)       00:00000000 01:00000134 02:0000070C 05:0000001C 06:00000004 07:0000000A 08:000007EC 09:11111111 0A:000007B8 0B:00000002 0C:00000008 0D:00000001 12:22222222 13:33333333 14:44444444 15:55555555 16:66666666 17:77777777 18:88888888 19:99999999 1A:AAAAAAAA 1B:BBBBBBBB 1C:00000001 1D:000007D4 1E:00000009 1F:00000002
088: 00200A13  ADDI x20, x0, 2     00:00000000 01:00000134 02:0000070C 05:0000001C 06:00000004 07:0000000A 08:000007EC 09:11111111 0A:000007B8 0B:00000002 0C:00000008 0D:00000001 12:22222222 13:33333333 14:44444444 15:55555555 16:66666666 17:77777777 18:88888888 19:99999999 1A:AAAAAAAA 1B:BBBBBBBB 1C:00000001 1D:000007D4 1E:00000009 1F:00000002
08C: 01461333  SLL x6, x12, x20    00:00000000 01:00000134 02:0000070C 05:0000001C 06:00000004 07:0000000A 08:000007EC 09:11111111 0A:000007B8 0B:00000002 0C:00000008 0D:00000001 12:22222222 13:33333333 14:00000002 15:55555555 16:66666666 17:77777777 18:88888888 19:99999999 1A:AAAAAAAA 1B:BBBBBBBB 1C:00000001 1D:000007D4 1E:00000009 1F:00000002
090: 00650AB3  ADD x21, x10, x6    00:00000000 01:00000134 02:0000070C 05:0000001C 06:00000020 07:0000000A 08:000007EC 09:11111111 0A:000007B8 0B:00000002 0C:00000008 0D:00000001 12:22222222 13:33333333 14:00000002 15:55555555 16:66666666 17:77777777 18:88888888 19:99999999 1A:AAAAAAAA 1B:BBBBBBBB 1C:00000001 1D:000007D4 1E:00000009 1F:00000002
094: 000AA903  LW x18, 0(x21)      00:00000000 01:00000134 02:0000070C 05:0000001C 06:00000020 07:0000000A 08:000007EC 09:11111111 0A:000007B8 0B:00000002 0C:00000008 0D:00000001 12:22222222 13:33333333 14:00000002 15:000007D8 16:66666666 17:77777777 18:88888888 19:99999999 1A:AAAAAAAA 1B:BBBBBBBB 1C:00000001 1D:000007D4 1E:00000009 1F:00000002
098: 00058493  ADDI x9, x11, 0     00:00000000 01:00000134 02:0000070C 05:0000001C 06:00000020 07:0000000A 08:000007EC 09:11111111 0A:000007B8 0B:00000002 0C:00000008 0D:00000001 12:00000009 13:33333333 14:00000002 15:000007D8 16:66666666 17:77777777 18:88888888 19:99999999 1A:AAAAAAAA 1B:BBBBBBBB 1C:00000001 1D:000007D4 1E:00000009 1F:00000002
09C: FFF58993  ADDI x19, x11, -1   00:00000000 01:00000134 02:0000070C 05:0000001C 06:00000020 07:0000000A 08:000007EC 09:00000002 0A:000007B8 0B:00000002 0C:00000008 0D:00000001 12:00000009 13:33333333 14:00000002 15:000007D8 16:66666666 17:77777777 18:88888888 19:99999999 1A:AAAAAAAA 1B:BBBBBBBB 1C:00000001 1D:000007D4 1E:00000009 1F:00000002
0A0: 02C4DE63  BGE x9, x12, 60     00:00000000 01:00000134 02:0000070C 05:0000001C 06:00000020 07:0000000A 08:000007EC 09:00000002 0A:000007B8 0B:00000002 0C:00000008 0D:00000001 12:00000009 13:00000001 14:00000002 15:000007D8 16:66666666 17:77777777 18:88888888 19:99999999 1A:AAAAAAAA 1B:BBBBBBBB 1C:00000001 1D:000007D4 1E:00000009 1F:00000002
0A4: 014492B3  SLL x5, x9, x20     00:00000000 01:00000134 02:0000070C 05:0000001C 06:00000020 07:0000000A 08:000007EC 09:00000002 0A:000007B8 0B:00000002 0C:00000008 0D:00000001 12:00000009 13:00000001 14:00000002 15:000007D8 16:66666666 17:77777777 18:88888888 19:99999999 1A:AAAAAAAA 1B:BBBBBBBB 1C:00000001 1D:000007D4 1E:00000009 1F:00000002
0A8: 00550EB3  ADD x29, x10, x5    00:00000000 01:00000134 02:0000070C 05:00000008 06:00000020 07:0000000A 08:000007EC 09:00000002 0A:000007B8 0B:00000002 0C:00000008 0D:00000001 12:00000009 13:00000001 14:00000002 15:000007D8 16:66666666 17:77777777 18:88888888 19:99999999 1A:AAAAAAAA 1B:BBBBBBBB 1C:00000001 1D:000007D4 1E:00000009 1F:00000002
0AC: 000EAF83  LW x31, 0(x29)      00:00000000 01:00000134 02:0000070C 05:00000008 06:00000020 07:0000000A 08:000007EC 09:00000002 0A:000007B8 0B:00000002 0C:00000008 0D:00000001 12:00000009 13:00000001 14:00000002 15:000007D8 16:66666666 17:77777777 18:88888888 19:99999999 1A:AAAAAAAA 1B:BBBBBBBB 1C:00000001 1D:000007C0 1E:00000009 1F:00000002
0B0: 032FD263  BGE x31, x18, 36    00:00000000 01:00000134 02:0000070C 05:00000008 06:00000020 07:0000000A 08:000007EC 09:00000002 0A:000007B8 0B:00000002 0C:00000008 0D:00000001 12:00000009 13:00000001 14:00000002 15:000007D8 16:66666666 17:77777777 18:88888888 19:99999999 1A:AAAAAAAA 1B:BBBBBBBB 1C:00000001 1D:000007C0 1E:00000009 1F:00000008
0B4: 00198993  ADDI x19, x19, 1    00:00000000 01:00000134 02:0000070C 05:00000008 06:00000020 07:0000000A 08:000007EC 09:00000002 0A:000007B8 0B:00000002 0C:00000008 0D:00000001 12:00000009 13:00000001 14:00000002 15:000007D8 16:66666666 17:77777777 18:88888888 19:99999999 1A:AAAAAAAA 1B:BBBBBBBB 1C:00000001 1D:000007C0 1E:00000009 1F:00000008
0B8: 01499333  SLL x6, x19, x20    00:00000000 01:00000134 02:0000070C 05:00000008 06:00000020 07:0000000A 08:000007EC 09:00000002 0A:000007B8 0B:00000002 0C:00000008 0D:00000001 12:00000009 13:00000002 14:00000002 15:000007D8 16:66666666 17:77777777 18:88888888 19:99999999 1A:AAAAAAAA 1B:BBBBBBBB 1C:00000001 1D:000007C0 1E:00000009 1F:00000008
0BC: 006505B3  ADD x11, x10, x6    00:00000000 01:00000134 02:0000070C 05:00000008 06:00000008 07:0000000A 08:000007EC 09:00000002 0A:000007B8 0B:00000002 0C:00000008 0D:00000001 12:00000009 13:00000002 14:00000002 15:000007D8 16:66666666 17:77777777 18:88888888 19:99999999 1A:AAAAAAAA 1B:BBBBBBBB 1C:00000001 1D:000007C0 1E:00000009 1F:00000008
0C0: 000E8613  ADDI x12, x29, 0    00:00000000 01:00000134 02:0000070C 05:00000008 06:00000008 07:0000000A 08:000007EC 09:00000002 0A:000007B8 0B:000007C0 0C:00000008 0D:00000001 12:00000009 13:00000002 14:00000002 15:000007D8 16:66666666 17:77777777 18:88888888 19:99999999 1A:AAAAAAAA 1B:BBBBBBBB 1C:00000001 1D:000007C0 1E:00000009 1F:00000008
0C4: F7DFF0EF  JAL x1, -132        00:00000000 01:00000134 02:0000070C 05:00000008 06:00000008 07:0000000A 08:000007EC 09:00000002 0A:000007B8 0B:000007C0 0C:000007C0 0D:00000001 12:00000009 13:00000002 14:00000002 15:000007D8 16:66666666 17:77777777 18:88888888 19:99999999 1A:AAAAAAAA 1B:BBBBBBBB 1C:00000001 1D:000007C0 1E:00000009 1F:00000008
040: FE010113  ADDI x2, x2, -32    00:00000000 01:000000C8 02:0000070C 05:00000008 06:00000008 07:0000000A 08:000007EC 09:00000002 0A:000007B8 0B:000007C0 0C:000007C0 0D:00000001 12:00000009 13:00000002 14:00000002 15:000007D8 16:66666666 17:77777777 18:88888888 19:99999999 1A:AAAAAAAA 1B:BBBBBBBB 1C:00000001 1D:000007C0 1E:00000009 1F:00000008
044: 00112E23  SW x1, 28(x2)       00:00000000 01:000000C8 02:000006EC 05:00000008 06:00000008 07:0000000A 08:000007EC 09:00000002 0A:000007B8 0B:000007C0 0C:000007C0 0D:00000001 12:00000009 13:00000002 14:00000002 15:000007D8 16:66666666 17:77777777 18:88888888 19:99999999 1A:AAAAAAAA 1B:BBBBBBBB 1C:00000001 1D:000007C0 1E:00000009 1F:00000008
048: 0005AF03  LW x30, 0(x11)      00:00000000 01:000000C8 02:000006EC 05:00000008 06:00000008 07:0000000A 08:000007EC 09:00000002 0A:000007B8 0B:000007C0 0C:000007C0 0D:00000001 12:00000009 13:00000002 14:00000002 15:000007D8 16:66666666 17:77777777 18:88888888 19:99999999 1A:AAAAAAAA 1B:BBBBBBBB 1C:00000001 1D:000007C0 1E:00000009 1F:00000008
04C: 00062F83  LW x31, 0(x12)      00:00000000 01:000000C8 02:000006EC 05:00000008 06:00000008 07:0000000A 08:000007EC 09:00000002 0A:000007B8 0B:000007C0 0C:000007C0 0D:00000001 12:00000009 13:00000002 14:00000002 15:000007D8 16:66666666 17:77777777 18:88888888 19:99999999 1A:AAAAAAAA 1B:BBBBBBBB 1C:00000001 1D:000007C0 1E:00000008 1F:00000008
050: 01F5A023  SW x31, 0(x11)      00:00000000 01:000000C8 02:000006EC 05:00000008 06:00000008 07:0000000A 08:000007EC 09:00000002 0A:000007B8 0B:000007C0 0C:000007C0 0D:00000001 12:00000009 13:00000002 14:00000002 15:000007D8 16:66666666 17:77777777 18:88888888 19:99999999 1A:AAAAAAAA 1B:BBBBBBBB 1C:00000001 1D:000007C0 1E:00000008 1F:00000008
054: 01E62023  SW x30, 0(x12)      00:00000000 01:000000C8 02:000006EC 05:00000008 06:00000008 07:0000000A 08:000007EC 09:00000002 0A:000007B8 0B:000007C0 0C:000007C0 0D:00000001 12:00000009 13:00000002 14:00000002 15:000007D8 16:66666666 17:77777777 18:88888888 19:99999999 1A:AAAAAAAA 1B:BBBBBBBB 1C:00000001 1D:000007C0 1E:00000008 1F:00000008
058: 01C12083  LW x1, 28(x2)       00:00000000 01:000000C8 02:000006EC 05:00000008 06:00000008 07:0000000A 08:000007EC 09:00000002 0A:000007B8 0B:000007C0 0C:000007C0 0D:00000001 12:00000009 13:00000002 14:00000002 15:000007D8 16:66666666 17:77777777 18:88888888 19:99999999 1A:AAAAAAAA 1B:BBBBBBBB 1C:00000001 1D:000007C0 1E:00000008 1F:00000008
05C: 02010113  ADDI x2, x2, 32     00:00000000 01:000000C8 02:000006EC 05:00000008 06:00000008 07:0000000A 08:000007EC 09:00000002 0A:000007B8 0B:000007C0 0C:000007C0 0D:00000001 12:00000009 13:00000002 14:00000002 15:000007D8 16:66666666 17:77777777 18:88888888 19:99999999 1A:AAAAAAAA 1B:BBBBBBBB 1C:00000001 1D:000007C0 1E:00000008 1F:00000008
060: 00008067  JALR x0, 0(x1)      00:00000000 01:000000C8 02:0000070C 05:00000008 06:00000008 07:0000000A 08:000007EC 09:00000002 0A:000007B8 0B:000007C0 0C:000007C0 0D:00000001 12:00000009 13:00000002 14:00000002 15:000007D8 16:66666666 17:77777777 18:88888888 19:99999999 1A:AAAAAAAA 1B:BBBBBBBB 1C:00000001 1D:000007C0 1E:00000008 1F:00000008
0C8: 00412583  LW x11, 4(x2)       00:00000000 01:000000C8 02:0000070C 05:00000008 06:00000008 07:0000000A 08:000007EC 09:00000002 0A:000007B8 0B:000007C0 0C:000007C0 0D:00000001 12:00000009 13:00000002 14:00000002 15:000007D8 16:66666666 17:77777777 18:88888888 19:99999999 1A:AAAAAAAA 1B:BBBBBBBB 1C:00000001 1D:000007C0 1E:00000008 1F:00000008
0CC: 00012603  LW x12, 0(x2)       00:00000000 01:000000C8 02:0000070C 05:00000008 06:00000008 07:0000000A 08:000007EC 09:00000002 0A:000007B8 0B:00000002 0C:000007C0 0D:00000001 12:00000009 13:00000002 14:00000002 15:000007D8 16:66666666 17:77777777 18:88888888 19:99999999 1A:AAAAAAAA 1B:BBBBBBBB 1C:00000001 1D:000007C0 1E:00000008 1F:00000008
0D0: 0040006F  JAL x0, 4           00:00000000 01:000000C8 02:0000070C 05:00000008 06:00000008 07:0000000A 08:000007EC 09:00000002 0A:000007B8 0B:00000002 0C:00000008 0D:00000001 12:00000009 13:00000002 14:00000002 15:000007D8 16:66666666 17:77777777 18:88888888 19:99999999 1A:AAAAAAAA 1B:BBBBBBBB 1C:00000001 1D:000007C0 1E:00000008 1F:00000008
0D4: 00148493  ADDI x9, x9, 1      00:00000000 01:000000C8 02:0000070C 05:00000008 06:00000008 07:0000000A 08:000007EC 09:00000002 0A:000007B8 0B:00000002 0C:00000008 0D:00000001 12:00000009 13:00000002 14:00000002 15:000007D8 16:66666666 17:77777777 18:88888888 19:99999999 1A:AAAAAAAA 1B:BBBBBBBB 1C:00000001 1D:000007C0 1E:00000008 1F:00000008
0D8: FC9FF06F  JAL x0, -56         00:00000000 01:000000C8 02:0000070C 05:00000008 06:00000008 07:0000000A 08:000007EC 09:00000003 0A:000007B8 0B:00000002 0C:00000008 0D:00000001 12:00000009 13:00000002 14:00000002 15:000007D8 16:66666666 17:77777777 18:88888888 19:99999999 1A:AAAAAAAA 1B:BBBBBBBB 1C:00000001 1D:000007C0 1E:00000008 1F:00000008
0A0: 02C4DE63  BGE x9, x12, 60     00:00000000 01:000000C8 02:0000070C 05:00000008 06:00000008 07:0000000A 08:000007EC 09:00000003 0A:000007B8 0B:00000002 0C:00000008 0D:00000001 12:00000009 13:00000002 14:00000002 15:000007D8 16:66666666 17:77777777 18:88888888 19:99999999 1A:AAAAAAAA 1B:BBBBBBBB 1C:00000001 1D:000007C0 1E:00000008 1F:00000008
0A4: 014492B3  SLL x5, x9, x20     00:00000000 01:000000C8 02:0000070C 05:00000008 06:00000008 07:0000000A 08:000007EC 09:00000003 0A:000007B8 0B:00000002 0C:00000008 0D:00000001 12:00000009 13:00000002 14:00000002 15:000007D8 16:66666666 17:77777777 18:88888888 19:99999999 1A:AAAAAAAA 1B:BBBBBBBB 1C:00000001 1D:000007C0 1E:00000008 1F:00000008
0A8: 00550EB3  ADD x29, x10, x5    00:00000000 01:000000C8 02:0000070C 05:0000000C 06:00000008 07:0000000A 08:000007EC 09:00000003 0A:000007B8 0B:00000002 0C:00000008 0D:00000001 12:00000009 13:00000002 14:00000002 15:000007D8 16:66666666 17:77777777 18:88888888 19:99999999 1A:AAAAAAAA 1B:BBBBBBBB 1C:00000001 1D:000007C0 1E:00000008 1F:00000008
0AC: 000EAF83  LW x31, 0(x29)      00:00000000 01:000000C8 02:0000070C 05:0000000C 06:00000008 07:0000000A 08:000007EC 09:00000003 0A:000007B8 0B:00000002 0C:00000008 0D:00000001 12:00000009 13:00000002 14:00000002 15:000007D8 16:66666666 17:77777777 18:88888888 19:99999999 1A:AAAAAAAA 1B:BBBBBBBB 1C:00000001 1D:000007C4 1E:00000008 1F:00000008
0B0: 032FD263  BGE x31, x18, 36    00:00000000 01:000000C8 02:0000070C 05:0000000C 06:00000008 07:0000000A 08:000007EC 09:00000003 0A:000007B8 0B:00000002 0C:00000008 0D:00000001 12:00000009 13:00000002 14:00000002 15:000007D8 16:66666666 17:77777777 18:88888888 19:99999999 1A:AAAAAAAA 1B:BBBBBBBB 1C:00000001 1D:000007C4 1E:00000008 1F:00000007
0B4: 00198993  ADDI x19, x19, 1    00:00000000 01:000000C8 02:0000070C 05:0000000C 06:00000008 07:0000000A 08:000007EC 09:00000003 0A:000007B8 0B:00000002 0C:00000008 0D:00000001 12:00000009 13:00000002 14:00000002 15:000007D8 16:66666666 17:77777777 18:88888888 19:99999999 1A:AAAAAAAA 1B:BBBBBBBB 1C:00000001 1D:000007C4 1E:00000008 1F:00000007
0B8: 01499333  SLL x6, x19, x20    00:00000000 01:000000C8 02:0000070C 05:0000000C 06:00000008 07:0000000A 08:000007EC 09:00000003 0A:000007B8 0B:00000002 0C:00000008 0D:00000001 12:00000009 13:00000003 14:00000002 15:000007D8 16:66666666 17:77777777 18:88888888 19:99999999 1A:AAAAAAAA 1B:BBBBBBBB 1C:00000001 1D:000007C4 1E:00000008 1F:00000007
0BC: 006505B3  ADD x11, x10, x6    00:00000000 01:000000C8 02:0000070C 05:0000000C 06:0000000C 07:0000000A 08:000007EC 09:00000003 0A:000007B8 0B:00000002 0C:00000008 0D:00000001 12:00000009 13:00000003 14:00000002 15:000007D8 16:66666666 17:77777777 18:88888888 19:99999999 1A:AAAAAAAA 1B:BBBBBBBB 1C:00000001 1D:000007C4 1E:00000008 1F:00000007
0C0: 000E8613  ADDI x12, x29, 0    00:00000000 01:000000C8 02:0000070C 05:0000000C 06:0000000C 07:0000000A 08:000007EC 09:00000003 0A:000007B8 0B:000007C4 0C:00000008 0D:00000001 12:00000009 13:00000003 14:00000002 15:000007D8 16:66666666 17:77777777 18:88888888 19:99999999 1A:AAAAAAAA 1B:BBBBBBBB 1C:00000001 1D:000007C4 1E:00000008 1F:00000007
0C4: F7DFF0EF  JAL x1, -132        00:00000000 01:000000C8 02:0000070C 05:0000000C 06:0000000C 07:0000000A 08:000007EC 09:00000003 0A:000007B8 0B:000007C4 0C:000007C4 0D:00000001 12:00000009 13:00000003 14:00000002 15:000007D8 16:66666666 17:77777777 18:88888888 19:99999999 1A:AAAAAAAA 1B:BBBBBBBB 1C:00000001 1D:000007C4 1E:00000008 1F:00000007
040: FE010113  ADDI x2, x2, -32    00:00000000 01:000000C8 02:0000070C 05:0000000C 06:0000000C 07:0000000A 08:000007EC 09:00000003 0A:000007B8 0B:000007C4 0C:000007C4 0D:00000001 12:00000009 13:00000003 14:00000002 15:000007D8 16:66666666 17:77777777 18:88888888 19:99999999 1A:AAAAAAAA 1B:BBBBBBBB 1C:00000001 1D:000007C4 1E:00000008 1F:00000007
044: 00112E23  SW x1, 28(x2)       00:00000000 01:000000C8 02:000006EC 05:0000000C 06:0000000C 07:0000000A 08:000007EC 09:00000003 0A:000007B8 0B:000007C4 0C:000007C4 0D:00000001 12:00000009 13:00000003 14:00000002 15:000007D8 16:66666666 17:77777777 18:88888888 19:99999999 1A:AAAAAAAA 1B:BBBBBBBB 1C:00000001 1D:000007C4 1E:00000008 1F:00000007
048: 0005AF03  LW x30, 0(x11)      00:00000000 01:000000C8 02:000006EC 05:0000000C 06:0000000C 07:0000000A 08:000007EC 09:00000003 0A:000007B8 0B:000007C4 0C:000007C4 0D:00000001 12:00000009 13:00000003 14:00000002 15:000007D8 16:66666666 17:77777777 18:88888888 19:99999999 1A:AAAAAAAA 1B:BBBBBBBB 1C:00000001 1D:000007C4 1E:00000008 1F:00000007
04C: 00062F83  LW x31, 0(x12)      00:00000000 01:000000C8 02:000006EC 05:0000000C 06:0000000C 07:0000000A 08:000007EC 09:00000003 0A:000007B8 0B:000007C4 0C:000007C4 0D:00000001 12:00000009 13:00000003 14:00000002 15:000007D8 16:66666666 17:77777777 18:88888888 19:99999999 1A:AAAAAAAA 1B:BBBBBBBB 1C:00000001 1D:000007C4 1E:00000007 1F:00000007
050: 01F5A023  SW x31, 0(x11)      00:00000000 01:000000C8 02:000006EC 05:0000000C 06:0000000C 07:0000000A 08:000007EC 09:00000003 0A:000007B8 0B:000007C4 0C:000007C4 0D:00000001 12:00000009 13:00000003 14:00000002 15:000007D8 16:66666666 17:77777777 18:88888888 19:99999999 1A:AAAAAAAA 1B:BBBBBBBB 1C:00000001 1D:000007C4 1E:00000007 1F:00000007
054: 01E62023  SW x30, 0(x12)      00:00000000 01:000000C8 02:000006EC 05:0000000C 06:0000000C 07:0000000A 08:000007EC 09:00000003 0A:000007B8 0B:000007C4 0C:000007C4 0D:00000001 12:00000009 13:00000003 14:00000002 15:000007D8 16:66666666 17:77777777 18:88888888 19:99999999 1A:AAAAAAAA 1B:BBBBBBBB 1C:00000001 1D:000007C4 1E:00000007 1F:00000007
058: 01C12083  LW x1, 28(x2)       00:00000000 01:000000C8 02:000006EC 05:0000000C 06:0000000C 07:0000000A 08:000007EC 09:00000003 0A:000007B8 0B:000007C4 0C:000007C4 0D:00000001 12:00000009 13:00000003 14:00000002 15:000007D8 16:66666666 17:77777777 18:88888888 19:99999999 1A:AAAAAAAA 1B:BBBBBBBB 1C:00000001 1D:000007C4 1E:00000007 1F:00000007
05C: 02010113  ADDI x2, x2, 32     00:00000000 01:000000C8 02:000006EC 05:0000000C 06:0000000C 07:0000000A 08:000007EC 09:00000003 0A:000007B8 0B:000007C4 0C:000007C4 0D:00000001 12:00000009 13:00000003 14:00000002 15:000007D8 16:66666666 17:77777777 18:88888888 19:99999999 1A:AAAAAAAA 1B:BBBBBBBB 1C:00000001 1D:000007C4 1E:00000007 1F:00000007
060: 00008067  JALR x0, 0(x1)      00:00000000 01:000000C8 02:0000070C 05:0000000C 06:0000000C 07:0000000A 08:000007EC 09:00000003 0A:000007B8 0B:000007C4 0C:000007C4 0D:00000001 12:00000009 13:00000003 14:00000002 15:000007D8 16:66666666 17:77777777 18:88888888 19:99999999 1A:AAAAAAAA 1B:BBBBBBBB 1C:00000001 1D:000007C4 1E:00000007 1F:00000007
0C8: 00412583  LW x11, 4(x2)       00:00000000 01:000000C8 02:0000070C 05:0000000C 06:0000000C 07:0000000A 08:000007EC 09:00000003 0A:000007B8 0B:000007C4 0C:000007C4 0D:00000001 12:00000009 13:00000003 14:00000002 15:000007D8 16:66666666 17:77777777 18:88888888 19:99999999 1A:AAAAAAAA 1B:BBBBBBBB 1C:00000001 1D:000007C4 1E:00000007 1F:00000007
0CC: 00012603  LW x12, 0(x2)       00:00000000 01:000000C8 02:0000070C 05:0000000C 06:0000000C 07:0000000A 08:000007EC 09:00000003 0A:000007B8 0B:00000002 0C:000007C4 0D:00000001 12:00000009 13:00000003 14:00000002 15:000007D8 16:66666666 17:77777777 18:88888888 19:99999999 1A:AAAAAAAA 1B:BBBBBBBB 1C:00000001 1D:000007C4 1E:00000007 1F:00000007
0D0: 0040006F  JAL x0, 4           00:00000000 01:000000C8 02:0000070C 05:0000000C 06:0000000C 07:0000000A 08:000007EC 09:00000003 0A:000007B8 0B:00000002 0C:00000008 0D:00000001 12:00000009 13:00000003 14:00000002 15:000007D8 16:66666666 17:77777777 18:88888888 19:99999999 1A:AAAAAAAA 1B:BBBBBBBB 1C:00000001 1D:000007C4 1E:00000007 1F:00000007
0D4: 00148493  ADDI x9, x9, 1      00:00000000 01:000000C8 02:0000070C 05:0000000C 06:0000000C 07:0000000A 08:000007EC 09:00000003 0A:000007B8 0B:00000002 0C:00000008 0D:00000001 12:00000009 13:00000003 14:00000002 15:000007D8 16:66666666 17:77777777 18:88888888 19:99999999 1A:AAAAAAAA 1B:BBBBBBBB 1C:00000001 1D:000007C4 1E:00000007 1F:00000007
0D8: FC9FF06F  JAL x0, -56         00:00000000 01:000000C8 02:0000070C 05:0000000C 06:0000000C 07:0000000A 08:000007EC 09:00000004 0A:000007B8 0B:00000002 0C:00000008 0D:00000001 12:00000009 13:00000003 14:00000002 15:000007D8 16:66666666 17:77777777 18:88888888 19:99999999 1A:AAAAAAAA 1B:BBBBBBBB 1C:00000001 1D:000007C4 1E:00000007 1F:00000007
0A0: 02C4DE63  BGE x9, x12, 60     00:00000000 01:000000C8 02:0000070C 05:0000000C 06:0000000C 07:0000000A 08:000007EC 09:00000004 0A:000007B8 0B:00000002 0C:00000008 0D:00000001 12:00000009 13:00000003 14:00000002 15:000007D8 16:66666666 17:77777777 18:88888888 19:99999999 1A:AAAAAAAA 1B:BBBBBBBB 1C:00000001 1D:000007C4 1E:00000007 1F:00000007
0A4: 014492B3  SLL x5, x9, x20     00:00000000 01:000000C8 02:0000070C 05:0000000C 06:0000000C 07:0000000A 08:000007EC 09:00000004 0A:000007B8 0B:00000002 0C:00000008 0D:00000001 12:00000009 13:00000003 14:00000002 15:000007D8 16:66666666 17:77777777 18:88888888 19:99999999 1A:AAAAAAAA 1B:BBBBBBBB 1C:00000001 1D:000007C4 1E:00000007 1F:00000007
0A8: 00550EB3  ADD x29, x10, x5    00:00000000 01:000000C8 02:0000070C 05:00000010 06:0000000C 07:0000000A 08:000007EC 09:00000004 0A:000007B8 0B:00000002 0C:00000008 0D:00000001 12:00000009 13:00000003 14:00000002 15:000007D8 16:66666666 17:77777777 18:88888888 19:99999999 1A:AAAAAAAA 1B:BBBBBBBB 1C:00000001 1D:000007C4 1E:00000007 1F:00000007
0AC: 000EAF83  LW x31, 0(x29)      00:00000000 01:000000C8 02:0000070C 05:00000010 06:0000000C 07:0000000A 08:000007EC 09:00000004 0A:000007B8 0B:00000002 0C:00000008 0D:00000001 12:00000009 13:00000003 14:00000002 15:000007D8 16:66666666 17:77777777 18:88888888 19:99999999 1A:AAAAAAAA 1B:BBBBBBBB 1C:00000001 1D:000007C8 1E:00000007 1F:00000007
0B0: 032FD263  BGE x31, x18, 36    00:00000000 01:000000C8 02:0000070C 05:00000010 06:0000000C 07:0000000A 08:000007EC 09:00000004 0A:000007B8 0B:00000002 0C:00000008 0D:00000001 12:00000009 13:00000003 14:00000002 15:000007D8 16:66666666 17:77777777 18:88888888 19:99999999 1A:AAAAAAAA 1B:BBBBBBBB 1C:00000001 1D:000007C8 1E:00000007 1F:00000006
0B4: 00198993  ADDI x19, x19, 1    00:00000000 01:000000C8 02:0000070C 05:00000010 06:0000000C 07:0000000A 08:000007EC 09:00000004 0A:000007B8 0B:00000002 0C:00000008 0D:00000001 12:00000009 13:00000003 14:00000002 15:000007D8 16:66666666 17:77777777 18:88888888 19:99999999 1A:AAAAAAAA 1B:BBBBBBBB 1C:00000001 1D:000007C8 1E:00000007 1F:00000006
0B8: 01499333  SLL x6, x19, x20    00:00000000 01:000000C8 02:0000070C 05:00000010 06:0000000C 07:0000000A 08:000007EC 09:00000004 0A:000007B8 0B:00000002 0C:00000008 0D:00000001 12:00000009 13:00000004 14:00000002 15:000007D8 16:66666666 17:77777777 18:88888888 19:99999999 1A:AAAAAAAA 1B:BBBBBBBB 1C:00000001 1D:000007C8 1E:00000007 1F:00000006
0BC: 006505B3  ADD x11, x10, x6    00:00000000 01:000000C8 02:0000070C 05:00000010 06:00000010 07:0000000A 08:000007EC 09:00000004 0A:000007B8 0B:00000002 0C:00000008 0D:00000001 12:00000009 13:00000004 14:00000002 15:000007D8 16:66666666 17:77777777 18:88888888 19:99999999 1A:AAAAAAAA 1B:BBBBBBBB 1C:00000001 1D:000007C8 1E:00000007 1F:00000006
0C0: 000E8613  ADDI x12, x29, 0    00:00000000 01:000000C8 02:0000070C 05:00000010 06:00000010 07:0000000A 08:000007EC 09:00000004 0A:000007B8 0B:000007C8 0C:00000008 0D:00000001 12:00000009 13:00000004 14:00000002 15:000007D8 16:66666666 17:77777777 18:88888888 19:99999999 1A:AAAAAAAA 1B:BBBBBBBB 1C:00000001 1D:000007C8 1E:00000007 1F:00000006
0C4: F7DFF0EF  JAL x1, -132        00:00000000 01:000000C8 02:0000070C 05:00000010 06:00000010 07:0000000A 08:000007EC 09:00000004 0A:000007B8 0B:000007C8 0C:000007C8 0D:00000001 12:00000009 13:00000004 14:00000002 15:000007D8 16:66666666 17:77777777 18:88888888 19:99999999 1A:AAAAAAAA 1B:BBBBBBBB 1C:00000001 1D:000007C8 1E:00000007 1F:00000006
040: FE010113  ADDI x2, x2, -32    00:00000000 01:000000C8 02:0000070C 05:00000010 06:00000010 07:0000000A 08:000007EC 09:00000004 0A:000007B8 0B:000007C8 0C:000007C8 0D:00000001 12:00000009 13:00000004 14:00000002 15:000007D8 16:66666666 17:77777777 18:88888888 19:99999999 1A:AAAAAAAA 1B:BBBBBBBB 1C:00000001 1D:000007C8 1E:00000007 1F:00000006
044: 00112E23  SW x1, 28(x2)       00:00000000 01:000000C8 02:000006EC 05:00000010 06:00000010 07:0000000A 08:000007EC 09:00000004 0A:000007B8 0B:000007C8 0C:000007C8 0D:00000001 12:00000009 13:00000004 14:00000002 15:000007D8 16:66666666 17:77777777 18:88888888 19:99999999 1A:AAAAAAAA 1B:BBBBBBBB 1C:00000001 1D:000007C8 1E:00000007 1F:00000006
048: 0005AF03  LW x30, 0(x11)      00:00000000 01:000000C8 02:000006EC 05:00000010 06:00000010 07:0000000A 08:000007EC 09:00000004 0A:000007B8 0B:000007C8 0C:000007C8 0D:00000001 12:00000009 13:00000004 14:00000002 15:000007D8 16:66666666 17:77777777 18:88888888 19:99999999 1A:AAAAAAAA 1B:BBBBBBBB 1C:00000001 1D:000007C8 1E:00000007 1F:00000006
04C: 00062F83  LW x31, 0(x12)      00:00000000 01:000000C8 02:000006EC 05:00000010 06:00000010 07:0000000A 08:000007EC 09:00000004 0A:000007B8 0B:000007C8 0C:000007C8 0D:00000001 12:00000009 13:00000004 14:00000002 15:000007D8 16:66666666 17:77777777 18:88888888 19:99999999 1A:AAAAAAAA 1B:BBBBBBBB 1C:00000001 1D:000007C8 1E:00000006 1F:00000006
050: 01F5A023  SW x31, 0(x11)      00:00000000 01:000000C8 02:000006EC 05:00000010 06:00000010 07:0000000A 08:000007EC 09:00000004 0A:000007B8 0B:000007C8 0C:000007C8 0D:00000001 12:00000009 13:00000004 14:00000002 15:000007D8 16:66666666 17:77777777 18:88888888 19:99999999 1A:AAAAAAAA 1B:BBBBBBBB 1C:00000001 1D:000007C8 1E:00000006 1F:00000006
054: 01E62023  SW x30, 0(x12)      00:00000000 01:000000C8 02:000006EC 05:00000010 06:00000010 07:0000000A 08:000007EC 09:00000004 0A:000007B8 0B:000007C8 0C:000007C8 0D:00000001 12:00000009 13:00000004 14:00000002 15:000007D8 16:66666666 17:77777777 18:88888888 19:99999999 1A:AAAAAAAA 1B:BBBBBBBB 1C:00000001 1D:000007C8 1E:00000006 1F:00000006
058: 01C12083  LW x1, 28(x2)       00:00000000 01:000000C8 02:000006EC 05:00000010 06:00000010 07:0000000A 08:000007EC 09:00000004 0A:000007B8 0B:000007C8 0C:000007C8 0D:00000001 12:00000009 13:00000004 14:00000002 15:000007D8 16:66666666 17:77777777 18:88888888 19:99999999 1A:AAAAAAAA 1B:BBBBBBBB 1C:00000001 1D:000007C8 1E:00000006 1F:00000006
05C: 02010113  ADDI x2, x2, 32     00:00000000 01:000000C8 02:000006EC 05:00000010 06:00000010 07:0000000A 08:000007EC 09:00000004 0A:000007B8 0B:000007C8 0C:000007C8 0D:00000001 12:00000009 13:00000004 14:00000002 15:000007D8 16:66666666 17:77777777 18:88888888 19:99999999 1A:AAAAAAAA 1B:BBBBBBBB 1C:00000001 1D:000007C8 1E:00000006 1F:00000006
060: 00008067  JALR x0, 0(x1)      00:00000000 01:000000C8 02:0000070C 05:00000010 06:00000010 07:0000000A 08:000007EC 09:00000004 0A:000007B8 0B:000007C8 0C:000007C8 0D:00000001 12:00000009 13:00000004 14:00000002 15:000007D8 16:66666666 17:77777777 18:88888888 19:99999999 1A:AAAAAAAA 1B:BBBBBBBB 1C:00000001 1D:000007C8 1E:00000006 1F:00000006
0C8: 00412583  LW x11, 4(x2)       00:00000000 01:000000C8 02:0000070C 05:00000010 06:00000010 07:0000000A 08:000007EC 09:00000004 0A:000007B8 0B:000007C8 0C:000007C8 0D:00000001 12:00000009 13:00000004 14:00000002 15:000007D8 16:66666666 17:77777777 18:88888888 19:99999999 1A:AAAAAAAA 1B:BBBBBBBB 1C:00000001 1D:000007C8 1E:00000006 1F:00000006
0CC: 00012603  LW x12, 0(x2)       00:00000000 01:000000C8 02:0000070C 05:00000010 06:00000010 07:0000000A 08:000007EC 09:00000004 0A:000007B8 0B:00000002 0C:000007C8 0D:00000001 12:00000009 13:00000004 14:00000002 15:000007D8 16:66666666 17:77777777 18:88888888 19:99999999 1A:AAAAAAAA 1B:BBBBBBBB 1C:00000001 1D:000007C8 1E:00000006 1F:00000006
0D0: 0040006F  JAL x0, 4           00:00000000 01:000000C8 02:0000070C 05:00000010 06:00000010 07:0000000A 08:000007EC 09:00000004 0A:000007B8 0B:00000002 0C:00000008 0D:00000001 12:00000009 13:00000004 14:00000002 15:000007D8 16:66666666 17:77777777 18:88888888 19:99999999 1A:AAAAAAAA 1B:BBBBBBBB 1C:00000001 1D:000007C8 1E:00000006 1F:00000006
0D4: 00148493  ADDI x9, x9, 1      00:00000000 01:000000C8 02:0000070C 05:00000010 06:00000010 07:0000000A 08:000007EC 09:00000004 0A:000007B8 0B:00000002 0C:00000008 0D:00000001 12:00000009 13:00000004 14:00000002 15:000007D8 16:66666666 17:77777777 18:88888888 19:99999999 1A:AAAAAAAA 1B:BBBBBBBB 1C:00000001 1D:000007C8 1E:00000006 1F:00000006
0D8: FC9FF06F  JAL x0, -56         00:00000000 01:000000C8 02:0000070C 05:00000010 06:00000010 07:0000000A 08:000007EC 09:00000005 0A:000007B8 0B:00000002 0C:00000008 0D:00000001 12:00000009 13:00000004 14:00000002 15:000007D8 16:66666666 17:77777777 18:88888888 19:99999999 1A:AAAAAAAA 1B:BBBBBBBB 1C:00000001 1D:000007C8 1E:00000006 1F:00000006
0A0: 02C4DE63  BGE x9, x12, 60     00:00000000 01:000000C8 02:0000070C 05:00000010 06:00000010 07:0000000A 08:000007EC 09:00000005 0A:000007B8 0B:00000002 0C:00000008 0D:00000001 12:00000009 13:00000004 14:00000002 15:000007D8 16:66666666 17:77777777 18:88888888 19:99999999 1A:AAAAAAAA 1B:BBBBBBBB 1C:00000001 1D:000007C8 1E:00000006 1F:00000006
0A4: 014492B3  SLL x5, x9, x20     00:00000000 01:000000C8 02:0000070C 05:00000010 06:00000010 07:0000000A 08:000007EC 09:00000005 0A:000007B8 0B:00000002 0C:00000008 0D:00000001 12:00000009 13:00000004 14:00000002 15:000007D8 16:66666666 17:77777777 18:88888888 19:99999999 1A:AAAAAAAA 1B:BBBBBBBB 1C:00000001 1D:000007C8 1E:00000006 1F:00000006
0A8: 00550EB3  ADD x29, x10, x5    00:00000000 01:000000C8 02:0000070C 05:00000014 06:00000010 07:0000000A 08:000007EC 09:00000005 0A:000007B8 0B:00000002 0C:00000008 0D:00000001 12:00000009 13:00000004 14:00000002 15:000007D8 16:66666666 17:77777777 18:88888888 19:99999999 1A:AAAAAAAA 1B:BBBBBBBB 1C:00000001 1D:000007C8 1E:00000006 1F:00000006
0AC: 000EAF83  LW x31, 0(x29)      00:00000000 01:000000C8 02:0000070C 05:00000014 06:00000010 07:0000000A 08:000007EC 09:00000005 0A:000007B8 0B:00000002 0C:00000008 0D:00000001 12:00000009 13:00000004 14:00000002 15:000007D8 16:66666666 17:77777777 18:88888888 19:99999999 1A:AAAAAAAA 1B:BBBBBBBB 1C:00000001 1D:000007CC 1E:00000006 1F:00000006
0B0: 032FD263  BGE x31, x18, 36    00:00000000 01:000000C8 02:0000070C 05:00000014 06:00000010 07:0000000A 08:000007EC 09:00000005 0A:000007B8 0B:00000002 0C:00000008 0D:00000001 12:00000009 13:00000004 14:00000002 15:000007D8 16:66666666 17:77777777 18:88888888 19:99999999 1A:AAAAAAAA 1B:BBBBBBBB 1C:00000001 1D:000007CC 1E:00000006 1F:00000005
0B4: 00198993  ADDI x19, x19, 1    00:00000000 01:000000C8 02:0000070C 05:00000014 06:00000010 07:0000000A 08:000007EC 09:00000005 0A:000007B8 0B:00000002 0C:00000008 0D:00000001 12:00000009 13:00000004 14:00000002 15:000007D8 16:66666666 17:77777777 18:88888888 19:99999999 1A:AAAAAAAA 1B:BBBBBBBB 1C:00000001 1D:000007CC 1E:00000006 1F:00000005
0B8: 01499333  SLL x6, x19, x20    00:00000000 01:000000C8 02:0000070C 05:00000014 06:00000010 07:0000000A 08:000007EC 09:00000005 0A:000007B8 0B:00000002 0C:00000008 0D:00000001 12:00000009 13:00000005 14:00000002 15:000007D8 16:66666666 17:77777777 18:88888888 19:99999999 1A:AAAAAAAA 1B:BBBBBBBB 1C:00000001 1D:000007CC 1E:00000006 1F:00000005
0BC: 006505B3  ADD x11, x10, x6    00:00000000 01:000000C8 02:0000070C 05:00000014 06:00000014 07:0000000A 08:000007EC 09:00000005 0A:000007B8 0B:00000002 0C:00000008 0D:00000001 12:00000009 13:00000005 14:00000002 15:000007D8 16:66666666 17:77777777 18:88888888 19:99999999 1A:AAAAAAAA 1B:BBBBBBBB 1C:00000001 1D:000007CC 1E:00000006 1F:00000005
0C0: 000E8613  ADDI x12, x29, 0    00:00000000 01:000000C8 02:0000070C 05:00000014 06:00000014 07:0000000A 08:000007EC 09:00000005 0A:000007B8 0B:000007CC 0C:00000008 0D:00000001 12:00000009 13:00000005 14:00000002 15:000007D8 16:66666666 17:77777777 18:88888888 19:99999999 1A:AAAAAAAA 1B:BBBBBBBB 1C:00000001 1D:000007CC 1E:00000006 1F:00000005
0C4: F7DFF0EF  JAL x1, -132        00:00000000 01:000000C8 02:0000070C 05:00000014 06:00000014 07:0000000A 08:000007EC 09:00000005 0A:000007B8 0B:000007CC 0C:000007CC 0D:00000001 12:00000009 13:00000005 14:00000002 15:000007D8 16:66666666 17:77777777 18:88888888 19:99999999 1A:AAAAAAAA 1B:BBBBBBBB 1C:00000001 1D:000007CC 1E:00000006 1F:00000005
040: FE010113  ADDI x2, x2, -32    00:00000000 01:000000C8 02:0000070C 05:00000014 06:00000014 07:0000000A 08:000007EC 09:00000005 0A:000007B8 0B:000007CC 0C:000007CC 0D:00000001 12:00000009 13:00000005 14:00000002 15:000007D8 16:66666666 17:77777777 18:88888888 19:99999999 1A:AAAAAAAA 1B:BBBBBBBB 1C:00000001 1D:000007CC 1E:00000006 1F:00000005
044: 00112E23  SW x1, 28(x2)       00:00000000 01:000000C8 02:000006EC 05:00000014 06:00000014 07:0000000A 08:000007EC 09:00000005 0A:000007B8 0B:000007CC 0C:000007CC 0D:00000001 12:00000009 13:00000005 14:00000002 15:000007D8 16:66666666 17:77777777 18:88888888 19:99999999 1A:AAAAAAAA 1B:BBBBBBBB 1C:00000001 1D:000007CC 1E:00000006 1F:00000005
048: 0005AF03  LW x30, 0(x11)      00:00000000 01:000000C8 02:000006EC 05:00000014 06:00000014 07:0000000A 08:000007EC 09:00000005 0A:000007B8 0B:000007CC 0C:000007CC 0D:00000001 12:00000009 13:00000005 14:00000002 15:000007D8 16:66666666 17:77777777 18:88888888 19:99999999 1A:AAAAAAAA 1B:BBBBBBBB 1C:00000001 1D:000007CC 1E:00000006 1F:00000005
04C: 00062F83  LW x31, 0(x12)      00:00000000 01:000000C8 02:000006EC 05:00000014 06:00000014 07:0000000A 08:000007EC 09:00000005 0A:000007B8 0B:000007CC 0C:000007CC 0D:00000001 12:00000009 13:00000005 14:00000002 15:000007D8 16:66666666 17:77777777 18:88888888 19:99999999 1A:AAAAAAAA 1B:BBBBBBBB 1C:00000001 1D:000007CC 1E:00000005 1F:00000005
050: 01F5A023  SW x31, 0(x11)      00:00000000 01:000000C8 02:000006EC 05:00000014 06:00000014 07:0000000A 08:000007EC 09:00000005 0A:000007B8 0B:000007CC 0C:000007CC 0D:00000001 12:00000009 13:00000005 14:00000002 15:000007D8 16:66666666 17:77777777 18:88888888 19:99999999 1A:AAAAAAAA 1B:BBBBBBBB 1C:00000001 1D:000007CC 1E:00000005 1F:00000005
054: 01E62023  SW x30, 0(x12)      00:00000000 01:000000C8 02:000006EC 05:00000014 06:00000014 07:0000000A 08:000007EC 09:00000005 0A:000007B8 0B:000007CC 0C:000007CC 0D:00000001 12:00000009 13:00000005 14:00000002 15:000007D8 16:66666666 17:77777777 18:88888888 19:99999999 1A:AAAAAAAA 1B:BBBBBBBB 1C:00000001 1D:000007CC 1E:00000005 1F:00000005
058: 01C12083  LW x1, 28(x2)       00:00000000 01:000000C8 02:000006EC 05:00000014 06:00000014 07:0000000A 08:000007EC 09:00000005 0A:000007B8 0B:000007CC 0C:000007CC 0D:00000001 12:00000009 13:00000005 14:00000002 15:000007D8 16:66666666 17:77777777 18:88888888 19:99999999 1A:AAAAAAAA 1B:BBBBBBBB 1C:00000001 1D:000007CC 1E:00000005 1F:00000005
05C: 02010113  ADDI x2, x2, 32     00:00000000 01:000000C8 02:000006EC 05:00000014 06:00000014 07:0000000A 08:000007EC 09:00000005 0A:000007B8 0B:000007CC 0C:000007CC 0D:00000001 12:00000009 13:00000005 14:00000002 15:000007D8 16:66666666 17:77777777 18:88888888 19:99999999 1A:AAAAAAAA 1B:BBBBBBBB 1C:00000001 1D:000007CC 1E:00000005 1F:00000005
060: 00008067  JALR x0, 0(x1)      00:00000000 01:000000C8 02:0000070C 05:00000014 06:00000014 07:0000000A 08:000007EC 09:00000005 0A:000007B8 0B:000007CC 0C:000007CC 0D:00000001 12:00000009 13:00000005 14:00000002 15:000007D8 16:66666666 17:77777777 18:88888888 19:99999999 1A:AAAAAAAA 1B:BBBBBBBB 1C:00000001 1D:000007CC 1E:00000005 1F:00000005
0C8: 00412583  LW x11, 4(x2)       00:00000000 01:000000C8 02:0000070C 05:00000014 06:00000014 07:0000000A 08:000007EC 09:00000005 0A:000007B8 0B:000007CC 0C:000007CC 0D:00000001 12:00000009 13:00000005 14:00000002 15:000007D8 16:66666666 17:77777777 18:88888888 19:99999999 1A:AAAAAAAA 1B:BBBBBBBB 1C:00000001 1D:000007CC 1E:00000005 1F:00000005
0CC: 00012603  LW x12, 0(x2)       00:00000000 01:000000C8 02:0000070C 05:00000014 06:00000014 07:0000000A 08:000007EC 09:00000005 0A:000007B8 0B:00000002 0C:000007CC 0D:00000001 12:00000009 13:00000005 14:00000002 15:000007D8 16:66666666 17:77777777 18:88888888 19:99999999 1A:AAAAAAAA 1B:BBBBBBBB 1C:00000001 1D:000007CC 1E:00000005 1F:00000005
0D0: 0040006F  JAL x0, 4           00:00000000 01:000000C8 02:0000070C 05:00000014 06:00000014 07:0000000A 08:000007EC 09:00000005 0A:000007B8 0B:00000002 0C:00000008 0D:00000001 12:00000009 13:00000005 14:00000002 15:000007D8 16:66666666 17:77777777 18:88888888 19:99999999 1A:AAAAAAAA 1B:BBBBBBBB 1C:00000001 1D:000007CC 1E:00000005 1F:00000005
0D4: 00148493  ADDI x9, x9, 1      00:00000000 01:000000C8 02:0000070C 05:00000014 06:00000014 07:0000000A 08:000007EC 09:00000005 0A:000007B8 0B:00000002 0C:00000008 0D:00000001 12:00000009 13:00000005 14:00000002 15:000007D8 16:66666666 17:77777777 18:88888888 19:99999999 1A:AAAAAAAA 1B:BBBBBBBB 1C:00000001 1D:000007CC 1E:00000005 1F:00000005
0D8: FC9FF06F  JAL x0, -56         00:00000000 01:000000C8 02:0000070C 05:00000014 06:00000014 07:0000000A 08:000007EC 09:00000006 0A:000007B8 0B:00000002 0C:00000008 0D:00000001 12:00000009 13:00000005 14:00000002 15:000007D8 16:66666666 17:77777777 18:88888888 19:99999999 1A:AAAAAAAA 1B:BBBBBBBB 1C:00000001 1D:000007CC 1E:00000005 1F:00000005
0A0: 02C4DE63  BGE x9, x12, 60     00:00000000 01:000000C8 02:0000070C 05:00000014 06:00000014 07:0000000A 08:000007EC 09:00000006 0A:000007B8 0B:00000002 0C:00000008 0D:00000001 12:00000009 13:00000005 14:00000002 15:000007D8 16:66666666 17:77777777 18:88888888 19:99999999 1A:AAAAAAAA 1B:BBBBBBBB 1C:00000001 1D:000007CC 1E:00000005 1F:00000005
0A4: 014492B3  SLL x5, x9, x20     00:00000000 01:000000C8 02:0000070C 05:00000014 06:00000014 07:0000000A 08:000007EC 09:00000006 0A:000007B8 0B:00000002 0C:00000008 0D:00000001 12:00000009 13:00000005 14:00000002 15:000007D8 16:66666666 17:77777777 18:88888888 19:99999999 1A:AAAAAAAA 1B:BBBBBBBB 1C:00000001 1D:000007CC 1E:00000005 1F:00000005
0A8: 00550EB3  ADD x29, x10, x5    00:00000000 01:000000C8 02:0000070C 05:00000018 06:00000014 07:0000000A 08:000007EC 09:00000006 0A:000007B8 0B:00000002 0C:00000008 0D:00000001 12:00000009 13:00000005 14:00000002 15:000007D8 16:66666666 17:77777777 18:88888888 19:99999999 1A:AAAAAAAA 1B:BBBBBBBB 1C:00000001 1D:000007CC 1E:00000005 1F:00000005
0AC: 000EAF83  LW x31, 0(x29)      00:00000000 01:000000C8 02:0000070C 05:00000018 06:00000014 07:0000000A 08:000007EC 09:00000006 0A:000007B8 0B:00000002 0C:00000008 0D:00000001 12:00000009 13:00000005 14:00000002 15:000007D8 16:66666666 17:77777777 18:88888888 19:99999999 1A:AAAAAAAA 1B:BBBBBBBB 1C:00000001 1D:000007D0 1E:00000005 1F:00000005
0B0: 032FD263  BGE x31, x18, 36    00:00000000 01:000000C8 02:0000070C 05:00000018 06:00000014 07:0000000A 08:000007EC 09:00000006 0A:000007B8 0B:00000002 0C:00000008 0D:00000001 12:00000009 13:00000005 14:00000002 15:000007D8 16:66666666 17:77777777 18:88888888 19:99999999 1A:AAAAAAAA 1B:BBBBBBBB 1C:00000001 1D:000007D0 1E:00000005 1F:00000004
0B4: 00198993  ADDI x19, x19, 1    00:00000000 01:000000C8 02:0000070C 05:00000018 06:00000014 07:0000000A 08:000007EC 09:00000006 0A:000007B8 0B:00000002 0C:00000008 0D:00000001 12:00000009 13:00000005 14:00000002 15:000007D8 16:66666666 17:77777777 18:88888888 19:99999999 1A:AAAAAAAA 1B:BBBBBBBB 1C:00000001 1D:000007D0 1E:00000005 1F:00000004
0B8: 01499333  SLL x6, x19, x20    00:00000000 01:000000C8 02:0000070C 05:00000018 06:00000014 07:0000000A 08:000007EC 09:00000006 0A:000007B8 0B:00000002 0C:00000008 0D:00000001 12:00000009 13:00000006 14:00000002 15:000007D8 16:66666666 17:77777777 18:88888888 19:99999999 1A:AAAAAAAA 1B:BBBBBBBB 1C:00000001 1D:000007D0 1E:00000005 1F:00000004
0BC: 006505B3  ADD x11, x10, x6    00:00000000 01:000000C8 02:0000070C 05:00000018 06:00000018 07:0000000A 08:000007EC 09:00000006 0A:000007B8 0B:00000002 0C:00000008 0D:00000001 12:00000009 13:00000006 14:00000002 15:000007D8 16:66666666 17:77777777 18:88888888 19:99999999 1A:AAAAAAAA 1B:BBBBBBBB 1C:00000001 1D:000007D0 1E:00000005 1F:00000004
0C0: 000E8613  ADDI x12, x29, 0    00:00000000 01:000000C8 02:0000070C 05:00000018 06:00000018 07:0000000A 08:000007EC 09:00000006 0A:000007B8 0B:000007D0 0C:00000008 0D:00000001 12:00000009 13:00000006 14:00000002 15:000007D8 16:66666666 17:77777777 18:88888888 19:99999999 1A:AAAAAAAA 1B:BBBBBBBB 1C:00000001 1D:000007D0 1E:00000005 1F:00000004
0C4: F7DFF0EF  JAL x1, -132        00:00000000 01:000000C8 02:0000070C 05:00000018 06:00000018 07:0000000A 08:000007EC 09:00000006 0A:000007B8 0B:000007D0 0C:000007D0 0D:00000001 12:00000009 13:00000006 14:00000002 15:000007D8 16:66666666 17:77777777 18:88888888 19:99999999 1A:AAAAAAAA 1B:BBBBBBBB 1C:00000001 1D:000007D0 1E:00000005 1F:00000004
040: FE010113  ADDI x2, x2, -32    00:00000000 01:000000C8 02:0000070C 05:00000018 06:00000018 07:0000000A 08:000007EC 09:00000006 0A:000007B8 0B:000007D0 0C:000007D0 0D:00000001 12:00000009 13:00000006 14:00000002 15:000007D8 16:66666666 17:77777777 18:88888888 19:99999999 1A:AAAAAAAA 1B:BBBBBBBB 1C:00000001 1D:000007D0 1E:00000005 1F:00000004
044: 00112E23  SW x1, 28(x2)       00:00000000 01:000000C8 02:000006EC 05:00000018 06:00000018 07:0000000A 08:000007EC 09:00000006 0A:000007B8 0B:000007D0 0C:000007D0 0D:00000001 12:00000009 13:00000006 14:00000002 15:000007D8 16:66666666 17:77777777 18:88888888 19:99999999 1A:AAAAAAAA 1B:BBBBBBBB 1C:00000001 1D:000007D0 1E:00000005 1F:00000004
048: 0005AF03  LW x30, 0(x11)      00:00000000 01:000000C8 02:000006EC 05:00000018 06:00000018 07:0000000A 08:000007EC 09:00000006 0A:000007B8 0B:000007D0 0C:000007D0 0D:00000001 12:00000009 13:00000006 14:00000002 15:000007D8 16:66666666 17:77777777 18:88888888 19:99999999 1A:AAAAAAAA 1B:BBBBBBBB 1C:00000001 1D:000007D0 1E:00000005 1F:00000004
04C: 00062F83  LW x31, 0(x12)      00:00000000 01:000000C8 02:000006EC 05:00000018 06:00000018 07:0000000A 08:000007EC 09:00000006 0A:000007B8 0B:000007D0 0C:000007D0 0D:00000001 12:00000009 13:00000006 14:00000002 15:000007D8 16:66666666 17:77777777 18:88888888 19:99999999 1A:AAAAAAAA 1B:BBBBBBBB 1C:00000001 1D:000007D0 1E:00000004 1F:00000004
050: 01F5A023  SW x31, 0(x11)      00:00000000 01:000000C8 02:000006EC 05:00000018 06:00000018 07:0000000A 08:000007EC 09:00000006 0A:000007B8 0B:000007D0 0C:000007D0 0D:00000001 12:00000009 13:00000006 14:00000002 15:000007D8 16:66666666 17:77777777 18:88888888 19:99999999 1A:AAAAAAAA 1B:BBBBBBBB 1C:00000001 1D:000007D0 1E:00000004 1F:00000004
054: 01E62023  SW x30, 0(x12)      00:00000000 01:000000C8 02:000006EC 05:00000018 06:00000018 07:0000000A 08:000007EC 09:00000006 0A:000007B8 0B:000007D0 0C:000007D0 0D:00000001 12:00000009 13:00000006 14:00000002 15:000007D8 16:66666666 17:77777777 18:88888888 19:99999999 1A:AAAAAAAA 1B:BBBBBBBB 1C:00000001 1D:000007D0 1E:00000004 1F:00000004
058: 01C12083  LW x1, 28(x2)       00:00000000 01:000000C8 02:000006EC 05:00000018 06:00000018 07:0000000A 08:000007EC 09:00000006 0A:000007B8 0B:000007D0 0C:000007D0 0D:00000001 12:00000009 13:00000006 14:00000002 15:000007D8 16:66666666 17:77777777 18:88888888 19:99999999 1A:AAAAAAAA 1B:BBBBBBBB 1C:00000001 1D:000007D0 1E:00000004 1F:00000004
05C: 02010113  ADDI x2, x2, 32     00:00000000 01:000000C8 02:000006EC 05:00000018 06:00000018 07:0000000A 08:000007EC 09:00000006 0A:000007B8 0B:000007D0 0C:000007D0 0D:00000001 12:00000009 13:00000006 14:00000002 15:000007D8 16:66666666 17:77777777 18:88888888 19:99999999 1A:AAAAAAAA 1B:BBBBBBBB 1C:00000001 1D:000007D0 1E:00000004 1F:00000004
060: 00008067  JALR x0, 0(x1)      00:00000000 01:000000C8 02:0000070C 05:00000018 06:00000018 07:0000000A 08:000007EC 09:00000006 0A:000007B8 0B:000007D0 0C:000007D0 0D:00000001 12:00000009 13:00000006 14:00000002 15:000007D8 16:66666666 17:77777777 18:88888888 19:99999999 1A:AAAAAAAA 1B:BBBBBBBB 1C:00000001 1D:000007D0 1E:00000004 1F:00000004
0C8: 00412583  LW x11, 4(x2)       00:00000000 01:000000C8 02:0000070C 05:00000018 06:00000018 07:0000000A 08:000007EC 09:00000006 0A:000007B8 0B:000007D0 0C:000007D0 0D:00000001 12:00000009 13:00000006 14:00000002 15:000007D8 16:66666666 17:77777777 18:88888888 19:99999999 1A:AAAAAAAA 1B:BBBBBBBB 1C:00000001 1D:000007D0 1E:00000004 1F:00000004
0CC: 00012603  LW x12, 0(x2)       00:00000000 01:000000C8 02:0000070C 05:00000018 06:00000018 07:0000000A 08:000007EC 09:00000006 0A:000007B8 0B:00000002 0C:000007D0 0D:00000001 12:00000009 13:00000006 14:00000002 15:000007D8 16:66666666 17:77777777 18:88888888 19:99999999 1A:AAAAAAAA 1B:BBBBBBBB 1C:00000001 1D:000007D0 1E:00000004 1F:00000004
0D0: 0040006F  JAL x0, 4           00:00000000 01:000000C8 02:0000070C 05:00000018 06:00000018 07:0000000A 08:000007EC 09:00000006 0A:000007B8 0B:00000002 0C:00000008 0D:00000001 12:00000009 13:00000006 14:00000002 15:000007D8 16:66666666 17:77777777 18:88888888 19:99999999 1A:AAAAAAAA 1B:BBBBBBBB 1C:00000001 1D:000007D0 1E:00000004 1F:00000004
0D4: 00148493  ADDI x9, x9, 1      00:00000000 01:000000C8 02:0000070C 05:00000018 06:00000018 07:0000000A 08:000007EC 09:00000006 0A:000007B8 0B:00000002 0C:00000008 0D:00000001 12:00000009 13:00000006 14:00000002 15:000007D8 16:66666666 17:77777777 18:88888888 19:99999999 1A:AAAAAAAA 1B:BBBBBBBB 1C:00000001 1D:000007D0 1E:00000004 1F:00000004
0D8: FC9FF06F  JAL x0, -56         00:00000000 01:000000C8 02:0000070C 05:00000018 06:00000018 07:0000000A 08:000007EC 09:00000007 0A:000007B8 0B:00000002 0C:00000008 0D:00000001 12:00000009 13:00000006 14:00000002 15:000007D8 16:66666666 17:77777777 18:88888888 19:99999999 1A:AAAAAAAA 1B:BBBBBBBB 1C:00000001 1D:000007D0 1E:00000004 1F:00000004
0A0: 02C4DE63  BGE x9, x12, 60     00:00000000 01:000000C8 02:0000070C 05:00000018 06:00000018 07:0000000A 08:000007EC 09:00000007 0A:000007B8 0B:00000002 0C:00000008 0D:00000001 12:00000009 13:00000006 14:00000002 15:000007D8 16:66666666 17:77777777 18:88888888 19:99999999 1A:AAAAAAAA 1B:BBBBBBBB 1C:00000001 1D:000007D0 1E:00000004 1F:00000004
0A4: 014492B3  SLL x5, x9, x20     00:00000000 01:000000C8 02:0000070C 05:00000018 06:00000018 07:0000000A 08:000007EC 09:00000007 0A:000007B8 0B:00000002 0C:00000008 0D:00000001 12:00000009 13:00000006 14:00000002 15:000007D8 16:66666666 17:77777777 18:88888888 19:99999999 1A:AAAAAAAA 1B:BBBBBBBB 1C:00000001 1D:000007D0 1E:00000004 1F:00000004
0A8: 00550EB3  ADD x29, x10, x5    00:00000000 01:000000C8 02:0000070C 05:0000001C 06:00000018 07:0000000A 08:000007EC 09:00000007 0A:000007B8 0B:00000002 0C:00000008 0D:00000001 12:00000009 13:00000006 14:00000002 15:000007D8 16:66666666 17:77777777 18:88888888 19:99999999 1A:AAAAAAAA 1B:BBBBBBBB 1C:00000001 1D:000007D0 1E:00000004 1F:00000004
0AC: 000EAF83  LW x31, 0(x29)      00:00000000 01:000000C8 02:0000070C 05:0000001C 06:00000018 07:0000000A 08:000007EC 09:00000007 0A:000007B8 0B:00000002 0C:00000008 0D:00000001 12:00000009 13:00000006 14:00000002 15:000007D8 16:66666666 17:77777777 18:88888888 19:99999999 1A:AAAAAAAA 1B:BBBBBBBB 1C:00000001 1D:000007D4 1E:00000004 1F:00000004
0B0: 032FD263  BGE x31, x18, 36    00:00000000 01:000000C8 02:0000070C 05:0000001C 06:00000018 07:0000000A 08:000007EC 09:00000007 0A:000007B8 0B:00000002 0C:00000008 0D:00000001 12:00000009 13:00000006 14:00000002 15:000007D8 16:66666666 17:77777777 18:88888888 19:99999999 1A:AAAAAAAA 1B:BBBBBBBB 1C:00000001 1D:000007D4 1E:00000004 1F:00000003
0B4: 00198993  ADDI x19, x19, 1    00:00000000 01:000000C8 02:0000070C 05:0000001C 06:00000018 07:0000000A 08:000007EC 09:00000007 0A:000007B8 0B:00000002 0C:00000008 0D:00000001 12:00000009 13:00000006 14:00000002 15:000007D8 16:66666666 17:77777777 18:88888888 19:99999999 1A:AAAAAAAA 1B:BBBBBBBB 1C:00000001 1D:000007D4 1E:00000004 1F:00000003
0B8: 01499333  SLL x6, x19, x20    00:00000000 01:000000C8 02:0000070C 05:0000001C 06:00000018 07:0000000A 08:000007EC 09:00000007 0A:000007B8 0B:00000002 0C:00000008 0D:00000001 12:00000009 13:00000007 14:00000002 15:000007D8 16:66666666 17:77777777 18:88888888 19:99999999 1A:AAAAAAAA 1B:BBBBBBBB 1C:00000001 1D:000007D4 1E:00000004 1F:00000003
0BC: 006505B3  ADD x11, x10, x6    00:00000000 01:000000C8 02:0000070C 05:0000001C 06:0000001C 07:0000000A 08:000007EC 09:00000007 0A:000007B8 0B:00000002 0C:00000008 0D:00000001 12:00000009 13:00000007 14:00000002 15:000007D8 16:66666666 17:77777777 18:88888888 19:99999999 1A:AAAAAAAA 1B:BBBBBBBB 1C:00000001 1D:000007D4 1E:00000004 1F:00000003
0C0: 000E8613  ADDI x12, x29, 0    00:00000000 01:000000C8 02:0000070C 05:0000001C 06:0000001C 07:0000000A 08:000007EC 09:00000007 0A:000007B8 0B:000007D4 0C:00000008 0D:00000001 12:00000009 13:00000007 14:00000002 15:000007D8 16:66666666 17:77777777 18:88888888 19:99999999 1A:AAAAAAAA 1B:BBBBBBBB 1C:00000001 1D:000007D4 1E:00000004 1F:00000003
0C4: F7DFF0EF  JAL x1, -132        00:00000000 01:000000C8 02:0000070C 05:0000001C 06:0000001C 07:0000000A 08:000007EC 09:00000007 0A:000007B8 0B:000007D4 0C:000007D4 0D:00000001 12:00000009 13:00000007 14:00000002 15:000007D8 16:66666666 17:77777777 18:88888888 19:99999999 1A:AAAAAAAA 1B:BBBBBBBB 1C:00000001 1D:000007D4 1E:00000004 1F:00000003
040: FE010113  ADDI x2, x2, -32    00:00000000 01:000000C8 02:0000070C 05:0000001C 06:0000001C 07:0000000A 08:000007EC 09:00000007 0A:000007B8 0B:000007D4 0C:000007D4 0D:00000001 12:00000009 13:00000007 14:00000002 15:000007D8 16:66666666 17:77777777 18:88888888 19:99999999 1A:AAAAAAAA 1B:BBBBBBBB 1C:00000001 1D:000007D4 1E:00000004 1F:00000003
044: 00112E23  SW x1, 28(x2)       00:00000000 01:000000C8 02:000006EC 05:0000001C 06:0000001C 07:0000000A 08:000007EC 09:00000007 0A:000007B8 0B:000007D4 0C:000007D4 0D:00000001 12:00000009 13:00000007 14:00000002 15:000007D8 16:66666666 17:77777777 18:88888888 19:99999999 1A:AAAAAAAA 1B:BBBBBBBB 1C:00000001 1D:000007D4 1E:00000004 1F:00000003
048: 0005AF03  LW x30, 0(x11)      00:00000000 01:000000C8 02:000006EC 05:0000001C 06:0000001C 07:0000000A 08:000007EC 09:00000007 0A:000007B8 0B:000007D4 0C:000007D4 0D:00000001 12:00000009 13:00000007 14:00000002 15:000007D8 16:66666666 17:77777777 18:88888888 19:99999999 1A:AAAAAAAA 1B:BBBBBBBB 1C:00000001 1D:000007D4 1E:00000004 1F:00000003
04C: 00062F83  LW x31, 0(x12)      00:00000000 01:000000C8 02:000006EC 05:0000001C 06:0000001C 07:0000000A 08:000007EC 09:00000007 0A:000007B8 0B:000007D4 0C:000007D4 0D:00000001 12:00000009 13:00000007 14:00000002 15:000007D8 16:66666666 17:77777777 18:88888888 19:99999999 1A:AAAAAAAA 1B:BBBBBBBB 1C:00000001 1D:000007D4 1E:00000003 1F:00000003
050: 01F5A023  SW x31, 0(x11)      00:00000000 01:000000C8 02:000006EC 05:0000001C 06:0000001C 07:0000000A 08:000007EC 09:00000007 0A:000007B8 0B:000007D4 0C:000007D4 0D:00000001 12:00000009 13:00000007 14:00000002 15:000007D8 16:66666666 17:77777777 18:88888888 19:99999999 1A:AAAAAAAA 1B:BBBBBBBB 1C:00000001 1D:000007D4 1E:00000003 1F:00000003
054: 01E62023  SW x30, 0(x12)      00:00000000 01:000000C8 02:000006EC 05:0000001C 06:0000001C 07:0000000A 08:000007EC 09:00000007 0A:000007B8 0B:000007D4 0C:000007D4 0D:00000001 12:00000009 13:00000007 14:00000002 15:000007D8 16:66666666 17:77777777 18:88888888 19:99999999 1A:AAAAAAAA 1B:BBBBBBBB 1C:00000001 1D:000007D4 1E:00000003 1F:00000003
058: 01C12083  LW x1, 28(x2)       00:00000000 01:000000C8 02:000006EC 05:0000001C 06:0000001C 07:0000000A 08:000007EC 09:00000007 0A:000007B8 0B:000007D4 0C:000007D4 0D:00000001 12:00000009 13:00000007 14:00000002 15:000007D8 16:66666666 17:77777777 18:88888888 19:99999999 1A:AAAAAAAA 1B:BBBBBBBB 1C:00000001 1D:000007D4 1E:00000003 1F:00000003
05C: 02010113  ADDI x2, x2, 32     00:00000000 01:000000C8 02:000006EC 05:0000001C 06:0000001C 07:0000000A 08:000007EC 09:00000007 0A:000007B8 0B:000007D4 0C:000007D4 0D:00000001 12:00000009 13:00000007 14:00000002 15:000007D8 16:66666666 17:77777777 18:88888888 19:99999999 1A:AAAAAAAA 1B:BBBBBBBB 1C:00000001 1D:000007D4 1E:00000003 1F:00000003
060: 00008067  JALR x0, 0(x1)      00:00000000 01:000000C8 02:0000070C 05:0000001C 06:0000001C 07:0000000A 08:000007EC 09:00000007 0A:000007B8 0B:000007D4 0C:000007D4 0D:00000001 12:00000009 13:00000007 14:00000002 15:000007D8 16:66666666 17:77777777 18:88888888 19:99999999 1A:AAAAAAAA 1B:BBBBBBBB 1C:00000001 1D:000007D4 1E:00000003 1F:00000003
0C8: 00412583  LW x11, 4(x2)       00:00000000 01:000000C8 02:0000070C 05:0000001C 06:0000001C 07:0000000A 08:000007EC 09:00000007 0A:000007B8 0B:000007D4 0C:000007D4 0D:00000001 12:00000009 13:00000007 14:00000002 15:000007D8 16:66666666 17:77777777 18:88888888 19:99999999 1A:AAAAAAAA 1B:BBBBBBBB 1C:00000001 1D:000007D4 1E:00000003 1F:00000003
0CC: 00012603  LW x12, 0(x2)       00:00000000 01:000000C8 02:0000070C 05:0000001C 06:0000001C 07:0000000A 08:000007EC 09:00000007 0A:000007B8 0B:00000002 0C:000007D4 0D:00000001 12:00000009 13:00000007 14:00000002 15:000007D8 16:66666666 17:77777777 18:88888888 19:99999999 1A:AAAAAAAA 1B:BBBBBBBB 1C:00000001 1D:000007D4 1E:00000003 1F:00000003
0D0: 0040006F  JAL x0, 4           00:00000000 01:000000C8 02:0000070C 05:0000001C 06:0000001C 07:0000000A 08:000007EC 09:00000007 0A:000007B8 0B:00000002 0C:00000008 0D:00000001 12:00000009 13:00000007 14:00000002 15:000007D8 16:66666666 17:77777777 18:88888888 19:99999999 1A:AAAAAAAA 1B:BBBBBBBB 1C:00000001 1D:000007D4 1E:00000003 1F:00000003
0D4: 00148493  ADDI x9, x9, 1      00:00000000 01:000000C8 02:0000070C 05:0000001C 06:0000001C 07:0000000A 08:000007EC 09:00000007 0A:000007B8 0B:00000002 0C:00000008 0D:00000001 12:00000009 13:00000007 14:00000002 15:000007D8 16:66666666 17:77777777 18:88888888 19:99999999 1A:AAAAAAAA 1B:BBBBBBBB 1C:00000001 1D:000007D4 1E:00000003 1F:00000003
0D8: FC9FF06F  JAL x0, -56         00:00000000 01:000000C8 02:0000070C 05:0000001C 06:0000001C 07:0000000A 08:000007EC 09:00000008 0A:000007B8 0B:00000002 0C:00000008 0D:00000001 12:00000009 13:00000007 14:00000002 15:000007D8 16:66666666 17:77777777 18:88888888 19:99999999 1A:AAAAAAAA 1B:BBBBBBBB 1C:00000001 1D:000007D4 1E:00000003 1F:00000003
0A0: 02C4DE63  BGE x9, x12, 60     00:00000000 01:000000C8 02:0000070C 05:0000001C 06:0000001C 07:0000000A 08:000007EC 09:00000008 0A:000007B8 0B:00000002 0C:00000008 0D:00000001 12:00000009 13:00000007 14:00000002 15:000007D8 16:66666666 17:77777777 18:88888888 19:99999999 1A:AAAAAAAA 1B:BBBBBBBB 1C:00000001 1D:000007D4 1E:00000003 1F:00000003
0DC: 00198993  ADDI x19, x19, 1    00:00000000 01:000000C8 02:0000070C 05:0000001C 06:0000001C 07:0000000A 08:000007EC 09:00000008 0A:000007B8 0B:00000002 0C:00000008 0D:00000001 12:00000009 13:00000007 14:00000002 15:000007D8 16:66666666 17:77777777 18:88888888 19:99999999 1A:AAAAAAAA 1B:BBBBBBBB 1C:00000001 1D:000007D4 1E:00000003 1F:00000003
0E0: 01499333  SLL x6, x19, x20    00:00000000 01:000000C8 02:0000070C 05:0000001C 06:0000001C 07:0000000A 08:000007EC 09:00000008 0A:000007B8 0B:00000002 0C:00000008 0D:00000001 12:00000009 13:00000008 14:00000002 15:000007D8 16:66666666 17:77777777 18:88888888 19:99999999 1A:AAAAAAAA 1B:BBBBBBBB 1C:00000001 1D:000007D4 1E:00000003 1F:00000003
0E4: 006505B3  ADD x11, x10, x6    00:00000000 01:000000C8 02:0000070C 05:0000001C 06:00000020 07:0000000A 08:000007EC 09:00000008 0A:000007B8 0B:00000002 0C:00000008 0D:00000001 12:00000009 13:00000008 14:00000002 15:000007D8 16:66666666 17:77777777 18:88888888 19:99999999 1A:AAAAAAAA 1B:BBBBBBBB 1C:00000001 1D:000007D4 1E:00000003 1F:00000003
0E8: 000A8613  ADDI x12, x21, 0    00:00000000 01:000000C8 02:0000070C 05:0000001C 06:00000020 07:0000000A 08:000007EC 09:00000008 0A:000007B8 0B:000007D8 0C:00000008 0D:00000001 12:00000009 13:00000008 14:00000002 15:000007D8 16:66666666 17:77777777 18:88888888 19:99999999 1A:AAAAAAAA 1B:BBBBBBBB 1C:00000001 1D:000007D4 1E:00000003 1F:00000003
0EC: F55FF0EF  JAL x1, -172        00:00000000 01:000000C8 02:0000070C 05:0000001C 06:00000020 07:0000000A 08:000007EC 09:00000008 0A:000007B8 0B:000007D8 0C:000007D8 0D:00000001 12:00000009 13:00000008 14:00000002 15:000007D8 16:66666666 17:77777777 18:88888888 19:99999999 1A:AAAAAAAA 1B:BBBBBBBB 1C:00000001 1D:000007D4 1E:00000003 1F:00000003
040: FE010113  ADDI x2, x2, -32    00:00000000 01:000000F0 02:0000070C 05:0000001C 06:00000020 07:0000000A 08:000007EC 09:00000008 0A:000007B8 0B:000007D8 0C:000007D8 0D:00000001 12:00000009 13:00000008 14:00000002 15:000007D8 16:66666666 17:77777777 18:88888888 19:99999999 1A:AAAAAAAA 1B:BBBBBBBB 1C:00000001 1D:000007D4 1E:00000003 1F:00000003
044: 00112E23  SW x1, 28(x2)       00:00000000 01:000000F0 02:000006EC 05:0000001C 06:00000020 07:0000000A 08:000007EC 09:00000008 0A:000007B8 0B:000007D8 0C:000007D8 0D:00000001 12:00000009 13:00000008 14:00000002 15:000007D8 16:66666666 17:77777777 18:88888888 19:99999999 1A:AAAAAAAA 1B:BBBBBBBB 1C:00000001 1D:000007D4 1E:00000003 1F:00000003
048: 0005AF03  LW x30, 0(x11)      00:00000000 01:000000F0 02:000006EC 05:0000001C 06:00000020 07:0000000A 08:000007EC 09:00000008 0A:000007B8 0B:000007D8 0C:000007D8 0D:00000001 12:00000009 13:00000008 14:00000002 15:000007D8 16:66666666 17:77777777 18:88888888 19:99999999 1A:AAAAAAAA 1B:BBBBBBBB 1C:00000001 1D:000007D4 1E:00000003 1F:00000003
04C: 00062F83  LW x31, 0(x12)      00:00000000 01:000000F0 02:000006EC 05:0000001C 06:00000020 07:0000000A 08:000007EC 09:00000008 0A:000007B8 0B:000007D8 0C:000007D8 0D:00000001 12:00000009 13:00000008 14:00000002 15:000007D8 16:66666666 17:77777777 18:88888888 19:99999999 1A:AAAAAAAA 1B:BBBBBBBB 1C:00000001 1D:000007D4 1E:00000009 1F:00000003
050: 01F5A023  SW x31, 0(x11)      00:00000000 01:000000F0 02:000006EC 05:0000001C 06:00000020 07:0000000A 08:000007EC 09:00000008 0A:000007B8 0B:000007D8 0C:000007D8 0D:00000001 12:00000009 13:00000008 14:00000002 15:000007D8 16:66666666 17:77777777 18:88888888 19:99999999 1A:AAAAAAAA 1B:BBBBBBBB 1C:00000001 1D:000007D4 1E:00000009 1F:00000009
054: 01E62023  SW x30, 0(x12)      00:00000000 01:000000F0 02:000006EC 05:0000001C 06:00000020 07:0000000A 08:000007EC 09:00000008 0A:000007B8 0B:000007D8 0C:000007D8 0D:00000001 12:00000009 13:00000008 14:00000002 15:000007D8 16:66666666 17:77777777 18:88888888 19:99999999 1A:AAAAAAAA 1B:BBBBBBBB 1C:00000001 1D:000007D4 1E:00000009 1F:00000009
058: 01C12083  LW x1, 28(x2)       00:00000000 01:000000F0 02:000006EC 05:0000001C 06:00000020 07:0000000A 08:000007EC 09:00000008 0A:000007B8 0B:000007D8 0C:000007D8 0D:00000001 12:00000009 13:00000008 14:00000002 15:000007D8 16:66666666 17:77777777 18:88888888 19:99999999 1A:AAAAAAAA 1B:BBBBBBBB 1C:00000001 1D:000007D4 1E:00000009 1F:00000009
05C: 02010113  ADDI x2, x2, 32     00:00000000 01:000000F0 02:000006EC 05:0000001C 06:00000020 07:0000000A 08:000007EC 09:00000008 0A:000007B8 0B:000007D8 0C:000007D8 0D:00000001 12:00000009 13:00000008 14:00000002 15:000007D8 16:66666666 17:77777777 18:88888888 19:99999999 1A:AAAAAAAA 1B:BBBBBBBB 1C:00000001 1D:000007D4 1E:00000009 1F:00000009
060: 00008067  JALR x0, 0(x1)      00:00000000 01:000000F0 02:0000070C 05:0000001C 06:00000020 07:0000000A 08:000007EC 09:00000008 0A:000007B8 0B:000007D8 0C:000007D8 0D:00000001 12:00000009 13:00000008 14:00000002 15:000007D8 16:66666666 17:77777777 18:88888888 19:99999999 1A:AAAAAAAA 1B:BBBBBBBB 1C:00000001 1D:000007D4 1E:00000009 1F:00000009
0F0: 00412583  LW x11, 4(x2)       00:00000000 01:000000F0 02:0000070C 05:0000001C 06:00000020 07:0000000A 08:000007EC 09:00000008 0A:000007B8 0B:000007D8 0C:000007D8 0D:00000001 12:00000009 13:00000008 14:00000002 15:000007D8 16:66666666 17:77777777 18:88888888 19:99999999 1A:AAAAAAAA 1B:BBBBBBBB 1C:00000001 1D:000007D4 1E:00000009 1F:00000009
0F4: 00012603  LW x12, 0(x2)       00:00000000 01:000000F0 02:0000070C 05:0000001C 06:00000020 07:0000000A 08:000007EC 09:00000008 0A:000007B8 0B:00000002 0C:000007D8 0D:00000001 12:00000009 13:00000008 14:00000002 15:000007D8 16:66666666 17:77777777 18:88888888 19:99999999 1A:AAAAAAAA 1B:BBBBBBBB 1C:00000001 1D:000007D4 1E:00000009 1F:00000009
0F8: 00098513  ADDI x10, x19, 0    00:00000000 01:000000F0 02:0000070C 05:0000001C 06:00000020 07:0000000A 08:000007EC 09:00000008 0A:000007B8 0B:00000002 0C:00000008 0D:00000001 12:00000009 13:00000008 14:00000002 15:000007D8 16:66666666 17:77777777 18:88888888 19:99999999 1A:AAAAAAAA 1B:BBBBBBBB 1C:00000001 1D:000007D4 1E:00000009 1F:00000009
0FC: 01812483  LW x9, 24(x2)       00:00000000 01:000000F0 02:0000070C 05:0000001C 06:00000020 07:0000000A 08:000007EC 09:00000008 0A:00000008 0B:00000002 0C:00000008 0D:00000001 12:00000009 13:00000008 14:00000002 15:000007D8 16:66666666 17:77777777 18:88888888 19:99999999 1A:AAAAAAAA 1B:BBBBBBBB 1C:00000001 1D:000007D4 1E:00000009 1F:00000009
100: 01412903  LW x18, 20(x2)      00:00000000 01:000000F0 02:0000070C 05:0000001C 06:00000020 07:0000000A 08:000007EC 09:11111111 0A:00000008 0B:00000002 0C:00000008 0D:00000001 12:00000009 13:00000008 14:00000002 15:000007D8 16:66666666 17:77777777 18:88888888 19:99999999 1A:AAAAAAAA 1B:BBBBBBBB 1C:00000001 1D:000007D4 1E:00000009 1F:00000009
104: 01012983  LW x19, 16(x2)      00:00000000 01:000000F0 02:0000070C 05:0000001C 06:00000020 07:0000000A 08:000007EC 09:11111111 0A:00000008 0B:00000002 0C:00000008 0D:00000001 12:22222222 13:00000008 14:00000002 15:000007D8 16:66666666 17:77777777 18:88888888 19:99999999 1A:AAAAAAAA 1B:BBBBBBBB 1C:00000001 1D:000007D4 1E:00000009 1F:00000009
108: 00C12A03  LW x20, 12(x2)      00:00000000 01:000000F0 02:0000070C 05:0000001C 06:00000020 07:0000000A 08:000007EC 09:11111111 0A:00000008 0B:00000002 0C:00000008 0D:00000001 12:22222222 13:33333333 14:00000002 15:000007D8 16:66666666 17:77777777 18:88888888 19:99999999 1A:AAAAAAAA 1B:BBBBBBBB 1C:00000001 1D:000007D4 1E:00000009 1F:00000009
10C: 00812A83  LW x21, 8(x2)       00:00000000 01:000000F0 02:0000070C 05:0000001C 06:00000020 07:0000000A 08:000007EC 09:11111111 0A:00000008 0B:00000002 0C:00000008 0D:00000001 12:22222222 13:33333333 14:44444444 15:000007D8 16:66666666 17:77777777 18:88888888 19:99999999 1A:AAAAAAAA 1B:BBBBBBBB 1C:00000001 1D:000007D4 1E:00000009 1F:00000009
110: 01C12083  LW x1, 28(x2)       00:00000000 01:000000F0 02:0000070C 05:0000001C 06:00000020 07:0000000A 08:000007EC 09:11111111 0A:00000008 0B:00000002 0C:00000008 0D:00000001 12:22222222 13:33333333 14:44444444 15:55555555 16:66666666 17:77777777 18:88888888 19:99999999 1A:AAAAAAAA 1B:BBBBBBBB 1C:00000001 1D:000007D4 1E:00000009 1F:00000009
114: 02010113  ADDI x2, x2, 32     00:00000000 01:00000134 02:0000070C 05:0000001C 06:00000020 07:0000000A 08:000007EC 09:11111111 0A:00000008 0B:00000002 0C:00000008 0D:00000001 12:22222222 13:33333333 14:44444444 15:55555555 16:66666666 17:77777777 18:88888888 19:99999999 1A:AAAAAAAA 1B:BBBBBBBB 1C:00000001 1D:000007D4 1E:00000009 1F:00000009
118: 00008067  JALR x0, 0(x1)      00:00000000 01:00000134 02:0000072C 05:0000001C 06:00000020 07:0000000A 08:000007EC 09:11111111 0A:00000008 0B:00000002 0C:00000008 0D:00000001 12:22222222 13:33333333 14:44444444 15:55555555 16:66666666 17:77777777 18:88888888 19:99999999 1A:AAAAAAAA 1B:BBBBBBBB 1C:00000001 1D:000007D4 1E:00000009 1F:00000009
134: 00050693  ADDI x13, x10, 0    00:00000000 01:00000134 02:0000072C 05:0000001C 06:00000020 07:0000000A 08:000007EC 09:11111111 0A:00000008 0B:00000002 0C:00000008 0D:00000001 12:22222222 13:33333333 14:44444444 15:55555555 16:66666666 17:77777777 18:88888888 19:99999999 1A:AAAAAAAA 1B:BBBBBBBB 1C:00000001 1D:000007D4 1E:00000009 1F:00000009
138: 00C12503  LW x10, 12(x2)      00:00000000 01:00000134 02:0000072C 05:0000001C 06:00000020 07:0000000A 08:000007EC 09:11111111 0A:00000008 0B:00000002 0C:00000008 0D:00000008 12:22222222 13:33333333 14:44444444 15:55555555 16:66666666 17:77777777 18:88888888 19:99999999 1A:AAAAAAAA 1B:BBBBBBBB 1C:00000001 1D:000007D4 1E:00000009 1F:00000009
13C: FFF68613  ADDI x12, x13, -1   00:00000000 01:00000134 02:0000072C 05:0000001C 06:00000020 07:0000000A 08:000007EC 09:11111111 0A:000007B8 0B:00000002 0C:00000008 0D:00000008 12:22222222 13:33333333 14:44444444 15:55555555 16:66666666 17:77777777 18:88888888 19:99999999 1A:AAAAAAAA 1B:BBBBBBBB 1C:00000001 1D:000007D4 1E:00000009 1F:00000009
140: FDDFF0EF  JAL x1, -36         00:00000000 01:00000134 02:0000072C 05:0000001C 06:00000020 07:0000000A 08:000007EC 09:11111111 0A:000007B8 0B:00000002 0C:00000007 0D:00000008 12:22222222 13:33333333 14:44444444 15:55555555 16:66666666 17:77777777 18:88888888 19:99999999 1A:AAAAAAAA 1B:BBBBBBBB 1C:00000001 1D:000007D4 1E:00000009 1F:00000009
11C: FE010113  ADDI x2, x2, -32    00:00000000 01:00000144 02:0000072C 05:0000001C 06:00000020 07:0000000A 08:000007EC 09:11111111 0A:000007B8 0B:00000002 0C:00000007 0D:00000008 12:22222222 13:33333333 14:44444444 15:55555555 16:66666666 17:77777777 18:88888888 19:99999999 1A:AAAAAAAA 1B:BBBBBBBB 1C:00000001 1D:000007D4 1E:00000009 1F:00000009
120: 00112E23  SW x1, 28(x2)       00:00000000 01:00000144 02:0000070C 05:0000001C 06:00000020 07:0000000A 08:000007EC 09:11111111 0A:000007B8 0B:00000002 0C:00000007 0D:00000008 12:22222222 13:33333333 14:44444444 15:55555555 16:66666666 17:77777777 18:88888888 19:99999999 1A:AAAAAAAA 1B:BBBBBBBB 1C:00000001 1D:000007D4 1E:00000009 1F:00000009
124: 00C12A23  SW x12, 20(x2)      00:00000000 01:00000144 02:0000070C 05:0000001C 06:00000020 07:0000000A 08:000007EC 09:11111111 0A:000007B8 0B:00000002 0C:00000007 0D:00000008 12:22222222 13:33333333 14:44444444 15:55555555 16:66666666 17:77777777 18:88888888 19:99999999 1A:AAAAAAAA 1B:BBBBBBBB 1C:00000001 1D:000007D4 1E:00000009 1F:00000009
128: 00A12623  SW x10, 12(x2)      00:00000000 01:00000144 02:0000070C 05:0000001C 06:00000020 07:0000000A 08:000007EC 09:11111111 0A:000007B8 0B:00000002 0C:00000007 0D:00000008 12:22222222 13:33333333 14:44444444 15:55555555 16:66666666 17:77777777 18:88888888 19:99999999 1A:AAAAAAAA 1B:BBBBBBBB 1C:00000001 1D:000007D4 1E:00000009 1F:00000009
12C: 02C5D463  BGE x11, x12, 40    00:00000000 01:00000144 02:0000070C 05:0000001C 06:00000020 07:0000000A 08:000007EC 09:11111111 0A:000007B8 0B:00000002 0C:00000007 0D:00000008 12:22222222 13:33333333 14:44444444 15:55555555 16:66666666 17:77777777 18:88888888 19:99999999 1A:AAAAAAAA 1B:BBBBBBBB 1C:00000001 1D:000007D4 1E:00000009 1F:00000009
130: F35FF0EF  JAL x1, -204        00:00000000 01:00000144 02:0000070C 05:0000001C 06:00000020 07:0000000A 08:000007EC 09:11111111 0A:000007B8 0B:00000002 0C:00000007 0D:00000008 12:22222222 13:33333333 14:44444444 15:55555555 16:66666666 17:77777777 18:88888888 19:99999999 1A:AAAAAAAA 1B:BBBBBBBB 1C:00000001 1D:000007D4 1E:00000009 1F:00000009
064: FE010113  ADDI x2, x2, -32    00:00000000 01:00000134 02:0000070C 05:0000001C 06:00000020 07:0000000A 08:000007EC 09:11111111 0A:000007B8 0B:00000002 0C:00000007 0D:00000008 12:22222222 13:33333333 14:44444444 15:55555555 16:66666666 17:77777777 18:88888888 19:99999999 1A:AAAAAAAA 1B:BBBBBBBB 1C:00000001 1D:000007D4 1E:00000009 1F:00000009
068: 00112E23  SW x1, 28(x2)       00:00000000 01:00000134 02:000006EC 05:0000001C 06:00000020 07:0000000A 08:000007EC 09:11111111 0A:000007B8 0B:00000002 0C:00000007 0D:00000008 12:22222222 13:33333333 14:44444444 15:55555555 16:66666666 17:77777777 18:88888888 19:99999999 1A:AAAAAAAA 1B:BBBBBBBB 1C:00000001 1D:000007D4 1E:00000009 1F:00000009
06C: 00912C23  SW x9, 24(x2)       00:00000000 01:00000134 02:000006EC 05:0000001C 06:00000020 07:0000000A 08:000007EC 09:11111111 0A:000007B8 0B:00000002 0C:00000007 0D:00000008 12:22222222 13:33333333 14:44444444 15:55555555 16:66666666 17:77777777 18:88888888 19:99999999 1A:AAAAAAAA 1B:BBBBBBBB 1C:00000001 1D:000007D4 1E:00000009 1F:00000009
070: 01212A23  SW x18, 20(x2)      00:00000000 01:00000134 02:000006EC 05:0000001C 06:00000020 07:0000000A 08:000007EC 09:11111111 0A:000007B8 0B:00000002 0C:00000007 0D:00000008 12:22222222 13:33333333 14:44444444 15:55555555 16:66666666 17:77777777 18:88888888 19:99999999 1A:AAAAAAAA 1B:BBBBBBBB 1C:00000001 1D:000007D4 1E:00000009 1F:00000009
074: 01312823  SW x19, 16(x2)      00:00000000 01:00000134 02:000006EC 05:0000001C 06:00000020 07:0000000A 08:000007EC 09:11111111 0A:000007B8 0B:00000002 0C:00000007 0D:00000008 12:22222222 13:33333333 14:44444444 15:55555555 16:66666666 17:77777777 18:88888888 19:99999999 1A:AAAAAAAA 1B:BBBBBBBB 1C:00000001 1D:000007D4 1E:00000009 1F:00000009
078: 01412623  SW x20, 12(x2)      00:00000000 01:00000134 02:000006EC 05:0000001C 06:00000020 07:0000000A 08:000007EC 09:11111111 0A:000007B8 0B:00000002 0C:00000007 0D:00000008 12:22222222 13:33333333 14:44444444 15:55555555 16:66666666 17:77777777 18:88888888 19:99999999 1A:AAAAAAAA 1B:BBBBBBBB 1C:00000001 1D:000007D4 1E:00000009 1F:00000009
07C: 01512423  SW x21, 8(x2)       00:00000000 01:00000134 02:000006EC 05:0000001C 06:00000020 07:0000000A 08:000007EC 09:11111111 0A:000007B8 0B:00000002 0C:00000007 0D:00000008 12:22222222 13:33333333 14:44444444 15:55555555 16:66666666 17:77777777 18:88888888 19:99999999 1A:AAAAAAAA 1B:BBBBBBBB 1C:00000001 1D:000007D4 1E:00000009 1F:00000009
080: 00B12223  SW x11, 4(x2)       00:00000000 01:00000134 02:000006EC 05:0000001C 06:00000020 07:0000000A 08:000007EC 09:11111111 0A:000007B8 0B:00000002 0C:00000007 0D:00000008 12:22222222 13:33333333 14:44444444 15:55555555 16:66666666 17:77777777 18:88888888 19:99999999 1A:AAAAAAAA 1B:BBBBBBBB 1C:00000001 1D:000007D4 1E:00000009 1F:00000009
084: 00C12023  SW x12, 0(x2)       00:00000000 01:00000134 02:000006EC 05:0000001C 06:00000020 07:0000000A 08:000007EC 09:11111111 0A:000007B8 0B:00000002 0C:00000007 0D:00000008 12:22222222 13:33333333 14:44444444 15:55555555 16:66666666 17:77777777 18:88888888 19:99999999 1A:AAAAAAAA 1B:BBBBBBBB 1C:00000001 1D:000007D4 1E:00000009 1F:00000009
088: 00200A13  ADDI x20, x0, 2     00:00000000 01:00000134 02:000006EC 05:0000001C 06:00000020 07:0000000A 08:000007EC 09:11111111 0A:000007B8 0B:00000002 0C:00000007 0D:00000008 12:22222222 13:33333333 14:44444444 15:55555555 16:66666666 17:77777777 18:88888888 19:99999999 1A:AAAAAAAA 1B:BBBBBBBB 1C:00000001 1D:000007D4 1E:00000009 1F:00000009
08C: 01461333  SLL x6, x12, x20    00:00000000 01:00000134 02:000006EC 05:0000001C 06:00000020 07:0000000A 08:000007EC 09:11111111 0A:000007B8 0B:00000002 0C:00000007 0D:00000008 12:22222222 13:33333333 14:00000002 15:55555555 16:66666666 17:77777777 18:88888888 19:99999999 1A:AAAAAAAA 1B:BBBBBBBB 1C:00000001 1D:000007D4 1E:00000009 1F:00000009
090: 00650AB3  ADD x21, x10, x6    00:00000000 01:00000134 02:000006EC 05:0000001C 06:0000001C 07:0000000A 08:000007EC 09:11111111 0A:000007B8 0B:00000002 0C:00000007 0D:00000008 12:22222222 13:33333333 14:00000002 15:55555555 16:66666666 17:77777777 18:88888888 19:99999999 1A:AAAAAAAA 1B:BBBBBBBB 1C:00000001 1D:000007D4 1E:00000009 1F:00000009
094: 000AA903  LW x18, 0(x21)      00:00000000 01:00000134 02:000006EC 05:0000001C 06:0000001C 07:0000000A 08:000007EC 09:11111111 0A:000007B8 0B:00000002 0C:00000007 0D:00000008 12:22222222 13:33333333 14:00000002 15:000007D4 16:66666666 17:77777777 18:88888888 19:99999999 1A:AAAAAAAA 1B:BBBBBBBB 1C:00000001 1D:000007D4 1E:00000009 1F:00000009
098: 00058493  ADDI x9, x11, 0     00:00000000 01:00000134 02:000006EC 05:0000001C 06:0000001C 07:0000000A 08:000007EC 09:11111111 0A:000007B8 0B:00000002 0C:00000007 0D:00000008 12:00000003 13:33333333 14:00000002 15:000007D4 16:66666666 17:77777777 18:88888888 19:99999999 1A:AAAAAAAA 1B:BBBBBBBB 1C:00000001 1D:000007D4 1E:00000009 1F:00000009
09C: FFF58993  ADDI x19, x11, -1   00:00000000 01:00000134 02:000006EC 05:0000001C 06:0000001C 07:0000000A 08:000007EC 09:00000002 0A:000007B8 0B:00000002 0C:00000007 0D:00000008 12:00000003 13:33333333 14:00000002 15:000007D4 16:66666666 17:77777777 18:88888888 19:99999999 1A:AAAAAAAA 1B:BBBBBBBB 1C:00000001 1D:000007D4 1E:00000009 1F:00000009
0A0: 02C4DE63  BGE x9, x12, 60     00:00000000 01:00000134 02:000006EC 05:0000001C 06:0000001C 07:0000000A 08:000007EC 09:00000002 0A:000007B8 0B:00000002 0C:00000007 0D:00000008 12:00000003 13:00000001 14:00000002 15:000007D4 16:66666666 17:77777777 18:88888888 19:99999999 1A:AAAAAAAA 1B:BBBBBBBB 1C:00000001 1D:000007D4 1E:00000009 1F:00000009
0A4: 014492B3  SLL x5, x9, x20     00:00000000 01:00000134 02:000006EC 05:0000001C 06:0000001C 07:0000000A 08:000007EC 09:00000002 0A:000007B8 0B:00000002 0C:00000007 0D:00000008 12:00000003 13:00000001 14:00000002 15:000007D4 16:66666666 17:77777777 18:88888888 19:99999999 1A:AAAAAAAA 1B:BBBBBBBB 1C:00000001 1D:000007D4 1E:00000009 1F:00000009
0A8: 00550EB3  ADD x29, x10, x5    00:00000000 01:00000134 02:000006EC 05:00000008 06:0000001C 07:0000000A 08:000007EC 09:00000002 0A:000007B8 0B:00000002 0C:00000007 0D:00000008 12:00000003 13:00000001 14:00000002 15:000007D4 16:66666666 17:77777777 18:88888888 19:99999999 1A:AAAAAAAA 1B:BBBBBBBB 1C:00000001 1D:000007D4 1E:00000009 1F:00000009
0AC: 000EAF83  LW x31, 0(x29)      00:00000000 01:00000134 02:000006EC 05:00000008 06:0000001C 07:0000000A 08:000007EC 09:00000002 0A:000007B8 0B:00000002 0C:00000007 0D:00000008 12:00000003 13:00000001 14:00000002 15:000007D4 16:66666666 17:77777777 18:88888888 19:99999999 1A:AAAAAAAA 1B:BBBBBBBB 1C:00000001 1D:000007C0 1E:00000009 1F:00000009
0B0: 032FD263  BGE x31, x18, 36    00:00000000 01:00000134 02:000006EC 05:00000008 06:0000001C 07:0000000A 08:000007EC 09:00000002 0A:000007B8 0B:00000002 0C:00000007 0D:00000008 12:00000003 13:00000001 14:00000002 15:000007D4 16:66666666 17:77777777 18:88888888 19:99999999 1A:AAAAAAAA 1B:BBBBBBBB 1C:00000001 1D:000007C0 1E:00000009 1F:00000008
0D4: 00148493  ADDI x9, x9, 1      00:00000000 01:00000134 02:000006EC 05:00000008 06:0000001C 07:0000000A 08:000007EC 09:00000002 0A:000007B8 0B:00000002 0C:00000007 0D:00000008 12:00000003 13:00000001 14:00000002 15:000007D4 16:66666666 17:77777777 18:88888888 19:99999999 1A:AAAAAAAA 1B:BBBBBBBB 1C:00000001 1D:000007C0 1E:00000009 1F:00000008
0D8: FC9FF06F  JAL x0, -56         00:00000000 01:00000134 02:000006EC 05:00000008 06:0000001C 07:0000000A 08:000007EC 09:00000003 0A:000007B8 0B:00000002 0C:00000007 0D:00000008 12:00000003 13:00000001 14:00000002 15:000007D4 16:66666666 17:77777777 18:88888888 19:99999999 1A:AAAAAAAA 1B:BBBBBBBB 1C:00000001 1D:000007C0 1E:00000009 1F:00000008
0A0: 02C4DE63  BGE x9, x12, 60     00:00000000 01:00000134 02:000006EC 05:00000008 06:0000001C 07:0000000A 08:000007EC 09:00000003 0A:000007B8 0B:00000002 0C:00000007 0D:00000008 12:00000003 13:00000001 14:00000002 15:000007D4 16:66666666 17:77777777 18:88888888 19:99999999 1A:AAAAAAAA 1B:BBBBBBBB 1C:00000001 1D:000007C0 1E:00000009 1F:00000008
0A4: 014492B3  SLL x5, x9, x20     00:00000000 01:00000134 02:000006EC 05:00000008 06:0000001C 07:0000000A 08:000007EC 09:00000003 0A:000007B8 0B:00000002 0C:00000007 0D:00000008 12:00000003 13:00000001 14:00000002 15:000007D4 16:66666666 17:77777777 18:88888888 19:99999999 1A:AAAAAAAA 1B:BBBBBBBB 1C:00000001 1D:000007C0 1E:00000009 1F:00000008
0A8: 00550EB3  ADD x29, x10, x5    00:00000000 01:00000134 02:000006EC 05:0000000C 06:0000001C 07:0000000A 08:000007EC 09:00000003 0A:000007B8 0B:00000002 0C:00000007 0D:00000008 12:00000003 13:00000001 14:00000002 15:000007D4 16:66666666 17:77777777 18:88888888 19:99999999 1A:AAAAAAAA 1B:BBBBBBBB 1C:00000001 1D:000007C0 1E:00000009 1F:00000008
0AC: 000EAF83  LW x31, 0(x29)      00:00000000 01:00000134 02:000006EC 05:0000000C 06:0000001C 07:0000000A 08:000007EC 09:00000003 0A:000007B8 0B:00000002 0C:00000007 0D:00000008 12:00000003 13:00000001 14:00000002 15:000007D4 16:66666666 17:77777777 18:88888888 19:99999999 1A:AAAAAAAA 1B:BBBBBBBB 1C:00000001 1D:000007C4 1E:00000009 1F:00000008
0B0: 032FD263  BGE x31, x18, 36    00:00000000 01:00000134 02:000006EC 05:0000000C 06:0000001C 07:0000000A 08:000007EC 09:00000003 0A:000007B8 0B:00000002 0C:00000007 0D:00000008 12:00000003 13:00000001 14:00000002 15:000007D4 16:66666666 17:77777777 18:88888888 19:99999999 1A:AAAAAAAA 1B:BBBBBBBB 1C:00000001 1D:000007C4 1E:00000009 1F:00000007
0D4: 00148493  ADDI x9, x9, 1      00:00000000 01:00000134 02:000006EC 05:0000000C 06:0000001C 07:0000000A 08:000007EC 09:00000003 0A:000007B8 0B:00000002 0C:00000007 0D:00000008 12:00000003 13:00000001 14:00000002 15:000007D4 16:66666666 17:77777777 18:88888888 19:99999999 1A:AAAAAAAA 1B:BBBBBBBB 1C:00000001 1D:000007C4 1E:00000009 1F:00000007
0D8: FC9FF06F  JAL x0, -56         00:00000000 01:00000134 02:000006EC 05:0000000C 06:0000001C 07:0000000A 08:000007EC 09:00000004 0A:000007B8 0B:00000002 0C:00000007 0D:00000008 12:00000003 13:00000001 14:00000002 15:000007D4 16:66666666 17:77777777 18:88888888 19:99999999 1A:AAAAAAAA 1B:BBBBBBBB 1C:00000001 1D:000007C4 1E:00000009 1F:00000007
0A0: 02C4DE63  BGE x9, x12, 60     00:00000000 01:00000134 02:000006EC 05:0000000C 06:0000001C 07:0000000A 08:000007EC 09:00000004 0A:000007B8 0B:00000002 0C:00000007 0D:00000008 12:00000003 13:00000001 14:00000002 15:000007D4 16:66666666 17:77777777 18:88888888 19:99999999 1A:AAAAAAAA 1B:BBBBBBBB 1C:00000001 1D:000007C4 1E:00000009 1F:00000007
0A4: 014492B3  SLL x5, x9, x20     00:00000000 01:00000134 02:000006EC 05:0000000C 06:0000001C 07:0000000A 08:000007EC 09:00000004 0A:000007B8 0B:00000002 0C:00000007 0D:00000008 12:00000003 13:00000001 14:00000002 15:000007D4 16:66666666 17:77777777 18:88888888 19:99999999 1A:AAAAAAAA 1B:BBBBBBBB 1C:00000001 1D:000007C4 1E:00000009 1F:00000007
0A8: 00550EB3  ADD x29, x10, x5    00:00000000 01:00000134 02:000006EC 05:00000010 06:0000001C 07:0000000A 08:000007EC 09:00000004 0A:000007B8 0B:00000002 0C:00000007 0D:00000008 12:00000003 13:00000001 14:00000002 15:000007D4 16:66666666 17:77777777 18:88888888 19:99999999 1A:AAAAAAAA 1B:BBBBBBBB 1C:00000001 1D:000007C4 1E:00000009 1F:00000007
0AC: 000EAF83  LW x31, 0(x29)      00:00000000 01:00000134 02:000006EC 05:00000010 06:0000001C 07:0000000A 08:000007EC 09:00000004 0A:000007B8 0B:00000002 0C:00000007 0D:00000008 12:00000003 13:00000001 14:00000002 15:000007D4 16:66666666 17:77777777 18:88888888 19:99999999 1A:AAAAAAAA 1B:BBBBBBBB 1C:00000001 1D:000007C8 1E:00000009 1F:00000007
0B0: 032FD263  BGE x31, x18, 36    00:00000000 01:00000134 02:000006EC 05:00000010 06:0000001C 07:0000000A 08:000007EC 09:00000004 0A:000007B8 0B:00000002 0C:00000007 0D:00000008 12:00000003 13:00000001 14:00000002 15:000007D4 16:66666666 17:77777777 18:88888888 19:99999999 1A:AAAAAAAA 1B:BBBBBBBB 1C:00000001 1D:000007C8 1E:00000009 1F:00000006
0D4: 00148493  ADDI x9, x9, 1      00:00000000 01:00000134 02:000006EC 05:00000010 06:0000001C 07:0000000A 08:000007EC 09:00000004 0A:000007B8 0B:00000002 0C:00000007 0D:00000008 12:00000003 13:00000001 14:00000002 15:000007D4 16:66666666 17:77777777 18:88888888 19:99999999 1A:AAAAAAAA 1B:BBBBBBBB 1C:00000001 1D:000007C8 1E:00000009 1F:00000006
0D8: FC9FF06F  JAL x0, -56         00:00000000 01:00000134 02:000006EC 05:00000010 06:0000001C 07:0000000A 08:000007EC 09:00000005 0A:000007B8 0B:00000002 0C:00000007 0D:00000008 12:00000003 13:00000001 14:00000002 15:000007D4 16:66666666 17:77777777 18:88888888 19:99999999 1A:AAAAAAAA 1B:BBBBBBBB 1C:00000001 1D:000007C8 1E:00000009 1F:00000006
0A0: 02C4DE63  BGE x9, x12, 60     00:00000000 01:00000134 02:000006EC 05:00000010 06:0000001C 07:0000000A 08:000007EC 09:00000005 0A:000007B8 0B:00000002 0C:00000007 0D:00000008 12:00000003 13:00000001 14:00000002 15:000007D4 16:66666666 17:77777777 18:88888888 19:99999999 1A:AAAAAAAA 1B:BBBBBBBB 1C:00000001 1D:000007C8 1E:00000009 1F:00000006
0A4: 014492B3  SLL x5, x9, x20     00:00000000 01:00000134 02:000006EC 05:00000010 06:0000001C 07:0000000A 08:000007EC 09:00000005 0A:000007B8 0B:00000002 0C:00000007 0D:00000008 12:00000003 13:00000001 14:00000002 15:000007D4 16:66666666 17:77777777 18:88888888 19:99999999 1A:AAAAAAAA 1B:BBBBBBBB 1C:00000001 1D:000007C8 1E:00000009 1F:00000006
0A8: 00550EB3  ADD x29, x10, x5    00:00000000 01:00000134 02:000006EC 05:00000014 06:0000001C 07:0000000A 08:000007EC 09:00000005 0A:000007B8 0B:00000002 0C:00000007 0D:00000008 12:00000003 13:00000001 14:00000002 15:000007D4 16:66666666 17:77777777 18:88888888 19:99999999 1A:AAAAAAAA 1B:BBBBBBBB 1C:00000001 1D:000007C8 1E:00000009 1F:00000006
0AC: 000EAF83  LW x31, 0(x29)      00:00000000 01:00000134 02:000006EC 05:00000014 06:0000001C 07:0000000A 08:000007EC 09:00000005 0A:000007B8 0B:00000002 0C:00000007 0D:00000008 12:00000003 13:00000001 14:00000002 15:000007D4 16:66666666 17:77777777 18:88888888 19:99999999 1A:AAAAAAAA 1B:BBBBBBBB 1C:00000001 1D:000007CC 1E:00000009 1F:00000006
0B0: 032FD263  BGE x31, x18, 36    00:00000000 01:00000134 02:000006EC 05:00000014 06:0000001C 07:0000000A 08:000007EC 09:00000005 0A:000007B8 0B:00000002 0C:00000007 0D:00000008 12:00000003 13:00000001 14:00000002 15:000007D4 16:66666666 17:77777777 18:88888888 19:99999999 1A:AAAAAAAA 1B:BBBBBBBB 1C:00000001 1D:000007CC 1E:00000009 1F:00000005
0D4: 00148493  ADDI x9, x9, 1      00:00000000 01:00000134 02:000006EC 05:00000014 06:0000001C 07:0000000A 08:000007EC 09:00000005 0A:000007B8 0B:00000002 0C:00000007 0D:00000008 12:00000003 13:00000001 14:00000002 15:000007D4 16:66666666 17:77777777 18:88888888 19:99999999 1A:AAAAAAAA 1B:BBBBBBBB 1C:00000001 1D:000007CC 1E:00000009 1F:00000005
0D8: FC9FF06F  JAL x0, -56         00:00000000 01:00000134 02:000006EC 05:00000014 06:0000001C 07:0000000A 08:000007EC 09:00000006 0A:000007B8 0B:00000002 0C:00000007 0D:00000008 12:00000003 13:00000001 14:00000002 15:000007D4 16:66666666 17:77777777 18:88888888 19:99999999 1A:AAAAAAAA 1B:BBBBBBBB 1C:00000001 1D:000007CC 1E:00000009 1F:00000005
0A0: 02C4DE63  BGE x9, x12, 60     00:00000000 01:00000134 02:000006EC 05:00000014 06:0000001C 07:0000000A 08:000007EC 09:00000006 0A:000007B8 0B:00000002 0C:00000007 0D:00000008 12:00000003 13:00000001 14:00000002 15:000007D4 16:66666666 17:77777777 18:88888888 19:99999999 1A:AAAAAAAA 1B:BBBBBBBB 1C:00000001 1D:000007CC 1E:00000009 1F:00000005
0A4: 014492B3  SLL x5, x9, x20     00:00000000 01:00000134 02:000006EC 05:00000014 06:0000001C 07:0000000A 08:000007EC 09:00000006 0A:000007B8 0B:00000002 0C:00000007 0D:00000008 12:00000003 13:00000001 14:00000002 15:000007D4 16:66666666 17:77777777 18:88888888 19:99999999 1A:AAAAAAAA 1B:BBBBBBBB 1C:00000001 1D:000007CC 1E:00000009 1F:00000005
0A8: 00550EB3  ADD x29, x10, x5    00:00000000 01:00000134 02:000006EC 05:00000018 06:0000001C 07:0000000A 08:000007EC 09:00000006 0A:000007B8 0B:00000002 0C:00000007 0D:00000008 12:00000003 13:00000001 14:00000002 15:000007D4 16:66666666 17:77777777 18:88888888 19:99999999 1A:AAAAAAAA 1B:BBBBBBBB 1C:00000001 1D:000007CC 1E:00000009 1F:00000005
0AC: 000EAF83  LW x31, 0(x29)      00:00000000 01:00000134 02:000006EC 05:00000018 06:0000001C 07:0000000A 08:000007EC 09:00000006 0A:000007B8 0B:00000002 0C:00000007 0D:00000008 12:00000003 13:00000001 14:00000002 15:000007D4 16:66666666 17:77777777 18:88888888 19:99999999 1A:AAAAAAAA 1B:BBBBBBBB 1C:00000001 1D:000007D0 1E:00000009 1F:00000005
0B0: 032FD263  BGE x31, x18, 36    00:00000000 01:00000134 02:000006EC 05:00000018 06:0000001C 07:0000000A 08:000007EC 09:00000006 0A:000007B8 0B:00000002 0C:00000007 0D:00000008 12:00000003 13:00000001 14:00000002 15:000007D4 16:66666666 17:77777777 18:88888888 19:99999999 1A:AAAAAAAA 1B:BBBBBBBB 1C:00000001 1D:000007D0 1E:00000009 1F:00000004
0D4: 00148493  ADDI x9, x9, 1      00:00000000 01:00000134 02:000006EC 05:00000018 06:0000001C 07:0000000A 08:000007EC 09:00000006 0A:000007B8 0B:00000002 0C:00000007 0D:00000008 12:00000003 13:00000001 14:00000002 15:000007D4 16:66666666 17:77777777 18:88888888 19:99999999 1A:AAAAAAAA 1B:BBBBBBBB 1C:00000001 1D:000007D0 1E:00000009 1F:00000004
0D8: FC9FF06F  JAL x0, -56         00:00000000 01:00000134 02:000006EC 05:00000018 06:0000001C 07:0000000A 08:000007EC 09:00000007 0A:000007B8 0B:00000002 0C:00000007 0D:00000008 12:00000003 13:00000001 14:00000002 15:000007D4 16:66666666 17:77777777 18:88888888 19:99999999 1A:AAAAAAAA 1B:BBBBBBBB 1C:00000001 1D:000007D0 1E:00000009 1F:00000004
0A0: 02C4DE63  BGE x9, x12, 60     00:00000000 01:00000134 02:000006EC 05:00000018 06:0000001C 07:0000000A 08:000007EC 09:00000007 0A:000007B8 0B:00000002 0C:00000007 0D:00000008 12:00000003 13:00000001 14:00000002 15:000007D4 16:66666666 17:77777777 18:88888888 19:99999999 1A:AAAAAAAA 1B:BBBBBBBB 1C:00000001 1D:000007D0 1E:00000009 1F:00000004
0DC: 00198993  ADDI x19, x19, 1    00:00000000 01:00000134 02:000006EC 05:00000018 06:0000001C 07:0000000A 08:000007EC 09:00000007 0A:000007B8 0B:00000002 0C:00000007 0D:00000008 12:00000003 13:00000001 14:00000002 15:000007D4 16:66666666 17:77777777 18:88888888 19:99999999 1A:AAAAAAAA 1B:BBBBBBBB 1C:00000001 1D:000007D0 1E:00000009 1F:00000004
0E0: 01499333  SLL x6, x19, x20    00:00000000 01:00000134 02:000006EC 05:00000018 06:0000001C 07:0000000A 08:000007EC 09:00000007 0A:000007B8 0B:00000002 0C:00000007 0D:00000008 12:00000003 13:00000002 14:00000002 15:000007D4 16:66666666 17:77777777 18:88888888 19:99999999 1A:AAAAAAAA 1B:BBBBBBBB 1C:00000001 1D:000007D0 1E:00000009 1F:00000004
0E4: 006505B3  ADD x11, x10, x6    00:00000000 01:00000134 02:000006EC 05:00000018 06:00000008 07:0000000A 08:000007EC 09:00000007 0A:000007B8 0B:00000002 0C:00000007 0D:00000008 12:00000003 13:00000002 14:00000002 15:000007D4 16:66666666 17:77777777 18:88888888 19:99999999 1A:AAAAAAAA 1B:BBBBBBBB 1C:00000001 1D:000007D0 1E:00000009 1F:00000004
0E8: 000A8613  ADDI x12, x21, 0    00:00000000 01:00000134 02:000006EC 05:00000018 06:00000008 07:0000000A 08:000007EC 09:00000007 0A:000007B8 0B:000007C0 0C:00000007 0D:00000008 12:00000003 13:00000002 14:00000002 15:000007D4 16:66666666 17:77777777 18:88888888 19:99999999 1A:AAAAAAAA 1B:BBBBBBBB 1C:00000001 1D:000007D0 1E:00000009 1F:00000004
0EC: F55FF0EF  JAL x1, -172        00:00000000 01:00000134 02:000006EC 05:00000018 06:00000008 07:0000000A 08:000007EC 09:00000007 0A:000007B8 0B:000007C0 0C:000007D4 0D:00000008 12:00000003 13:00000002 14:00000002 15:000007D4 16:66666666 17:77777777 18:88888888 19:99999999 1A:AAAAAAAA 1B:BBBBBBBB 1C:00000001 1D:000007D0 1E:00000009 1F:00000004
040: FE010113  ADDI x2, x2, -32    00:00000000 01:000000F0 02:000006EC 05:00000018 06:00000008 07:0000000A 08:000007EC 09:00000007 0A:000007B8 0B:000007C0 0C:000007D4 0D:00000008 12:00000003 13:00000002 14:00000002 15:000007D4 16:66666666 17:77777777 18:88888888 19:99999999 1A:AAAAAAAA 1B:BBBBBBBB 1C:00000001 1D:000007D0 1E:00000009 1F:00000004
044: 00112E23  SW x1, 28(x2)       00:00000000 01:000000F0 02:000006CC 05:00000018 06:00000008 07:0000000A 08:000007EC 09:00000007 0A:000007B8 0B:000007C0 0C:000007D4 0D:00000008 12:00000003 13:00000002 14:00000002 15:000007D4 16:66666666 17:77777777 18:88888888 19:99999999 1A:AAAAAAAA 1B:BBBBBBBB 1C:00000001 1D:000007D0 1E:00000009 1F:00000004
048: 0005AF03  LW x30, 0(x11)      00:00000000 01:000000F0 02:000006CC 05:00000018 06:00000008 07:0000000A 08:000007EC 09:00000007 0A:000007B8 0B:000007C0 0C:000007D4 0D:00000008 12:00000003 13:00000002 14:00000002 15:000007D4 16:66666666 17:77777777 18:88888888 19:99999999 1A:AAAAAAAA 1B:BBBBBBBB 1C:00000001 1D:000007D0 1E:00000009 1F:00000004
04C: 00062F83  LW x31, 0(x12)      00:00000000 01:000000F0 02:000006CC 05:00000018 06:00000008 07:0000000A 08:000007EC 09:00000007 0A:000007B8 0B:000007C0 0C:000007D4 0D:00000008 12:00000003 13:00000002 14:00000002 15:000007D4 16:66666666 17:77777777 18:88888888 19:99999999 1A:AAAAAAAA 1B:BBBBBBBB 1C:00000001 1D:000007D0 1E:00000008 1F:00000004
050: 01F5A023  SW x31, 0(x11)      00:00000000 01:000000F0 02:000006CC 05:00000018 06:00000008 07:0000000A 08:000007EC 09:00000007 0A:000007B8 0B:000007C0 0C:000007D4 0D:00000008 12:00000003 13:00000002 14:00000002 15:000007D4 16:66666666 17:77777777 18:88888888 19:99999999 1A:AAAAAAAA 1B:BBBBBBBB 1C:00000001 1D:000007D0 1E:00000008 1F:00000003
054: 01E62023  SW x30, 0(x12)      00:00000000 01:000000F0 02:000006CC 05:00000018 06:00000008 07:0000000A 08:000007EC 09:00000007 0A:000007B8 0B:000007C0 0C:000007D4 0D:00000008 12:00000003 13:00000002 14:00000002 15:000007D4 16:66666666 17:77777777 18:88888888 19:99999999 1A:AAAAAAAA 1B:BBBBBBBB 1C:00000001 1D:000007D0 1E:00000008 1F:00000003
058: 01C12083  LW x1, 28(x2)       00:00000000 01:000000F0 02:000006CC 05:00000018 06:00000008 07:0000000A 08:000007EC 09:00000007 0A:000007B8 0B:000007C0 0C:000007D4 0D:00000008 12:00000003 13:00000002 14:00000002 15:000007D4 16:66666666 17:77777777 18:88888888 19:99999999 1A:AAAAAAAA 1B:BBBBBBBB 1C:00000001 1D:000007D0 1E:00000008 1F:00000003
05C: 02010113  ADDI x2, x2, 32     00:00000000 01:000000F0 02:000006CC 05:00000018 06:00000008 07:0000000A 08:000007EC 09:00000007 0A:000007B8 0B:000007C0 0C:000007D4 0D:00000008 12:00000003 13:00000002 14:00000002 15:000007D4 16:66666666 17:77777777 18:88888888 19:99999999 1A:AAAAAAAA 1B:BBBBBBBB 1C:00000001 1D:000007D0 1E:00000008 1F:00000003
060: 00008067  JALR x0, 0(x1)      00:00000000 01:000000F0 02:000006EC 05:00000018 06:00000008 07:0000000A 08:000007EC 09:00000007 0A:000007B8 0B:000007C0 0C:000007D4 0D:00000008 12:00000003 13:00000002 14:00000002 15:000007D4 16:66666666 17:77777777 18:88888888 19:99999999 1A:AAAAAAAA 1B:BBBBBBBB 1C:00000001 1D:000007D0 1E:00000008 1F:00000003
0F0: 00412583  LW x11, 4(x2)       00:00000000 01:000000F0 02:000006EC 05:00000018 06:00000008 07:0000000A 08:000007EC 09:00000007 0A:000007B8 0B:000007C0 0C:000007D4 0D:00000008 12:00000003 13:00000002 14:00000002 15:000007D4 16:66666666 17:77777777 18:88888888 19:99999999 1A:AAAAAAAA 1B:BBBBBBBB 1C:00000001 1D:000007D0 1E:00000008 1F:00000003
0F4: 00012603  LW x12, 0(x2)       00:00000000 01:000000F0 02:000006EC 05:00000018 06:00000008 07:0000000A 08:000007EC 09:00000007 0A:000007B8 0B:00000002 0C:000007D4 0D:00000008 12:00000003 13:00000002 14:00000002 15:000007D4 16:66666666 17:77777777 18:88888888 19:99999999 1A:AAAAAAAA 1B:BBBBBBBB 1C:00000001 1D:000007D0 1E:00000008 1F:00000003
0F8: 00098513  ADDI x10, x19, 0    00:00000000 01:000000F0 02:000006EC 05:00000018 06:00000008 07:0000000A 08:000007EC 09:00000007 0A:000007B8 0B:00000002 0C:00000007 0D:00000008 12:00000003 13:00000002 14:00000002 15:000007D4 16:66666666 17:77777777 18:88888888 19:99999999 1A:AAAAAAAA 1B:BBBBBBBB 1C:00000001 1D:000007D0 1E:00000008 1F:00000003
0FC: 01812483  LW x9, 24(x2)       00:00000000 01:000000F0 02:000006EC 05:00000018 06:00000008 07:0000000A 08:000007EC 09:00000007 0A:00000002 0B:00000002 0C:00000007 0D:00000008 12:00000003 13:00000002 14:00000002 15:000007D4 16:66666666 17:77777777 18:88888888 19:99999999 1A:AAAAAAAA 1B:BBBBBBBB 1C:00000001 1D:000007D0 1E:00000008 1F:00000003
100: 01412903  LW x18, 20(x2)      00:00000000 01:000000F0 02:000006EC 05:00000018 06:00000008 07:0000000A 08:000007EC 09:11111111 0A:00000002 0B:00000002 0C:00000007 0D:00000008 12:00000003 13:00000002 14:00000002 15:000007D4 16:66666666 17:77777777 18:88888888 19:99999999 1A:AAAAAAAA 1B:BBBBBBBB 1C:00000001 1D:000007D0 1E:00000008 1F:00000003
104: 01012983  LW x19, 16(x2)      00:00000000 01:000000F0 02:000006EC 05:00000018 06:00000008 07:0000000A 08:000007EC 09:11111111 0A:00000002 0B:00000002 0C:00000007 0D:00000008 12:22222222 13:00000002 14:00000002 15:000007D4 16:66666666 17:77777777 18:88888888 19:99999999 1A:AAAAAAAA 1B:BBBBBBBB 1C:00000001 1D:000007D0 1E:00000008 1F:00000003
108: 00C12A03  LW x20, 12(x2)      00:00000000 01:000000F0 02:000006EC 05:00000018 06:00000008 07:0000000A 08:000007EC 09:11111111 0A:00000002 0B:00000002 0C:00000007 0D:00000008 12:22222222 13:33333333 14:00000002 15:000007D4 16:66666666 17:77777777 18:88888888 19:99999999 1A:AAAAAAAA 1B:BBBBBBBB 1C:00000001 1D:000007D0 1E:00000008 1F:00000003
10C: 00812A83  LW x21, 8(x2)       00:00000000 01:000000F0 02:000006EC 05:00000018 06:00000008 07:0000000A 08:000007EC 09:11111111 0A:00000002 0B:00000002 0C:00000007 0D:00000008 12:22222222 13:33333333 14:44444444 15:000007D4 16:66666666 17:77777777 18:88888888 19:99999999 1A:AAAAAAAA 1B:BBBBBBBB 1C:00000001 1D:000007D0 1E:00000008 1F:00000003
110: 01C12083  LW x1, 28(x2)       00:00000000 01:000000F0 02:000006EC 05:00000018 06:00000008 07:0000000A 08:000007EC 09:11111111 0A:00000002 0B:00000002 0C:00000007 0D:00000008 12:22222222 13:33333333 14:44444444 15:55555555 16:66666666 17:77777777 18:88888888 19:99999999 1A:AAAAAAAA 1B:BBBBBBBB 1C:00000001 1D:000007D0 1E:00000008 1F:00000003
114: 02010113  ADDI x2, x2, 32     00:00000000 01:00000134 02:000006EC 05:00000018 06:00000008 07:0000000A 08:000007EC 09:11111111 0A:00000002 0B:00000002 0C:00000007 0D:00000008 12:22222222 13:33333333 14:44444444 15:55555555 16:66666666 17:77777777 18:88888888 19:99999999 1A:AAAAAAAA 1B:BBBBBBBB 1C:00000001 1D:000007D0 1E:00000008 1F:00000003
118: 00008067  JALR x0, 0(x1)      00:00000000 01:00000134 02:0000070C 05:00000018 06:00000008 07:0000000A 08:000007EC 09:11111111 0A:00000002 0B:00000002 0C:00000007 0D:00000008 12:22222222 13:33333333 14:44444444 15:55555555 16:66666666 17:77777777 18:88888888 19:99999999 1A:AAAAAAAA 1B:BBBBBBBB 1C:00000001 1D:000007D0 1E:00000008 1F:00000003
134: 00050693  ADDI x13, x10, 0    00:00000000 01:00000134 02:0000070C 05:00000018 06:00000008 07:0000000A 08:000007EC 09:11111111 0A:00000002 0B:00000002 0C:00000007 0D:00000008 12:22222222 13:33333333 14:44444444 15:55555555 16:66666666 17:77777777 18:88888888 19:99999999 1A:AAAAAAAA 1B:BBBBBBBB 1C:00000001 1D:000007D0 1E:00000008 1F:00000003
138: 00C12503  LW x10, 12(x2)      00:00000000 01:00000134 02:0000070C 05:00000018 06:00000008 07:0000000A 08:000007EC 09:11111111 0A:00000002 0B:00000002 0C:00000007 0D:00000002 12:22222222 13:33333333 14:44444444 15:55555555 16:66666666 17:77777777 18:88888888 19:99999999 1A:AAAAAAAA 1B:BBBBBBBB 1C:00000001 1D:000007D0 1E:00000008 1F:00000003
13C: FFF68613  ADDI x12, x13, -1   00:00000000 01:00000134 02:0000070C 05:00000018 06:00000008 07:0000000A 08:000007EC 09:11111111 0A:000007B8 0B:00000002 0C:00000007 0D:00000002 12:22222222 13:33333333 14:44444444 15:55555555 16:66666666 17:77777777 18:88888888 19:99999999 1A:AAAAAAAA 1B:BBBBBBBB 1C:00000001 1D:000007D0 1E:00000008 1F:00000003
140: FDDFF0EF  JAL x1, -36         00:00000000 01:00000134 02:0000070C 05:00000018 06:00000008 07:0000000A 08:000007EC 09:11111111 0A:000007B8 0B:00000002 0C:00000001 0D:00000002 12:22222222 13:33333333 14:44444444 15:55555555 16:66666666 17:77777777 18:88888888 19:99999999 1A:AAAAAAAA 1B:BBBBBBBB 1C:00000001 1D:000007D0 1E:00000008 1F:00000003
11C: FE010113  ADDI x2, x2, -32    00:00000000 01:00000144 02:0000070C 05:00000018 06:00000008 07:0000000A 08:000007EC 09:11111111 0A:000007B8 0B:00000002 0C:00000001 0D:00000002 12:22222222 13:33333333 14:44444444 15:55555555 16:66666666 17:77777777 18:88888888 19:99999999 1A:AAAAAAAA 1B:BBBBBBBB 1C:00000001 1D:000007D0 1E:00000008 1F:00000003
120: 00112E23  SW x1, 28(x2)       00:00000000 01:00000144 02:000006EC 05:00000018 06:00000008 07:0000000A 08:000007EC 09:11111111 0A:000007B8 0B:00000002 0C:00000001 0D:00000002 12:22222222 13:33333333 14:44444444 15:55555555 16:66666666 17:77777777 18:88888888 19:99999999 1A:AAAAAAAA 1B:BBBBBBBB 1C:00000001 1D:000007D0 1E:00000008 1F:00000003
124: 00C12A23  SW x12, 20(x2)      00:00000000 01:00000144 02:000006EC 05:00000018 06:00000008 07:0000000A 08:000007EC 09:11111111 0A:000007B8 0B:00000002 0C:00000001 0D:00000002 12:22222222 13:33333333 14:44444444 15:55555555 16:66666666 17:77777777 18:88888888 19:99999999 1A:AAAAAAAA 1B:BBBBBBBB 1C:00000001 1D:000007D0 1E:00000008 1F:00000003
128: 00A12623  SW x10, 12(x2)      00:00000000 01:00000144 02:000006EC 05:00000018 06:00000008 07:0000000A 08:000007EC 09:11111111 0A:000007B8 0B:00000002 0C:00000001 0D:00000002 12:22222222 13:33333333 14:44444444 15:55555555 16:66666666 17:77777777 18:88888888 19:99999999 1A:AAAAAAAA 1B:BBBBBBBB 1C:00000001 1D:000007D0 1E:00000008 1F:00000003
12C: 02C5D463  BGE x11, x12, 40    00:00000000 01:00000144 02:000006EC 05:00000018 06:00000008 07:0000000A 08:000007EC 09:11111111 0A:000007B8 0B:00000002 0C:00000001 0D:00000002 12:22222222 13:33333333 14:44444444 15:55555555 16:66666666 17:77777777 18:88888888 19:99999999 1A:AAAAAAAA 1B:BBBBBBBB 1C:00000001 1D:000007D0 1E:00000008 1F:00000003
154: 01C12083  LW x1, 28(x2)       00:00000000 01:00000144 02:000006EC 05:00000018 06:00000008 07:0000000A 08:000007EC 09:11111111 0A:000007B8 0B:00000002 0C:00000001 0D:00000002 12:22222222 13:33333333 14:44444444 15:55555555 16:66666666 17:77777777 18:88888888 19:99999999 1A:AAAAAAAA 1B:BBBBBBBB 1C:00000001 1D:000007D0 1E:00000008 1F:00000003
158: 02010113  ADDI x2, x2, 32     00:00000000 01:00000144 02:000006EC 05:00000018 06:00000008 07:0000000A 08:000007EC 09:11111111 0A:000007B8 0B:00000002 0C:00000001 0D:00000002 12:22222222 13:33333333 14:44444444 15:55555555 16:66666666 17:77777777 18:88888888 19:99999999 1A:AAAAAAAA 1B:BBBBBBBB 1C:00000001 1D:000007D0 1E:00000008 1F:00000003
15C: 00008067  JALR x0, 0(x1)      00:00000000 01:00000144 02:0000070C 05:00000018 06:00000008 07:0000000A 08:000007EC 09:11111111 0A:000007B8 0B:00000002 0C:00000001 0D:00000002 12:22222222 13:33333333 14:44444444 15:55555555 16:66666666 17:77777777 18:88888888 19:99999999 1A:AAAAAAAA 1B:BBBBBBBB 1C:00000001 1D:000007D0 1E:00000008 1F:00000003
144: 00168593  ADDI x11, x13, 1    00:00000000 01:00000144 02:0000070C 05:00000018 06:00000008 07:0000000A 08:000007EC 09:11111111 0A:000007B8 0B:00000002 0C:00000001 0D:00000002 12:22222222 13:33333333 14:44444444 15:55555555 16:66666666 17:77777777 18:88888888 19:99999999 1A:AAAAAAAA 1B:BBBBBBBB 1C:00000001 1D:000007D0 1E:00000008 1F:00000003
148: 01412603  LW x12, 20(x2)      00:00000000 01:00000144 02:0000070C 05:00000018 06:00000008 07:0000000A 08:000007EC 09:11111111 0A:000007B8 0B:00000003 0C:00000001 0D:00000002 12:22222222 13:33333333 14:44444444 15:55555555 16:66666666 17:77777777 18:88888888 19:99999999 1A:AAAAAAAA 1B:BBBBBBBB 1C:00000001 1D:000007D0 1E:00000008 1F:00000003
14C: FD1FF0EF  JAL x1, -48         00:00000000 01:00000144 02:0000070C 05:00000018 06:00000008 07:0000000A 08:000007EC 09:11111111 0A:000007B8 0B:00000003 0C:00000007 0D:00000002 12:22222222 13:33333333 14:44444444 15:55555555 16:66666666 17:77777777 18:88888888 19:99999999 1A:AAAAAAAA 1B:BBBBBBBB 1C:00000001 1D:000007D0 1E:00000008 1F:00000003
11C: FE010113  ADDI x2, x2, -32    00:00000000 01:00000150 02:0000070C 05:00000018 06:00000008 07:0000000A 08:000007EC 09:11111111 0A:000007B8 0B:00000003 0C:00000007 0D:00000002 12:22222222 13:33333333 14:44444444 15:55555555 16:66666666 17:77777777 18:88888888 19:99999999 1A:AAAAAAAA 1B:BBBBBBBB 1C:00000001 1D:000007D0 1E:00000008 1F:00000003
120: 00112E23  SW x1, 28(x2)       00:00000000 01:00000150 02:000006EC 05:00000018 06:00000008 07:0000000A 08:000007EC 09:11111111 0A:000007B8 0B:00000003 0C:00000007 0D:00000002 12:22222222 13:33333333 14:44444444 15:55555555 16:66666666 17:77777777 18:88888888 19:99999999 1A:AAAAAAAA 1B:BBBBBBBB 1C:00000001 1D:000007D0 1E:00000008 1F:00000003
124: 00C12A23  SW x12, 20(x2)      00:00000000 01:00000150 02:000006EC 05:00000018 06:00000008 07:0000000A 08:000007EC 09:11111111 0A:000007B8 0B:00000003 0C:00000007 0D:00000002 12:22222222 13:33333333 14:44444444 15:55555555 16:66666666 17:77777777 18:88888888 19:99999999 1A:AAAAAAAA 1B:BBBBBBBB 1C:00000001 1D:000007D0 1E:00000008 1F:00000003
128: 00A12623  SW x10, 12(x2)      00:00000000 01:00000150 02:000006EC 05:00000018 06:00000008 07:0000000A 08:000007EC 09:11111111 0A:000007B8 0B:00000003 0C:00000007 0D:00000002 12:22222222 13:33333333 14:44444444 15:55555555 16:66666666 17:77777777 18:88888888 19:99999999 1A:AAAAAAAA 1B:BBBBBBBB 1C:00000001 1D:000007D0 1E:00000008 1F:00000003
12C: 02C5D463  BGE x11, x12, 40    00:00000000 01:00000150 02:000006EC 05:00000018 06:00000008 07:0000000A 08:000007EC 09:11111111 0A:000007B8 0B:00000003 0C:00000007 0D:00000002 12:22222222 13:33333333 14:44444444 15:55555555 16:66666666 17:77777777 18:88888888 19:99999999 1A:AAAAAAAA 1B:BBBBBBBB 1C:00000001 1D:000007D0 1E:00000008 1F:00000003
130: F35FF0EF  JAL x1, -204        00:00000000 01:00000150 02:000006EC 05:00000018 06:00000008 07:0000000A 08:000007EC 09:11111111 0A:000007B8 0B:00000003 0C:00000007 0D:00000002 12:22222222 13:33333333 14:44444444 15:55555555 16:66666666 17:77777777 18:88888888 19:99999999 1A:AAAAAAAA 1B:BBBBBBBB 1C:00000001 1D:000007D0 1E:00000008 1F:00000003
064: FE010113  ADDI x2, x2, -32    00:00000000 01:00000134 02:000006EC 05:00000018 06:00000008 07:0000000A 08:000007EC 09:11111111 0A:000007B8 0B:00000003 0C:00000007 0D:00000002 12:22222222 13:33333333 14:44444444 15:55555555 16:66666666 17:77777777 18:88888888 19:99999999 1A:AAAAAAAA 1B:BBBBBBBB 1C:00000001 1D:000007D0 1E:00000008 1F:00000003
068: 00112E23  SW x1, 28(x2)       00:00000000 01:00000134 02:000006CC 05:00000018 06:00000008 07:0000000A 08:000007EC 09:11111111 0A:000007B8 0B:00000003 0C:00000007 0D:00000002 12:22222222 13:33333333 14:44444444 15:55555555 16:66666666 17:77777777 18:88888888 19:99999999 1A:AAAAAAAA 1B:BBBBBBBB 1C:00000001 1D:000007D0 1E:00000008 1F:00000003
06C: 00912C23  SW x9, 24(x2)       00:00000000 01:00000134 02:000006CC 05:00000018 06:00000008 07:0000000A 08:000007EC 09:11111111 0A:000007B8 0B:00000003 0C:00000007 0D:00000002 12:22222222 13:33333333 14:44444444 15:55555555 16:66666666 17:77777777 18:88888888 19:99999999 1A:AAAAAAAA 1B:BBBBBBBB 1C:00000001 1D:000007D0 1E:00000008 1F:00000003
070: 01212A23  SW x18, 20(x2)      00:00000000 01:00000134 02:000006CC 05:00000018 06:00000008 07:0000000A 08:000007EC 09:11111111 0A:000007B8 0B:00000003 0C:00000007 0D:00000002 12:22222222 13:33333333 14:44444444 15:55555555 16:66666666 17:77777777 18:88888888 19:99999999 1A:AAAAAAAA 1B:BBBBBBBB 1C:00000001 1D:000007D0 1E:00000008 1F:00000003
074: 01312823  SW x19, 16(x2)      00:00000000 01:00000134 02:000006CC 05:00000018 06:00000008 07:0000000A 08:000007EC 09:11111111 0A:000007B8 0B:00000003 0C:00000007 0D:00000002 12:22222222 13:33333333 14:44444444 15:55555555 16:66666666 17:77777777 18:88888888 19:99999999 1A:AAAAAAAA 1B:BBBBBBBB 1C:00000001 1D:000007D0 1E:00000008 1F:00000003
078: 01412623  SW x20, 12(x2)      00:00000000 01:00000134 02:000006CC 05:00000018 06:00000008 07:0000000A 08:000007EC 09:11111111 0A:000007B8 0B:00000003 0C:00000007 0D:00000002 12:22222222 13:33333333 14:44444444 15:55555555 16:66666666 17:77777777 18:88888888 19:99999999 1A:AAAAAAAA 1B:BBBBBBBB 1C:00000001 1D:000007D0 1E:00000008 1F:00000003
07C: 01512423  SW x21, 8(x2)       00:00000000 01:00000134 02:000006CC 05:00000018 06:00000008 07:0000000A 08:000007EC 09:11111111 0A:000007B8 0B:00000003 0C:00000007 0D:00000002 12:22222222 13:33333333 14:44444444 15:55555555 16:66666666 17:77777777 18:88888888 19:99999999 1A:AAAAAAAA 1B:BBBBBBBB 1C:00000001 1D:000007D0 1E:00000008 1F:00000003
080: 00B12223  SW x11, 4(x2)       00:00000000 01:00000134 02:000006CC 05:00000018 06:00000008 07:0000000A 08:000007EC 09:11111111 0A:000007B8 0B:00000003 0C:00000007 0D:00000002 12:22222222 13:33333333 14:44444444 15:55555555 16:66666666 17:77777777 18:88888888 19:99999999 1A:AAAAAAAA 1B:BBBBBBBB 1C:00000001 1D:000007D0 1E:00000008 1F:00000003
084: 00C12023  SW x12, 0(x2)       00:00000000 01:00000134 02:000006CC 05:00000018 06:00000008 07:0000000A 08:000007EC 09:11111111 0A:000007B8 0B:00000003 0C:00000007 0D:00000002 12:22222222 13:33333333 14:44444444 15:55555555 16:66666666 17:77777777 18:88888888 19:99999999 1A:AAAAAAAA 1B:BBBBBBBB 1C:00000001 1D:000007D0 1E:00000008 1F:00000003
088: 00200A13  ADDI x20, x0, 2     00:00000000 01:00000134 02:000006CC 05:00000018 06:00000008 07:0000000A 08:000007EC 09:11111111 0A:000007B8 0B:00000003 0C:00000007 0D:00000002 12:22222222 13:33333333 14:44444444 15:55555555 16:66666666 17:77777777 18:88888888 19:99999999 1A:AAAAAAAA 1B:BBBBBBBB 1C:00000001 1D:000007D0 1E:00000008 1F:00000003
08C: 01461333  SLL x6, x12, x20    00:00000000 01:00000134 02:000006CC 05:00000018 06:00000008 07:0000000A 08:000007EC 09:11111111 0A:000007B8 0B:00000003 0C:00000007 0D:00000002 12:22222222 13:33333333 14:00000002 15:55555555 16:66666666 17:77777777 18:88888888 19:99999999 1A:AAAAAAAA 1B:BBBBBBBB 1C:00000001 1D:000007D0 1E:00000008 1F:00000003
090: 00650AB3  ADD x21, x10, x6    00:00000000 01:00000134 02:000006CC 05:00000018 06:0000001C 07:0000000A 08:000007EC 09:11111111 0A:000007B8 0B:00000003 0C:00000007 0D:00000002 12:22222222 13:33333333 14:00000002 15:55555555 16:66666666 17:77777777 18:88888888 19:99999999 1A:AAAAAAAA 1B:BBBBBBBB 1C:00000001 1D:000007D0 1E:00000008 1F:00000003
094: 000AA903  LW x18, 0(x21)      00:00000000 01:00000134 02:000006CC 05:00000018 06:0000001C 07:0000000A 08:000007EC 09:11111111 0A:000007B8 0B:00000003 0C:00000007 0D:00000002 12:22222222 13:33333333 14:00000002 15:000007D4 16:66666666 17:77777777 18:88888888 19:99999999 1A:AAAAAAAA 1B:BBBBBBBB 1C:00000001 1D:000007D0 1E:00000008 1F:00000003
098: 00058493  ADDI x9, x11, 0     00:00000000 01:00000134 02:000006CC 05:00000018 06:0000001C 07:0000000A 08:000007EC 09:11111111 0A:000007B8 0B:00000003 0C:00000007 0D:00000002 12:00000008 13:33333333 14:00000002 15:000007D4 16:66666666 17:77777777 18:88888888 19:99999999 1A:AAAAAAAA 1B:BBBBBBBB 1C:00000001 1D:000007D0 1E:00000008 1F:00000003
09C: FFF58993  ADDI x19, x11, -1   00:00000000 01:00000134 02:000006CC 05:00000018 06:0000001C 07:0000000A 08:000007EC 09:00000003 0A:000007B8 0B:00000003 0C:00000007 0D:00000002 12:00000008 13:33333333 14:00000002 15:000007D4 16:66666666 17:77777777 18:88888888 19:99999999 1A:AAAAAAAA 1B:BBBBBBBB 1C:00000001 1D:000007D0 1E:00000008 1F:00000003
0A0: 02C4DE63  BGE x9, x12, 60     00:00000000 01:00000134 02:000006CC 05:00000018 06:0000001C 07:0000000A 08:000007EC 09:00000003 0A:000007B8 0B:00000003 0C:00000007 0D:00000002 12:00000008 13:00000002 14:00000002 15:000007D4 16:66666666 17:77777777 18:88888888 19:99999999 1A:AAAAAAAA 1B:BBBBBBBB 1C:00000001 1D:000007D0 1E:00000008 1F:00000003
0A4: 014492B3  SLL x5, x9, x20     00:00000000 01:00000134 02:000006CC 05:00000018 06:0000001C 07:0000000A 08:000007EC 09:00000003 0A:000007B8 0B:00000003 0C:00000007 0D:00000002 12:00000008 13:00000002 14:00000002 15:000007D4 16:66666666 17:77777777 18:88888888 19:99999999 1A:AAAAAAAA 1B:BBBBBBBB 1C:00000001 1D:000007D0 1E:00000008 1F:00000003
0A8: 00550EB3  ADD x29, x10, x5    00:00000000 01:00000134 02:000006CC 05:0000000C 06:0000001C 07:0000000A 08:000007EC 09:00000003 0A:000007B8 0B:00000003 0C:00000007 0D:00000002 12:00000008 13:00000002 14:00000002 15:000007D4 16:66666666 17:77777777 18:88888888 19:99999999 1A:AAAAAAAA 1B:BBBBBBBB 1C:00000001 1D:000007D0 1E:00000008 1F:00000003
0AC: 000EAF83  LW x31, 0(x29)      00:00000000 01:00000134 02:000006CC 05:0000000C 06:0000001C 07:0000000A 08:000007EC 09:00000003 0A:000007B8 0B:00000003 0C:00000007 0D:00000002 12:00000008 13:00000002 14:00000002 15:000007D4 16:66666666 17:77777777 18:88888888 19:99999999 1A:AAAAAAAA 1B:BBBBBBBB 1C:00000001 1D:000007C4 1E:00000008 1F:00000003
0B0: 032FD263  BGE x31, x18, 36    00:00000000 01:00000134 02:000006CC 05:0000000C 06:0000001C 07:0000000A 08:000007EC 09:00000003 0A:000007B8 0B:00000003 0C:00000007 0D:00000002 12:00000008 13:00000002 14:00000002 15:000007D4 16:66666666 17:77777777 18:88888888 19:99999999 1A:AAAAAAAA 1B:BBBBBBBB 1C:00000001 1D:000007C4 1E:00000008 1F:00000007
0B4: 00198993  ADDI x19, x19, 1    00:00000000 01:00000134 02:000006CC 05:0000000C 06:0000001C 07:0000000A 08:000007EC 09:00000003 0A:000007B8 0B:00000003 0C:00000007 0D:00000002 12:00000008 13:00000002 14:00000002 15:000007D4 16:66666666 17:77777777 18:88888888 19:99999999 1A:AAAAAAAA 1B:BBBBBBBB 1C:00000001 1D:000007C4 1E:00000008 1F:00000007
0B8: 01499333  SLL x6, x19, x20    00:00000000 01:00000134 02:000006CC 05:0000000C 06:0000001C 07:0000000A 08:000007EC 09:00000003 0A:000007B8 0B:00000003 0C:00000007 0D:00000002 12:00000008 13:00000003 14:00000002 15:000007D4 16:66666666 17:77777777 18:88888888 19:99999999 1A:AAAAAAAA 1B:BBBBBBBB 1C:00000001 1D:000007C4 1E:00000008 1F:00000007
0BC: 006505B3  ADD x11, x10, x6    00:00000000 01:00000134 02:000006CC 05:0000000C 06:0000000C 07:0000000A 08:000007EC 09:00000003 0A:000007B8 0B:00000003 0C:00000007 0D:00000002 12:00000008 13:00000003 14:00000002 15:000007D4 16:66666666 17:77777777 18:88888888 19:99999999 1A:AAAAAAAA 1B:BBBBBBBB 1C:00000001 1D:000007C4 1E:00000008 1F:00000007
0C0: 000E8613  ADDI x12, x29, 0    00:00000000 01:00000134 02:000006CC 05:0000000C 06:0000000C 07:0000000A 08:000007EC 09:00000003 0A:000007B8 0B:000007C4 0C:00000007 0D:00000002 12:00000008 13:00000003 14:00000002 15:000007D4 16:66666666 17:77777777 18:88888888 19:99999999 1A:AAAAAAAA 1B:BBBBBBBB 1C:00000001 1D:000007C4 1E:00000008 1F:00000007
0C4: F7DFF0EF  JAL x1, -132        00:00000000 01:00000134 02:000006CC 05:0000000C 06:0000000C 07:0000000A 08:000007EC 09:00000003 0A:000007B8 0B:000007C4 0C:000007C4 0D:00000002 12:00000008 13:00000003 14:00000002 15:000007D4 16:66666666 17:77777777 18:88888888 19:99999999 1A:AAAAAAAA 1B:BBBBBBBB 1C:00000001 1D:000007C4 1E:00000008 1F:00000007
040: FE010113  ADDI x2, x2, -32    00:00000000 01:000000C8 02:000006CC 05:0000000C 06:0000000C 07:0000000A 08:000007EC 09:00000003 0A:000007B8 0B:000007C4 0C:000007C4 0D:00000002 12:00000008 13:00000003 14:00000002 15:000007D4 16:66666666 17:77777777 18:88888888 19:99999999 1A:AAAAAAAA 1B:BBBBBBBB 1C:00000001 1D:000007C4 1E:00000008 1F:00000007
044: 00112E23  SW x1, 28(x2)       00:00000000 01:000000C8 02:000006AC 05:0000000C 06:0000000C 07:0000000A 08:000007EC 09:00000003 0A:000007B8 0B:000007C4 0C:000007C4 0D:00000002 12:00000008 13:00000003 14:00000002 15:000007D4 16:66666666 17:77777777 18:88888888 19:99999999 1A:AAAAAAAA 1B:BBBBBBBB 1C:00000001 1D:000007C4 1E:00000008 1F:00000007
048: 0005AF03  LW x30, 0(x11)      00:00000000 01:000000C8 02:000006AC 05:0000000C 06:0000000C 07:0000000A 08:000007EC 09:00000003 0A:000007B8 0B:000007C4 0C:000007C4 0D:00000002 12:00000008 13:00000003 14:00000002 15:000007D4 16:66666666 17:77777777 18:88888888 19:99999999 1A:AAAAAAAA 1B:BBBBBBBB 1C:00000001 1D:000007C4 1E:00000008 1F:00000007
04C: 00062F83  LW x31, 0(x12)      00:00000000 01:000000C8 02:000006AC 05:0000000C 06:0000000C 07:0000000A 08:000007EC 09:00000003 0A:000007B8 0B:000007C4 0C:000007C4 0D:00000002 12:00000008 13:00000003 14:00000002 15:000007D4 16:66666666 17:77777777 18:88888888 19:99999999 1A:AAAAAAAA 1B:BBBBBBBB 1C:00000001 1D:000007C4 1E:00000007 1F:00000007
050: 01F5A023  SW x31, 0(x11)      00:00000000 01:000000C8 02:000006AC 05:0000000C 06:0000000C 07:0000000A 08:000007EC 09:00000003 0A:000007B8 0B:000007C4 0C:000007C4 0D:00000002 12:00000008 13:00000003 14:00000002 15:000007D4 16:66666666 17:77777777 18:88888888 19:99999999 1A:AAAAAAAA 1B:BBBBBBBB 1C:00000001 1D:000007C4 1E:00000007 1F:00000007
054: 01E62023  SW x30, 0(x12)      00:00000000 01:000000C8 02:000006AC 05:0000000C 06:0000000C 07:0000000A 08:000007EC 09:00000003 0A:000007B8 0B:000007C4 0C:000007C4 0D:00000002 12:00000008 13:00000003 14:00000002 15:000007D4 16:66666666 17:77777777 18:88888888 19:99999999 1A:AAAAAAAA 1B:BBBBBBBB 1C:00000001 1D:000007C4 1E:00000007 1F:00000007
058: 01C12083  LW x1, 28(x2)       00:00000000 01:000000C8 02:000006AC 05:0000000C 06:0000000C 07:0000000A 08:000007EC 09:00000003 0A:000007B8 0B:000007C4 0C:000007C4 0D:00000002 12:00000008 13:00000003 14:00000002 15:000007D4 16:66666666 17:77777777 18:88888888 19:99999999 1A:AAAAAAAA 1B:BBBBBBBB 1C:00000001 1D:000007C4 1E:00000007 1F:00000007
05C: 02010113  ADDI x2, x2, 32     00:00000000 01:000000C8 02:000006AC 05:0000000C 06:0000000C 07:0000000A 08:000007EC 09:00000003 0A:000007B8 0B:000007C4 0C:000007C4 0D:00000002 12:00000008 13:00000003 14:00000002 15:000007D4 16:66666666 17:77777777 18:88888888 19:99999999 1A:AAAAAAAA 1B:BBBBBBBB 1C:00000001 1D:000007C4 1E:00000007 1F:00000007
060: 00008067  JALR x0, 0(x1)      00:00000000 01:000000C8 02:000006CC 05:0000000C 06:0000000C 07:0000000A 08:000007EC 09:00000003 0A:000007B8 0B:000007C4 0C:000007C4 0D:00000002 12:00000008 13:00000003 14:00000002 15:000007D4 16:66666666 17:77777777 18:88888888 19:99999999 1A:AAAAAAAA 1B:BBBBBBBB 1C:00000001 1D:000007C4 1E:00000007 1F:00000007
0C8: 00412583  LW x11, 4(x2)       00:00000000 01:000000C8 02:000006CC 05:0000000C 06:0000000C 07:0000000A 08:000007EC 09:00000003 0A:000007B8 0B:000007C4 0C:000007C4 0D:00000002 12:00000008 13:00000003 14:00000002 15:000007D4 16:66666666 17:77777777 18:88888888 19:99999999 1A:AAAAAAAA 1B:BBBBBBBB 1C:00000001 1D:000007C4 1E:00000007 1F:00000007
0CC: 00012603  LW x12, 0(x2)       00:00000000 01:000000C8 02:000006CC 05:0000000C 06:0000000C 07:0000000A 08:000007EC 09:00000003 0A:000007B8 0B:00000003 0C:000007C4 0D:00000002 12:00000008 13:00000003 14:00000002 15:000007D4 16:66666666 17:77777777 18:88888888 19:99999999 1A:AAAAAAAA 1B:BBBBBBBB 1C:00000001 1D:000007C4 1E:00000007 1F:00000007
0D0: 0040006F  JAL x0, 4           00:00000000 01:000000C8 02:000006CC 05:0000000C 06:0000000C 07:0000000A 08:000007EC 09:00000003 0A:000007B8 0B:00000003 0C:00000007 0D:00000002 12:00000008 13:00000003 14:00000002 15:000007D4 16:66666666 17:77777777 18:88888888 19:99999999 1A:AAAAAAAA 1B:BBBBBBBB 1C:00000001 1D:000007C4 1E:00000007 1F:00000007
0D4: 00148493  ADDI x9, x9, 1      00:00000000 01:000000C8 02:000006CC 05:0000000C 06:0000000C 07:0000000A 08:000007EC 09:00000003 0A:000007B8 0B:00000003 0C:00000007 0D:00000002 12:00000008 13:00000003 14:00000002 15:000007D4 16:66666666 17:77777777 18:88888888 19:99999999 1A:AAAAAAAA 1B:BBBBBBBB 1C:00000001 1D:000007C4 1E:00000007 1F:00000007
0D8: FC9FF06F  JAL x0, -56         00:00000000 01:000000C8 02:000006CC 05:0000000C 06:0000000C 07:0000000A 08:000007EC 09:00000004 0A:000007B8 0B:00000003 0C:00000007 0D:00000002 12:00000008 13:00000003 14:00000002 15:000007D4 16:66666666 17:77777777 18:88888888 19:99999999 1A:AAAAAAAA 1B:BBBBBBBB 1C:00000001 1D:000007C4 1E:00000007 1F:00000007
0A0: 02C4DE63  BGE x9, x12, 60     00:00000000 01:000000C8 02:000006CC 05:0000000C 06:0000000C 07:0000000A 08:000007EC 09:00000004 0A:000007B8 0B:00000003 0C:00000007 0D:00000002 12:00000008 13:00000003 14:00000002 15:000007D4 16:66666666 17:77777777 18:88888888 19:99999999 1A:AAAAAAAA 1B:BBBBBBBB 1C:00000001 1D:000007C4 1E:00000007 1F:00000007
0A4: 014492B3  SLL x5, x9, x20     00:00000000 01:000000C8 02:000006CC 05:0000000C 06:0000000C 07:0000000A 08:000007EC 09:00000004 0A:000007B8 0B:00000003 0C:00000007 0D:00000002 12:00000008 13:00000003 14:00000002 15:000007D4 16:66666666 17:77777777 18:88888888 19:99999999 1A:AAAAAAAA 1B:BBBBBBBB 1C:00000001 1D:000007C4 1E:00000007 1F:00000007
0A8: 00550EB3  ADD x29, x10, x5    00:00000000 01:000000C8 02:000006CC 05:00000010 06:0000000C 07:0000000A 08:000007EC 09:00000004 0A:000007B8 0B:00000003 0C:00000007 0D:00000002 12:00000008 13:00000003 14:00000002 15:000007D4 16:66666666 17:77777777 18:88888888 19:99999999 1A:AAAAAAAA 1B:BBBBBBBB 1C:00000001 1D:000007C4 1E:00000007 1F:00000007
0AC: 000EAF83  LW x31, 0(x29)      00:00000000 01:000000C8 02:000006CC 05:00000010 06:0000000C 07:0000000A 08:000007EC 09:00000004 0A:000007B8 0B:00000003 0C:00000007 0D:00000002 12:00000008 13:00000003 14:00000002 15:000007D4 16:66666666 17:77777777 18:88888888 19:99999999 1A:AAAAAAAA 1B:BBBBBBBB 1C:00000001 1D:000007C8 1E:00000007 1F:00000007
0B0: 032FD263  BGE x31, x18, 36    00:00000000 01:000000C8 02:000006CC 05:00000010 06:0000000C 07:0000000A 08:000007EC 09:00000004 0A:000007B8 0B:00000003 0C:00000007 0D:00000002 12:00000008 13:00000003 14:00000002 15:000007D4 16:66666666 17:77777777 18:88888888 19:99999999 1A:AAAAAAAA 1B:BBBBBBBB 1C:00000001 1D:000007C8 1E:00000007 1F:00000006
0B4: 00198993  ADDI x19, x19, 1    00:00000000 01:000000C8 02:000006CC 05:00000010 06:0000000C 07:0000000A 08:000007EC 09:00000004 0A:000007B8 0B:00000003 0C:00000007 0D:00000002 12:00000008 13:00000003 14:00000002 15:000007D4 16:66666666 17:77777777 18:88888888 19:99999999 1A:AAAAAAAA 1B:BBBBBBBB 1C:00000001 1D:000007C8 1E:00000007 1F:00000006
0B8: 01499333  SLL x6, x19, x20    00:00000000 01:000000C8 02:000006CC 05:00000010 06:0000000C 07:0000000A 08:000007EC 09:00000004 0A:000007B8 0B:00000003 0C:00000007 0D:00000002 12:00000008 13:00000004 14:00000002 15:000007D4 16:66666666 17:77777777 18:88888888 19:99999999 1A:AAAAAAAA 1B:BBBBBBBB 1C:00000001 1D:000007C8 1E:00000007 1F:00000006
0BC: 006505B3  ADD x11, x10, x6    00:00000000 01:000000C8 02:000006CC 05:00000010 06:00000010 07:0000000A 08:000007EC 09:00000004 0A:000007B8 0B:00000003 0C:00000007 0D:00000002 12:00000008 13:00000004 14:00000002 15:000007D4 16:66666666 17:77777777 18:88888888 19:99999999 1A:AAAAAAAA 1B:BBBBBBBB 1C:00000001 1D:000007C8 1E:00000007 1F:00000006
0C0: 000E8613  ADDI x12, x29, 0    00:00000000 01:000000C8 02:000006CC 05:00000010 06:00000010 07:0000000A 08:000007EC 09:00000004 0A:000007B8 0B:000007C8 0C:00000007 0D:00000002 12:00000008 13:00000004 14:00000002 15:000007D4 16:66666666 17:77777777 18:88888888 19:99999999 1A:AAAAAAAA 1B:BBBBBBBB 1C:00000001 1D:000007C8 1E:00000007 1F:00000006
0C4: F7DFF0EF  JAL x1, -132        00:00000000 01:000000C8 02:000006CC 05:00000010 06:00000010 07:0000000A 08:000007EC 09:00000004 0A:000007B8 0B:000007C8 0C:000007C8 0D:00000002 12:00000008 13:00000004 14:00000002 15:000007D4 16:66666666 17:77777777 18:88888888 19:99999999 1A:AAAAAAAA 1B:BBBBBBBB 1C:00000001 1D:000007C8 1E:00000007 1F:00000006
040: FE010113  ADDI x2, x2, -32    00:00000000 01:000000C8 02:000006CC 05:00000010 06:00000010 07:0000000A 08:000007EC 09:00000004 0A:000007B8 0B:000007C8 0C:000007C8 0D:00000002 12:00000008 13:00000004 14:00000002 15:000007D4 16:66666666 17:77777777 18:88888888 19:99999999 1A:AAAAAAAA 1B:BBBBBBBB 1C:00000001 1D:000007C8 1E:00000007 1F:00000006
044: 00112E23  SW x1, 28(x2)       00:00000000 01:000000C8 02:000006AC 05:00000010 06:00000010 07:0000000A 08:000007EC 09:00000004 0A:000007B8 0B:000007C8 0C:000007C8 0D:00000002 12:00000008 13:00000004 14:00000002 15:000007D4 16:66666666 17:77777777 18:88888888 19:99999999 1A:AAAAAAAA 1B:BBBBBBBB 1C:00000001 1D:000007C8 1E:00000007 1F:00000006
048: 0005AF03  LW x30, 0(x11)      00:00000000 01:000000C8 02:000006AC 05:00000010 06:00000010 07:0000000A 08:000007EC 09:00000004 0A:000007B8 0B:000007C8 0C:000007C8 0D:00000002 12:00000008 13:00000004 14:00000002 15:000007D4 16:66666666 17:77777777 18:88888888 19:99999999 1A:AAAAAAAA 1B:BBBBBBBB 1C:00000001 1D:000007C8 1E:00000007 1F:00000006
04C: 00062F83  LW x31, 0(x12)      00:00000000 01:000000C8 02:000006AC 05:00000010 06:00000010 07:0000000A 08:000007EC 09:00000004 0A:000007B8 0B:000007C8 0C:000007C8 0D:00000002 12:00000008 13:00000004 14:00000002 15:000007D4 16:66666666 17:77777777 18:88888888 19:99999999 1A:AAAAAAAA 1B:BBBBBBBB 1C:00000001 1D:000007C8 1E:00000006 1F:00000006
050: 01F5A023  SW x31, 0(x11)      00:00000000 01:000000C8 02:000006AC 05:00000010 06:00000010 07:0000000A 08:000007EC 09:00000004 0A:000007B8 0B:000007C8 0C:000007C8 0D:00000002 12:00000008 13:00000004 14:00000002 15:000007D4 16:66666666 17:77777777 18:88888888 19:99999999 1A:AAAAAAAA 1B:BBBBBBBB 1C:00000001 1D:000007C8 1E:00000006 1F:00000006
054: 01E62023  SW x30, 0(x12)      00:00000000 01:000000C8 02:000006AC 05:00000010 06:00000010 07:0000000A 08:000007EC 09:00000004 0A:000007B8 0B:000007C8 0C:000007C8 0D:00000002 12:00000008 13:00000004 14:00000002 15:000007D4 16:66666666 17:77777777 18:88888888 19:99999999 1A:AAAAAAAA 1B:BBBBBBBB 1C:00000001 1D:000007C8 1E:00000006 1F:00000006
058: 01C12083  LW x1, 28(x2)       00:00000000 01:000000C8 02:000006AC 05:00000010 06:00000010 07:0000000A 08:000007EC 09:00000004 0A:000007B8 0B:000007C8 0C:000007C8 0D:00000002 12:00000008 13:00000004 14:00000002 15:000007D4 16:66666666 17:77777777 18:88888888 19:99999999 1A:AAAAAAAA 1B:BBBBBBBB 1C:00000001 1D:000007C8 1E:00000006 1F:00000006
05C: 02010113  ADDI x2, x2, 32     00:00000000 01:000000C8 02:000006AC 05:00000010 06:00000010 07:0000000A 08:000007EC 09:00000004 0A:000007B8 0B:000007C8 0C:000007C8 0D:00000002 12:00000008 13:00000004 14:00000002 15:000007D4 16:66666666 17:77777777 18:88888888 19:99999999 1A:AAAAAAAA 1B:BBBBBBBB 1C:00000001 1D:000007C8 1E:00000006 1F:00000006
060: 00008067  JALR x0, 0(x1)      00:00000000 01:000000C8 02:000006CC 05:00000010 06:00000010 07:0000000A 08:000007EC 09:00000004 0A:000007B8 0B:000007C8 0C:000007C8 0D:00000002 12:00000008 13:00000004 14:00000002 15:000007D4 16:66666666 17:77777777 18:88888888 19:99999999 1A:AAAAAAAA 1B:BBBBBBBB 1C:00000001 1D:000007C8 1E:00000006 1F:00000006
0C8: 00412583  LW x11, 4(x2)       00:00000000 01:000000C8 02:000006CC 05:00000010 06:00000010 07:0000000A 08:000007EC 09:00000004 0A:000007B8 0B:000007C8 0C:000007C8 0D:00000002 12:00000008 13:00000004 14:00000002 15:000007D4 16:66666666 17:77777777 18:88888888 19:99999999 1A:AAAAAAAA 1B:BBBBBBBB 1C:00000001 1D:000007C8 1E:00000006 1F:00000006
0CC: 00012603  LW x12, 0(x2)       00:00000000 01:000000C8 02:000006CC 05:00000010 06:00000010 07:0000000A 08:000007EC 09:00000004 0A:000007B8 0B:00000003 0C:000007C8 0D:00000002 12:00000008 13:00000004 14:00000002 15:000007D4 16:66666666 17:77777777 18:88888888 19:99999999 1A:AAAAAAAA 1B:BBBBBBBB 1C:00000001 1D:000007C8 1E:00000006 1F:00000006
0D0: 0040006F  JAL x0, 4           00:00000000 01:000000C8 02:000006CC 05:00000010 06:00000010 07:0000000A 08:000007EC 09:00000004 0A:000007B8 0B:00000003 0C:00000007 0D:00000002 12:00000008 13:00000004 14:00000002 15:000007D4 16:66666666 17:77777777 18:88888888 19:99999999 1A:AAAAAAAA 1B:BBBBBBBB 1C:00000001 1D:000007C8 1E:00000006 1F:00000006
0D4: 00148493  ADDI x9, x9, 1      00:00000000 01:000000C8 02:000006CC 05:00000010 06:00000010 07:0000000A 08:000007EC 09:00000004 0A:000007B8 0B:00000003 0C:00000007 0D:00000002 12:00000008 13:00000004 14:00000002 15:000007D4 16:66666666 17:77777777 18:88888888 19:99999999 1A:AAAAAAAA 1B:BBBBBBBB 1C:00000001 1D:000007C8 1E:00000006 1F:00000006
0D8: FC9FF06F  JAL x0, -56         00:00000000 01:000000C8 02:000006CC 05:00000010 06:00000010 07:0000000A 08:000007EC 09:00000005 0A:000007B8 0B:00000003 0C:00000007 0D:00000002 12:00000008 13:00000004 14:00000002 15:000007D4 16:66666666 17:77777777 18:88888888 19:99999999 1A:AAAAAAAA 1B:BBBBBBBB 1C:00000001 1D:000007C8 1E:00000006 1F:00000006
0A0: 02C4DE63  BGE x9, x12, 60     00:00000000 01:000000C8 02:000006CC 05:00000010 06:00000010 07:0000000A 08:000007EC 09:00000005 0A:000007B8 0B:00000003 0C:00000007 0D:00000002 12:00000008 13:00000004 14:00000002 15:000007D4 16:66666666 17:77777777 18:88888888 19:99999999 1A:AAAAAAAA 1B:BBBBBBBB 1C:00000001 1D:000007C8 1E:00000006 1F:00000006
0A4: 014492B3  SLL x5, x9, x20     00:00000000 01:000000C8 02:000006CC 05:00000010 06:00000010 07:0000000A 08:000007EC 09:00000005 0A:000007B8 0B:00000003 0C:00000007 0D:00000002 12:00000008 13:00000004 14:00000002 15:000007D4 16:66666666 17:77777777 18:88888888 19:99999999 1A:AAAAAAAA 1B:BBBBBBBB 1C:00000001 1D:000007C8 1E:00000006 1F:00000006
0A8: 00550EB3  ADD x29, x10, x5    00:00000000 01:000000C8 02:000006CC 05:00000014 06:00000010 07:0000000A 08:000007EC 09:00000005 0A:000007B8 0B:00000003 0C:00000007 0D:00000002 12:00000008 13:00000004 14:00000002 15:000007D4 16:66666666 17:77777777 18:88888888 19:99999999 1A:AAAAAAAA 1B:BBBBBBBB 1C:00000001 1D:000007C8 1E:00000006 1F:00000006
0AC: 000EAF83  LW x31, 0(x29)      00:00000000 01:000000C8 02:000006CC 05:00000014 06:00000010 07:0000000A 08:000007EC 09:00000005 0A:000007B8 0B:00000003 0C:00000007 0D:00000002 12:00000008 13:00000004 14:00000002 15:000007D4 16:66666666 17:77777777 18:88888888 19:99999999 1A:AAAAAAAA 1B:BBBBBBBB 1C:00000001 1D:000007CC 1E:00000006 1F:00000006
0B0: 032FD263  BGE x31, x18, 36    00:00000000 01:000000C8 02:000006CC 05:00000014 06:00000010 07:0000000A 08:000007EC 09:00000005 0A:000007B8 0B:00000003 0C:00000007 0D:00000002 12:00000008 13:00000004 14:00000002 15:000007D4 16:66666666 17:77777777 18:88888888 19:99999999 1A:AAAAAAAA 1B:BBBBBBBB 1C:00000001 1D:000007CC 1E:00000006 1F:00000005
0B4: 00198993  ADDI x19, x19, 1    00:00000000 01:000000C8 02:000006CC 05:00000014 06:00000010 07:0000000A 08:000007EC 09:00000005 0A:000007B8 0B:00000003 0C:00000007 0D:00000002 12:00000008 13:00000004 14:00000002 15:000007D4 16:66666666 17:77777777 18:88888888 19:99999999 1A:AAAAAAAA 1B:BBBBBBBB 1C:00000001 1D:000007CC 1E:00000006 1F:00000005
0B8: 01499333  SLL x6, x19, x20    00:00000000 01:000000C8 02:000006CC 05:00000014 06:00000010 07:0000000A 08:000007EC 09:00000005 0A:000007B8 0B:00000003 0C:00000007 0D:00000002 12:00000008 13:00000005 14:00000002 15:000007D4 16:66666666 17:77777777 18:88888888 19:99999999 1A:AAAAAAAA 1B:BBBBBBBB 1C:00000001 1D:000007CC 1E:00000006 1F:00000005
0BC: 006505B3  ADD x11, x10, x6    00:00000000 01:000000C8 02:000006CC 05:00000014 06:00000014 07:0000000A 08:000007EC 09:00000005 0A:000007B8 0B:00000003 0C:00000007 0D:00000002 12:00000008 13:00000005 14:00000002 15:000007D4 16:66666666 17:77777777 18:88888888 19:99999999 1A:AAAAAAAA 1B:BBBBBBBB 1C:00000001 1D:000007CC 1E:00000006 1F:00000005
0C0: 000E8613  ADDI x12, x29, 0    00:00000000 01:000000C8 02:000006CC 05:00000014 06:00000014 07:0000000A 08:000007EC 09:00000005 0A:000007B8 0B:000007CC 0C:00000007 0D:00000002 12:00000008 13:00000005 14:00000002 15:000007D4 16:66666666 17:77777777 18:88888888 19:99999999 1A:AAAAAAAA 1B:BBBBBBBB 1C:00000001 1D:000007CC 1E:00000006 1F:00000005
0C4: F7DFF0EF  JAL x1, -132        00:00000000 01:000000C8 02:000006CC 05:00000014 06:00000014 07:0000000A 08:000007EC 09:00000005 0A:000007B8 0B:000007CC 0C:000007CC 0D:00000002 12:00000008 13:00000005 14:00000002 15:000007D4 16:66666666 17:77777777 18:88888888 19:99999999 1A:AAAAAAAA 1B:BBBBBBBB 1C:00000001 1D:000007CC 1E:00000006 1F:00000005
040: FE010113  ADDI x2, x2, -32    00:00000000 01:000000C8 02:000006CC 05:00000014 06:00000014 07:0000000A 08:000007EC 09:00000005 0A:000007B8 0B:000007CC 0C:000007CC 0D:00000002 12:00000008 13:00000005 14:00000002 15:000007D4 16:66666666 17:77777777 18:88888888 19:99999999 1A:AAAAAAAA 1B:BBBBBBBB 1C:00000001 1D:000007CC 1E:00000006 1F:00000005
044: 00112E23  SW x1, 28(x2)       00:00000000 01:000000C8 02:000006AC 05:00000014 06:00000014 07:0000000A 08:000007EC 09:00000005 0A:000007B8 0B:000007CC 0C:000007CC 0D:00000002 12:00000008 13:00000005 14:00000002 15:000007D4 16:66666666 17:77777777 18:88888888 19:99999999 1A:AAAAAAAA 1B:BBBBBBBB 1C:00000001 1D:000007CC 1E:00000006 1F:00000005
048: 0005AF03  LW x30, 0(x11)      00:00000000 01:000000C8 02:000006AC 05:00000014 06:00000014 07:0000000A 08:000007EC 09:00000005 0A:000007B8 0B:000007CC 0C:000007CC 0D:00000002 12:00000008 13:00000005 14:00000002 15:000007D4 16:66666666 17:77777777 18:88888888 19:99999999 1A:AAAAAAAA 1B:BBBBBBBB 1C:00000001 1D:000007CC 1E:00000006 1F:00000005
04C: 00062F83  LW x31, 0(x12)      00:00000000 01:000000C8 02:000006AC 05:00000014 06:00000014 07:0000000A 08:000007EC 09:00000005 0A:000007B8 0B:000007CC 0C:000007CC 0D:00000002 12:00000008 13:00000005 14:00000002 15:000007D4 16:66666666 17:77777777 18:88888888 19:99999999 1A:AAAAAAAA 1B:BBBBBBBB 1C:00000001 1D:000007CC 1E:00000005 1F:00000005
050: 01F5A023  SW x31, 0(x11)      00:00000000 01:000000C8 02:000006AC 05:00000014 06:00000014 07:0000000A 08:000007EC 09:00000005 0A:000007B8 0B:000007CC 0C:000007CC 0D:00000002 12:00000008 13:00000005 14:00000002 15:000007D4 16:66666666 17:77777777 18:88888888 19:99999999 1A:AAAAAAAA 1B:BBBBBBBB 1C:00000001 1D:000007CC 1E:00000005 1F:00000005
054: 01E62023  SW x30, 0(x12)      00:00000000 01:000000C8 02:000006AC 05:00000014 06:00000014 07:0000000A 08:000007EC 09:00000005 0A:000007B8 0B:000007CC 0C:000007CC 0D:00000002 12:00000008 13:00000005 14:00000002 15:000007D4 16:66666666 17:77777777 18:88888888 19:99999999 1A:AAAAAAAA 1B:BBBBBBBB 1C:00000001 1D:000007CC 1E:00000005 1F:00000005
058: 01C12083  LW x1, 28(x2)       00:00000000 01:000000C8 02:000006AC 05:00000014 06:00000014 07:0000000A 08:000007EC 09:00000005 0A:000007B8 0B:000007CC 0C:000007CC 0D:00000002 12:00000008 13:00000005 14:00000002 15:000007D4 16:66666666 17:77777777 18:88888888 19:99999999 1A:AAAAAAAA 1B:BBBBBBBB 1C:00000001 1D:000007CC 1E:00000005 1F:00000005
05C: 02010113  ADDI x2, x2, 32     00:00000000 01:000000C8 02:000006AC 05:00000014 06:00000014 07:0000000A 08:000007EC 09:00000005 0A:000007B8 0B:000007CC 0C:000007CC 0D:00000002 12:00000008 13:00000005 14:00000002 15:000007D4 16:66666666 17:77777777 18:88888888 19:99999999 1A:AAAAAAAA 1B:BBBBBBBB 1C:00000001 1D:000007CC 1E:00000005 1F:00000005
060: 00008067  JALR x0, 0(x1)      00:00000000 01:000000C8 02:000006CC 05:00000014 06:00000014 07:0000000A 08:000007EC 09:00000005 0A:000007B8 0B:000007CC 0C:000007CC 0D:00000002 12:00000008 13:00000005 14:00000002 15:000007D4 16:66666666 17:77777777 18:88888888 19:99999999 1A:AAAAAAAA 1B:BBBBBBBB 1C:00000001 1D:000007CC 1E:00000005 1F:00000005
0C8: 00412583  LW x11, 4(x2)       00:00000000 01:000000C8 02:000006CC 05:00000014 06:00000014 07:0000000A 08:000007EC 09:00000005 0A:000007B8 0B:000007CC 0C:000007CC 0D:00000002 12:00000008 13:00000005 14:00000002 15:000007D4 16:66666666 17:77777777 18:88888888 19:99999999 1A:AAAAAAAA 1B:BBBBBBBB 1C:00000001 1D:000007CC 1E:00000005 1F:00000005
0CC: 00012603  LW x12, 0(x2)       00:00000000 01:000000C8 02:000006CC 05:00000014 06:00000014 07:0000000A 08:000007EC 09:00000005 0A:000007B8 0B:00000003 0C:000007CC 0D:00000002 12:00000008 13:00000005 14:00000002 15:000007D4 16:66666666 17:77777777 18:88888888 19:99999999 1A:AAAAAAAA 1B:BBBBBBBB 1C:00000001 1D:000007CC 1E:00000005 1F:00000005
0D0: 0040006F  JAL x0, 4           00:00000000 01:000000C8 02:000006CC 05:00000014 06:00000014 07:0000000A 08:000007EC 09:00000005 0A:000007B8 0B:00000003 0C:00000007 0D:00000002 12:00000008 13:00000005 14:00000002 15:000007D4 16:66666666 17:77777777 18:88888888 19:99999999 1A:AAAAAAAA 1B:BBBBBBBB 1C:00000001 1D:000007CC 1E:00000005 1F:00000005
0D4: 00148493  ADDI x9, x9, 1      00:00000000 01:000000C8 02:000006CC 05:00000014 06:00000014 07:0000000A 08:000007EC 09:00000005 0A:000007B8 0B:00000003 0C:00000007 0D:00000002 12:00000008 13:00000005 14:00000002 15:000007D4 16:66666666 17:77777777 18:88888888 19:99999999 1A:AAAAAAAA 1B:BBBBBBBB 1C:00000001 1D:000007CC 1E:00000005 1F:00000005
0D8: FC9FF06F  JAL x0, -56         00:00000000 01:000000C8 02:000006CC 05:00000014 06:00000014 07:0000000A 08:000007EC 09:00000006 0A:000007B8 0B:00000003 0C:00000007 0D:00000002 12:00000008 13:00000005 14:00000002 15:000007D4 16:66666666 17:77777777 18:88888888 19:99999999 1A:AAAAAAAA 1B:BBBBBBBB 1C:00000001 1D:000007CC 1E:00000005 1F:00000005
0A0: 02C4DE63  BGE x9, x12, 60     00:00000000 01:000000C8 02:000006CC 05:00000014 06:00000014 07:0000000A 08:000007EC 09:00000006 0A:000007B8 0B:00000003 0C:00000007 0D:00000002 12:00000008 13:00000005 14:00000002 15:000007D4 16:66666666 17:77777777 18:88888888 19:99999999 1A:AAAAAAAA 1B:BBBBBBBB 1C:00000001 1D:000007CC 1E:00000005 1F:00000005
0A4: 014492B3  SLL x5, x9, x20     00:00000000 01:000000C8 02:000006CC 05:00000014 06:00000014 07:0000000A 08:000007EC 09:00000006 0A:000007B8 0B:00000003 0C:00000007 0D:00000002 12:00000008 13:00000005 14:00000002 15:000007D4 16:66666666 17:77777777 18:88888888 19:99999999 1A:AAAAAAAA 1B:BBBBBBBB 1C:00000001 1D:000007CC 1E:00000005 1F:00000005
0A8: 00550EB3  ADD x29, x10, x5    00:00000000 01:000000C8 02:000006CC 05:00000018 06:00000014 07:0000000A 08:000007EC 09:00000006 0A:000007B8 0B:00000003 0C:00000007 0D:00000002 12:00000008 13:00000005 14:00000002 15:000007D4 16:66666666 17:77777777 18:88888888 19:99999999 1A:AAAAAAAA 1B:BBBBBBBB 1C:00000001 1D:000007CC 1E:00000005 1F:00000005
0AC: 000EAF83  LW x31, 0(x29)      00:00000000 01:000000C8 02:000006CC 05:00000018 06:00000014 07:0000000A 08:000007EC 09:00000006 0A:000007B8 0B:00000003 0C:00000007 0D:00000002 12:00000008 13:00000005 14:00000002 15:000007D4 16:66666666 17:77777777 18:88888888 19:99999999 1A:AAAAAAAA 1B:BBBBBBBB 1C:00000001 1D:000007D0 1E:00000005 1F:00000005
0B0: 032FD263  BGE x31, x18, 36    00:00000000 01:000000C8 02:000006CC 05:00000018 06:00000014 07:0000000A 08:000007EC 09:00000006 0A:000007B8 0B:00000003 0C:00000007 0D:00000002 12:00000008 13:00000005 14:00000002 15:000007D4 16:66666666 17:77777777 18:88888888 19:99999999 1A:AAAAAAAA 1B:BBBBBBBB 1C:00000001 1D:000007D0 1E:00000005 1F:00000004
0B4: 00198993  ADDI x19, x19, 1    00:00000000 01:000000C8 02:000006CC 05:00000018 06:00000014 07:0000000A 08:000007EC 09:00000006 0A:000007B8 0B:00000003 0C:00000007 0D:00000002 12:00000008 13:00000005 14:00000002 15:000007D4 16:66666666 17:77777777 18:88888888 19:99999999 1A:AAAAAAAA 1B:BBBBBBBB 1C:00000001 1D:000007D0 1E:00000005 1F:00000004
0B8: 01499333  SLL x6, x19, x20    00:00000000 01:000000C8 02:000006CC 05:00000018 06:00000014 07:0000000A 08:000007EC 09:00000006 0A:000007B8 0B:00000003 0C:00000007 0D:00000002 12:00000008 13:00000006 14:00000002 15:000007D4 16:66666666 17:77777777 18:88888888 19:99999999 1A:AAAAAAAA 1B:BBBBBBBB 1C:00000001 1D:000007D0 1E:00000005 1F:00000004
0BC: 006505B3  ADD x11, x10, x6    00:00000000 01:000000C8 02:000006CC 05:00000018 06:00000018 07:0000000A 08:000007EC 09:00000006 0A:000007B8 0B:00000003 0C:00000007 0D:00000002 12:00000008 13:00000006 14:00000002 15:000007D4 16:66666666 17:77777777 18:88888888 19:99999999 1A:AAAAAAAA 1B:BBBBBBBB 1C:00000001 1D:000007D0 1E:00000005 1F:00000004
0C0: 000E8613  ADDI x12, x29, 0    00:00000000 01:000000C8 02:000006CC 05:00000018 06:00000018 07:0000000A 08:000007EC 09:00000006 0A:000007B8 0B:000007D0 0C:00000007 0D:00000002 12:00000008 13:00000006 14:00000002 15:000007D4 16:66666666 17:77777777 18:88888888 19:99999999 1A:AAAAAAAA 1B:BBBBBBBB 1C:00000001 1D:000007D0 1E:00000005 1F:00000004
0C4: F7DFF0EF  JAL x1, -132        00:00000000 01:000000C8 02:000006CC 05:00000018 06:00000018 07:0000000A 08:000007EC 09:00000006 0A:000007B8 0B:000007D0 0C:000007D0 0D:00000002 12:00000008 13:00000006 14:00000002 15:000007D4 16:66666666 17:77777777 18:88888888 19:99999999 1A:AAAAAAAA 1B:BBBBBBBB 1C:00000001 1D:000007D0 1E:00000005 1F:00000004
040: FE010113  ADDI x2, x2, -32    00:00000000 01:000000C8 02:000006CC 05:00000018 06:00000018 07:0000000A 08:000007EC 09:00000006 0A:000007B8 0B:000007D0 0C:000007D0 0D:00000002 12:00000008 13:00000006 14:00000002 15:000007D4 16:66666666 17:77777777 18:88888888 19:99999999 1A:AAAAAAAA 1B:BBBBBBBB 1C:00000001 1D:000007D0 1E:00000005 1F:00000004
044: 00112E23  SW x1, 28(x2)       00:00000000 01:000000C8 02:000006AC 05:00000018 06:00000018 07:0000000A 08:000007EC 09:00000006 0A:000007B8 0B:000007D0 0C:000007D0 0D:00000002 12:00000008 13:00000006 14:00000002 15:000007D4 16:66666666 17:77777777 18:88888888 19:99999999 1A:AAAAAAAA 1B:BBBBBBBB 1C:00000001 1D:000007D0 1E:00000005 1F:00000004
048: 0005AF03  LW x30, 0(x11)      00:00000000 01:000000C8 02:000006AC 05:00000018 06:00000018 07:0000000A 08:000007EC 09:00000006 0A:000007B8 0B:000007D0 0C:000007D0 0D:00000002 12:00000008 13:00000006 14:00000002 15:000007D4 16:66666666 17:77777777 18:88888888 19:99999999 1A:AAAAAAAA 1B:BBBBBBBB 1C:00000001 1D:000007D0 1E:00000005 1F:00000004
04C: 00062F83  LW x31, 0(x12)      00:00000000 01:000000C8 02:000006AC 05:00000018 06:00000018 07:0000000A 08:000007EC 09:00000006 0A:000007B8 0B:000007D0 0C:000007D0 0D:00000002 12:00000008 13:00000006 14:00000002 15:000007D4 16:66666666 17:77777777 18:88888888 19:99999999 1A:AAAAAAAA 1B:BBBBBBBB 1C:00000001 1D:000007D0 1E:00000004 1F:00000004
050: 01F5A023  SW x31, 0(x11)      00:00000000 01:000000C8 02:000006AC 05:00000018 06:00000018 07:0000000A 08:000007EC 09:00000006 0A:000007B8 0B:000007D0 0C:000007D0 0D:00000002 12:00000008 13:00000006 14:00000002 15:000007D4 16:66666666 17:77777777 18:88888888 19:99999999 1A:AAAAAAAA 1B:BBBBBBBB 1C:00000001 1D:000007D0 1E:00000004 1F:00000004
054: 01E62023  SW x30, 0(x12)      00:00000000 01:000000C8 02:000006AC 05:00000018 06:00000018 07:0000000A 08:000007EC 09:00000006 0A:000007B8 0B:000007D0 0C:000007D0 0D:00000002 12:00000008 13:00000006 14:00000002 15:000007D4 16:66666666 17:77777777 18:88888888 19:99999999 1A:AAAAAAAA 1B:BBBBBBBB 1C:00000001 1D:000007D0 1E:00000004 1F:00000004
058: 01C12083  LW x1, 28(x2)       00:00000000 01:000000C8 02:000006AC 05:00000018 06:00000018 07:0000000A 08:000007EC 09:00000006 0A:000007B8 0B:000007D0 0C:000007D0 0D:00000002 12:00000008 13:00000006 14:00000002 15:000007D4 16:66666666 17:77777777 18:88888888 19:99999999 1A:AAAAAAAA 1B:BBBBBBBB 1C:00000001 1D:000007D0 1E:00000004 1F:00000004
05C: 02010113  ADDI x2, x2, 32     00:00000000 01:000000C8 02:000006AC 05:00000018 06:00000018 07:0000000A 08:000007EC 09:00000006 0A:000007B8 0B:000007D0 0C:000007D0 0D:00000002 12:00000008 13:00000006 14:00000002 15:000007D4 16:66666666 17:77777777 18:88888888 19:99999999 1A:AAAAAAAA 1B:BBBBBBBB 1C:00000001 1D:000007D0 1E:00000004 1F:00000004
060: 00008067  JALR x0, 0(x1)      00:00000000 01:000000C8 02:000006CC 05:00000018 06:00000018 07:0000000A 08:000007EC 09:00000006 0A:000007B8 0B:000007D0 0C:000007D0 0D:00000002 12:00000008 13:00000006 14:00000002 15:000007D4 16:66666666 17:77777777 18:88888888 19:99999999 1A:AAAAAAAA 1B:BBBBBBBB 1C:00000001 1D:000007D0 1E:00000004 1F:00000004
0C8: 00412583  LW x11, 4(x2)       00:00000000 01:000000C8 02:000006CC 05:00000018 06:00000018 07:0000000A 08:000007EC 09:00000006 0A:000007B8 0B:000007D0 0C:000007D0 0D:00000002 12:00000008 13:00000006 14:00000002 15:000007D4 16:66666666 17:77777777 18:88888888 19:99999999 1A:AAAAAAAA 1B:BBBBBBBB 1C:00000001 1D:000007D0 1E:00000004 1F:00000004
0CC: 00012603  LW x12, 0(x2)       00:00000000 01:000000C8 02:000006CC 05:00000018 06:00000018 07:0000000A 08:000007EC 09:00000006 0A:000007B8 0B:00000003 0C:000007D0 0D:00000002 12:00000008 13:00000006 14:00000002 15:000007D4 16:66666666 17:77777777 18:88888888 19:99999999 1A:AAAAAAAA 1B:BBBBBBBB 1C:00000001 1D:000007D0 1E:00000004 1F:00000004
0D0: 0040006F  JAL x0, 4           00:00000000 01:000000C8 02:000006CC 05:00000018 06:00000018 07:0000000A 08:000007EC 09:00000006 0A:000007B8 0B:00000003 0C:00000007 0D:00000002 12:00000008 13:00000006 14:00000002 15:000007D4 16:66666666 17:77777777 18:88888888 19:99999999 1A:AAAAAAAA 1B:BBBBBBBB 1C:00000001 1D:000007D0 1E:00000004 1F:00000004
0D4: 00148493  ADDI x9, x9, 1      00:00000000 01:000000C8 02:000006CC 05:00000018 06:00000018 07:0000000A 08:000007EC 09:00000006 0A:000007B8 0B:00000003 0C:00000007 0D:00000002 12:00000008 13:00000006 14:00000002 15:000007D4 16:66666666 17:77777777 18:88888888 19:99999999 1A:AAAAAAAA 1B:BBBBBBBB 1C:00000001 1D:000007D0 1E:00000004 1F:00000004
0D8: FC9FF06F  JAL x0, -56         00:00000000 01:000000C8 02:000006CC 05:00000018 06:00000018 07:0000000A 08:000007EC 09:00000007 0A:000007B8 0B:00000003 0C:00000007 0D:00000002 12:00000008 13:00000006 14:00000002 15:000007D4 16:66666666 17:77777777 18:88888888 19:99999999 1A:AAAAAAAA 1B:BBBBBBBB 1C:00000001 1D:000007D0 1E:00000004 1F:00000004
0A0: 02C4DE63  BGE x9, x12, 60     00:00000000 01:000000C8 02:000006CC 05:00000018 06:00000018 07:0000000A 08:000007EC 09:00000007 0A:000007B8 0B:00000003 0C:00000007 0D:00000002 12:00000008 13:00000006 14:00000002 15:000007D4 16:66666666 17:77777777 18:88888888 19:99999999 1A:AAAAAAAA 1B:BBBBBBBB 1C:00000001 1D:000007D0 1E:00000004 1F:00000004
0DC: 00198993  ADDI x19, x19, 1    00:00000000 01:000000C8 02:000006CC 05:00000018 06:00000018 07:0000000A 08:000007EC 09:00000007 0A:000007B8 0B:00000003 0C:00000007 0D:00000002 12:00000008 13:00000006 14:00000002 15:000007D4 16:66666666 17:77777777 18:88888888 19:99999999 1A:AAAAAAAA 1B:BBBBBBBB 1C:00000001 1D:000007D0 1E:00000004 1F:00000004
0E0: 01499333  SLL x6, x19, x20    00:00000000 01:000000C8 02:000006CC 05:00000018 06:00000018 07:0000000A 08:000007EC 09:00000007 0A:000007B8 0B:00000003 0C:00000007 0D:00000002 12:00000008 13:00000007 14:00000002 15:000007D4 16:66666666 17:77777777 18:88888888 19:99999999 1A:AAAAAAAA 1B:BBBBBBBB 1C:00000001 1D:000007D0 1E:00000004 1F:00000004
0E4: 006505B3  ADD x11, x10, x6    00:00000000 01:000000C8 02:000006CC 05:00000018 06:0000001C 07:0000000A 08:000007EC 09:00000007 0A:000007B8 0B:00000003 0C:00000007 0D:00000002 12:00000008 13:00000007 14:00000002 15:000007D4 16:66666666 17:77777777 18:88888888 19:99999999 1A:AAAAAAAA 1B:BBBBBBBB 1C:00000001 1D:000007D0 1E:00000004 1F:00000004
0E8: 000A8613  ADDI x12, x21, 0    00:00000000 01:000000C8 02:000006CC 05:00000018 06:0000001C 07:0000000A 08:000007EC 09:00000007 0A:000007B8 0B:000007D4 0C:00000007 0D:00000002 12:00000008 13:00000007 14:00000002 15:000007D4 16:66666666 17:77777777 18:88888888 19:99999999 1A:AAAAAAAA 1B:BBBBBBBB 1C:00000001 1D:000007D0 1E:00000004 1F:00000004
0EC: F55FF0EF  JAL x1, -172        00:00000000 01:000000C8 02:000006CC 05:00000018 06:0000001C 07:0000000A 08:000007EC 09:00000007 0A:000007B8 0B:000007D4 0C:000007D4 0D:00000002 12:00000008 13:00000007 14:00000002 15:000007D4 16:66666666 17:77777777 18:88888888 19:99999999 1A:AAAAAAAA 1B:BBBBBBBB 1C:00000001 1D:000007D0 1E:00000004 1F:00000004
040: FE010113  ADDI x2, x2, -32    00:00000000 01:000000F0 02:000006CC 05:00000018 06:0000001C 07:0000000A 08:000007EC 09:00000007 0A:000007B8 0B:000007D4 0C:000007D4 0D:00000002 12:00000008 13:00000007 14:00000002 15:000007D4 16:66666666 17:77777777 18:88888888 19:99999999 1A:AAAAAAAA 1B:BBBBBBBB 1C:00000001 1D:000007D0 1E:00000004 1F:00000004
044: 00112E23  SW x1, 28(x2)       00:00000000 01:000000F0 02:000006AC 05:00000018 06:0000001C 07:0000000A 08:000007EC 09:00000007 0A:000007B8 0B:000007D4 0C:000007D4 0D:00000002 12:00000008 13:00000007 14:00000002 15:000007D4 16:66666666 17:77777777 18:88888888 19:99999999 1A:AAAAAAAA 1B:BBBBBBBB 1C:00000001 1D:000007D0 1E:00000004 1F:00000004
048: 0005AF03  LW x30, 0(x11)      00:00000000 01:000000F0 02:000006AC 05:00000018 06:0000001C 07:0000000A 08:000007EC 09:00000007 0A:000007B8 0B:000007D4 0C:000007D4 0D:00000002 12:00000008 13:00000007 14:00000002 15:000007D4 16:66666666 17:77777777 18:88888888 19:99999999 1A:AAAAAAAA 1B:BBBBBBBB 1C:00000001 1D:000007D0 1E:00000004 1F:00000004
04C: 00062F83  LW x31, 0(x12)      00:00000000 01:000000F0 02:000006AC 05:00000018 06:0000001C 07:0000000A 08:000007EC 09:00000007 0A:000007B8 0B:000007D4 0C:000007D4 0D:00000002 12:00000008 13:00000007 14:00000002 15:000007D4 16:66666666 17:77777777 18:88888888 19:99999999 1A:AAAAAAAA 1B:BBBBBBBB 1C:00000001 1D:000007D0 1E:00000008 1F:00000004
050: 01F5A023  SW x31, 0(x11)      00:00000000 01:000000F0 02:000006AC 05:00000018 06:0000001C 07:0000000A 08:000007EC 09:00000007 0A:000007B8 0B:000007D4 0C:000007D4 0D:00000002 12:00000008 13:00000007 14:00000002 15:000007D4 16:66666666 17:77777777 18:88888888 19:99999999 1A:AAAAAAAA 1B:BBBBBBBB 1C:00000001 1D:000007D0 1E:00000008 1F:00000008
054: 01E62023  SW x30, 0(x12)      00:00000000 01:000000F0 02:000006AC 05:00000018 06:0000001C 07:0000000A 08:000007EC 09:00000007 0A:000007B8 0B:000007D4 0C:000007D4 0D:00000002 12:00000008 13:00000007 14:00000002 15:000007D4 16:66666666 17:77777777 18:88888888 19:99999999 1A:AAAAAAAA 1B:BBBBBBBB 1C:00000001 1D:000007D0 1E:00000008 1F:00000008
058: 01C12083  LW x1, 28(x2)       00:00000000 01:000000F0 02:000006AC 05:00000018 06:0000001C 07:0000000A 08:000007EC 09:00000007 0A:000007B8 0B:000007D4 0C:000007D4 0D:00000002 12:00000008 13:00000007 14:00000002 15:000007D4 16:66666666 17:77777777 18:88888888 19:99999999 1A:AAAAAAAA 1B:BBBBBBBB 1C:00000001 1D:000007D0 1E:00000008 1F:00000008
05C: 02010113  ADDI x2, x2, 32     00:00000000 01:000000F0 02:000006AC 05:00000018 06:0000001C 07:0000000A 08:000007EC 09:00000007 0A:000007B8 0B:000007D4 0C:000007D4 0D:00000002 12:00000008 13:00000007 14:00000002 15:000007D4 16:66666666 17:77777777 18:88888888 19:99999999 1A:AAAAAAAA 1B:BBBBBBBB 1C:00000001 1D:000007D0 1E:00000008 1F:00000008
060: 00008067  JALR x0, 0(x1)      00:00000000 01:000000F0 02:000006CC 05:00000018 06:0000001C 07:0000000A 08:000007EC 09:00000007 0A:000007B8 0B:000007D4 0C:000007D4 0D:00000002 12:00000008 13:00000007 14:00000002 15:000007D4 16:66666666 17:77777777 18:88888888 19:99999999 1A:AAAAAAAA 1B:BBBBBBBB 1C:00000001 1D:000007D0 1E:00000008 1F:00000008
0F0: 00412583  LW x11, 4(x2)       00:00000000 01:000000F0 02:000006CC 05:00000018 06:0000001C 07:0000000A 08:000007EC 09:00000007 0A:000007B8 0B:000007D4 0C:000007D4 0D:00000002 12:00000008 13:00000007 14:00000002 15:000007D4 16:66666666 17:77777777 18:88888888 19:99999999 1A:AAAAAAAA 1B:BBBBBBBB 1C:00000001 1D:000007D0 1E:00000008 1F:00000008
0F4: 00012603  LW x12, 0(x2)       00:00000000 01:000000F0 02:000006CC 05:00000018 06:0000001C 07:0000000A 08:000007EC 09:00000007 0A:000007B8 0B:00000003 0C:000007D4 0D:00000002 12:00000008 13:00000007 14:00000002 15:000007D4 16:66666666 17:77777777 18:88888888 19:99999999 1A:AAAAAAAA 1B:BBBBBBBB 1C:00000001 1D:000007D0 1E:00000008 1F:00000008
0F8: 00098513  ADDI x10, x19, 0    00:00000000 01:000000F0 02:000006CC 05:00000018 06:0000001C 07:0000000A 08:000007EC 09:00000007 0A:000007B8 0B:00000003 0C:00000007 0D:00000002 12:00000008 13:00000007 14:00000002 15:000007D4 16:66666666 17:77777777 18:88888888 19:99999999 1A:AAAAAAAA 1B:BBBBBBBB 1C:00000001 1D:000007D0 1E:00000008 1F:00000008
0FC: 01812483  LW x9, 24(x2)       00:00000000 01:000000F0 02:000006CC 05:00000018 06:0000001C 07:0000000A 08:000007EC 09:00000007 0A:00000007 0B:00000003 0C:00000007 0D:00000002 12:00000008 13:00000007 14:00000002 15:000007D4 16:66666666 17:77777777 18:88888888 19:99999999 1A:AAAAAAAA 1B:BBBBBBBB 1C:00000001 1D:000007D0 1E:00000008 1F:00000008
100: 01412903  LW x18, 20(x2)      00:00000000 01:000000F0 02:000006CC 05:00000018 06:0000001C 07:0000000A 08:000007EC 09:11111111 0A:00000007 0B:00000003 0C:00000007 0D:00000002 12:00000008 13:00000007 14:00000002 15:000007D4 16:66666666 17:77777777 18:88888888 19:99999999 1A:AAAAAAAA 1B:BBBBBBBB 1C:00000001 1D:000007D0 1E:00000008 1F:00000008
104: 01012983  LW x19, 16(x2)      00:00000000 01:000000F0 02:000006CC 05:00000018 06:0000001C 07:0000000A 08:000007EC 09:11111111 0A:00000007 0B:00000003 0C:00000007 0D:00000002 12:22222222 13:00000007 14:00000002 15:000007D4 16:66666666 17:77777777 18:88888888 19:99999999 1A:AAAAAAAA 1B:BBBBBBBB 1C:00000001 1D:000007D0 1E:00000008 1F:00000008
108: 00C12A03  LW x20, 12(x2)      00:00000000 01:000000F0 02:000006CC 05:00000018 06:0000001C 07:0000000A 08:000007EC 09:11111111 0A:00000007 0B:00000003 0C:00000007 0D:00000002 12:22222222 13:33333333 14:00000002 15:000007D4 16:66666666 17:77777777 18:88888888 19:99999999 1A:AAAAAAAA 1B:BBBBBBBB 1C:00000001 1D:000007D0 1E:00000008 1F:00000008
10C: 00812A83  LW x21, 8(x2)       00:00000000 01:000000F0 02:000006CC 05:00000018 06:0000001C 07:0000000A 08:000007EC 09:11111111 0A:00000007 0B:00000003 0C:00000007 0D:00000002 12:22222222 13:33333333 14:44444444 15:000007D4 16:66666666 17:77777777 18:88888888 19:99999999 1A:AAAAAAAA 1B:BBBBBBBB 1C:00000001 1D:000007D0 1E:00000008 1F:00000008
110: 01C12083  LW x1, 28(x2)       00:00000000 01:000000F0 02:000006CC 05:00000018 06:0000001C 07:0000000A 08:000007EC 09:11111111 0A:00000007 0B:00000003 0C:00000007 0D:00000002 12:22222222 13:33333333 14:44444444 15:55555555 16:66666666 17:77777777 18:88888888 19:99999999 1A:AAAAAAAA 1B:BBBBBBBB 1C:00000001 1D:000007D0 1E:00000008 1F:00000008
114: 02010113  ADDI x2, x2, 32     00:00000000 01:00000134 02:000006CC 05:00000018 06:0000001C 07:0000000A 08:000007EC 09:11111111 0A:00000007 0B:00000003 0C:00000007 0D:00000002 12:22222222 13:33333333 14:44444444 15:55555555 16:66666666 17:77777777 18:88888888 19:99999999 1A:AAAAAAAA 1B:BBBBBBBB 1C:00000001 1D:000007D0 1E:00000008 1F:00000008
118: 00008067  JALR x0, 0(x1)      00:00000000 01:00000134 02:000006EC 05:00000018 06:0000001C 07:0000000A 08:000007EC 09:11111111 0A:00000007 0B:00000003 0C:00000007 0D:00000002 12:22222222 13:33333333 14:44444444 15:55555555 16:66666666 17:77777777 18:88888888 19:99999999 1A:AAAAAAAA 1B:BBBBBBBB 1C:00000001 1D:000007D0 1E:00000008 1F:00000008
134: 00050693  ADDI x13, x10, 0    00:00000000 01:00000134 02:000006EC 05:00000018 06:0000001C 07:0000000A 08:000007EC 09:11111111 0A:00000007 0B:00000003 0C:00000007 0D:00000002 12:22222222 13:33333333 14:44444444 15:55555555 16:66666666 17:77777777 18:88888888 19:99999999 1A:AAAAAAAA 1B:BBBBBBBB 1C:00000001 1D:000007D0 1E:00000008 1F:00000008
138: 00C12503  LW x10, 12(x2)      00:00000000 01:00000134 02:000006EC 05:00000018 06:0000001C 07:0000000A 08:000007EC 09:11111111 0A:00000007 0B:00000003 0C:00000007 0D:00000007 12:22222222 13:33333333 14:44444444 15:55555555 16:66666666 17:77777777 18:88888888 19:99999999 1A:AAAAAAAA 1B:BBBBBBBB 1C:00000001 1D:000007D0 1E:00000008 1F:00000008
13C: FFF68613  ADDI x12, x13, -1   00:00000000 01:00000134 02:000006EC 05:00000018 06:0000001C 07:0000000A 08:000007EC 09:11111111 0A:000007B8 0B:00000003 0C:00000007 0D:00000007 12:22222222 13:33333333 14:44444444 15:55555555 16:66666666 17:77777777 18:88888888 19:99999999 1A:AAAAAAAA 1B:BBBBBBBB 1C:00000001 1D:000007D0 1E:00000008 1F:00000008
140: FDDFF0EF  JAL x1, -36         00:00000000 01:00000134 02:000006EC 05:00000018 06:0000001C 07:0000000A 08:000007EC 09:11111111 0A:000007B8 0B:00000003 0C:00000006 0D:00000007 12:22222222 13:33333333 14:44444444 15:55555555 16:66666666 17:77777777 18:88888888 19:99999999 1A:AAAAAAAA 1B:BBBBBBBB 1C:00000001 1D:000007D0 1E:00000008 1F:00000008
11C: FE010113  ADDI x2, x2, -32    00:00000000 01:00000144 02:000006EC 05:00000018 06:0000001C 07:0000000A 08:000007EC 09:11111111 0A:000007B8 0B:00000003 0C:00000006 0D:00000007 12:22222222 13:33333333 14:44444444 15:55555555 16:66666666 17:77777777 18:88888888 19:99999999 1A:AAAAAAAA 1B:BBBBBBBB 1C:00000001 1D:000007D0 1E:00000008 1F:00000008
120: 00112E23  SW x1, 28(x2)       00:00000000 01:00000144 02:000006CC 05:00000018 06:0000001C 07:0000000A 08:000007EC 09:11111111 0A:000007B8 0B:00000003 0C:00000006 0D:00000007 12:22222222 13:33333333 14:44444444 15:55555555 16:66666666 17:77777777 18:88888888 19:99999999 1A:AAAAAAAA 1B:BBBBBBBB 1C:00000001 1D:000007D0 1E:00000008 1F:00000008
124: 00C12A23  SW x12, 20(x2)      00:00000000 01:00000144 02:000006CC 05:00000018 06:0000001C 07:0000000A 08:000007EC 09:11111111 0A:000007B8 0B:00000003 0C:00000006 0D:00000007 12:22222222 13:33333333 14:44444444 15:55555555 16:66666666 17:77777777 18:88888888 19:99999999 1A:AAAAAAAA 1B:BBBBBBBB 1C:00000001 1D:000007D0 1E:00000008 1F:00000008
128: 00A12623  SW x10, 12(x2)      00:00000000 01:00000144 02:000006CC 05:00000018 06:0000001C 07:0000000A 08:000007EC 09:11111111 0A:000007B8 0B:00000003 0C:00000006 0D:00000007 12:22222222 13:33333333 14:44444444 15:55555555 16:66666666 17:77777777 18:88888888 19:99999999 1A:AAAAAAAA 1B:BBBBBBBB 1C:00000001 1D:000007D0 1E:00000008 1F:00000008
12C: 02C5D463  BGE x11, x12, 40    00:00000000 01:00000144 02:000006CC 05:00000018 06:0000001C 07:0000000A 08:000007EC 09:11111111 0A:000007B8 0B:00000003 0C:00000006 0D:00000007 12:22222222 13:33333333 14:44444444 15:55555555 16:66666666 17:77777777 18:88888888 19:99999999 1A:AAAAAAAA 1B:BBBBBBBB 1C:00000001 1D:000007D0 1E:00000008 1F:00000008
130: F35FF0EF  JAL x1, -204        00:00000000 01:00000144 02:000006CC 05:00000018 06:0000001C 07:0000000A 08:000007EC 09:11111111 0A:000007B8 0B:00000003 0C:00000006 0D:00000007 12:22222222 13:33333333 14:44444444 15:55555555 16:66666666 17:77777777 18:88888888 19:99999999 1A:AAAAAAAA 1B:BBBBBBBB 1C:00000001 1D:000007D0 1E:00000008 1F:00000008
064: FE010113  ADDI x2, x2, -32    00:00000000 01:00000134 02:000006CC 05:00000018 06:0000001C 07:0000000A 08:000007EC 09:11111111 0A:000007B8 0B:00000003 0C:00000006 0D:00000007 12:22222222 13:33333333 14:44444444 15:55555555 16:66666666 17:77777777 18:88888888 19:99999999 1A:AAAAAAAA 1B:BBBBBBBB 1C:00000001 1D:000007D0 1E:00000008 1F:00000008
068: 00112E23  SW x1, 28(x2)       00:00000000 01:00000134 02:000006AC 05:00000018 06:0000001C 07:0000000A 08:000007EC 09:11111111 0A:000007B8 0B:00000003 0C:00000006 0D:00000007 12:22222222 13:33333333 14:44444444 15:55555555 16:66666666 17:77777777 18:88888888 19:99999999 1A:AAAAAAAA 1B:BBBBBBBB 1C:00000001 1D:000007D0 1E:00000008 1F:00000008
06C: 00912C23  SW x9, 24(x2)       00:00000000 01:00000134 02:000006AC 05:00000018 06:0000001C 07:0000000A 08:000007EC 09:11111111 0A:000007B8 0B:00000003 0C:00000006 0D:00000007 12:22222222 13:33333333 14:44444444 15:55555555 16:66666666 17:77777777 18:88888888 19:99999999 1A:AAAAAAAA 1B:BBBBBBBB 1C:00000001 1D:000007D0 1E:00000008 1F:00000008
070: 01212A23  SW x18, 20(x2)      00:00000000 01:00000134 02:000006AC 05:00000018 06:0000001C 07:0000000A 08:000007EC 09:11111111 0A:000007B8 0B:00000003 0C:00000006 0D:00000007 12:22222222 13:33333333 14:44444444 15:55555555 16:66666666 17:77777777 18:88888888 19:99999999 1A:AAAAAAAA 1B:BBBBBBBB 1C:00000001 1D:000007D0 1E:00000008 1F:00000008
074: 01312823  SW x19, 16(x2)      00:00000000 01:00000134 02:000006AC 05:00000018 06:0000001C 07:0000000A 08:000007EC 09:11111111 0A:000007B8 0B:00000003 0C:00000006 0D:00000007 12:22222222 13:33333333 14:44444444 15:55555555 16:66666666 17:77777777 18:88888888 19:99999999 1A:AAAAAAAA 1B:BBBBBBBB 1C:00000001 1D:000007D0 1E:00000008 1F:00000008
078: 01412623  SW x20, 12(x2)      00:00000000 01:00000134 02:000006AC 05:00000018 06:0000001C 07:0000000A 08:000007EC 09:11111111 0A:000007B8 0B:00000003 0C:00000006 0D:00000007 12:22222222 13:33333333 14:44444444 15:55555555 16:66666666 17:77777777 18:88888888 19:99999999 1A:AAAAAAAA 1B:BBBBBBBB 1C:00000001 1D:000007D0 1E:00000008 1F:00000008
07C: 01512423  SW x21, 8(x2)       00:00000000 01:00000134 02:000006AC 05:00000018 06:0000001C 07:0000000A 08:000007EC 09:11111111 0A:000007B8 0B:00000003 0C:00000006 0D:00000007 12:22222222 13:33333333 14:44444444 15:55555555 16:66666666 17:77777777 18:88888888 19:99999999 1A:AAAAAAAA 1B:BBBBBBBB 1C:00000001 1D:000007D0 1E:00000008 1F:00000008
080: 00B12223  SW x11, 4(x2)       00:00000000 01:00000134 02:000006AC 05:00000018 06:0000001C 07:0000000A 08:000007EC 09:11111111 0A:000007B8 0B:00000003 0C:00000006 0D:00000007 12:22222222 13:33333333 14:44444444 15:55555555 16:66666666 17:77777777 18:88888888 19:99999999 1A:AAAAAAAA 1B:BBBBBBBB 1C:00000001 1D:000007D0 1E:00000008 1F:00000008
084: 00C12023  SW x12, 0(x2)       00:00000000 01:00000134 02:000006AC 05:00000018 06:0000001C 07:0000000A 08:000007EC 09:11111111 0A:000007B8 0B:00000003 0C:00000006 0D:00000007 12:22222222 13:33333333 14:44444444 15:55555555 16:66666666 17:77777777 18:88888888 19:99999999 1A:AAAAAAAA 1B:BBBBBBBB 1C:00000001 1D:000007D0 1E:00000008 1F:00000008
088: 00200A13  ADDI x20, x0, 2     00:00000000 01:00000134 02:000006AC 05:00000018 06:0000001C 07:0000000A 08:000007EC 09:11111111 0A:000007B8 0B:00000003 0C:00000006 0D:00000007 12:22222222 13:33333333 14:44444444 15:55555555 16:66666666 17:77777777 18:88888888 19:99999999 1A:AAAAAAAA 1B:BBBBBBBB 1C:00000001 1D:000007D0 1E:00000008 1F:00000008
08C: 01461333  SLL x6, x12, x20    00:00000000 01:00000134 02:000006AC 05:00000018 06:0000001C 07:0000000A 08:000007EC 09:11111111 0A:000007B8 0B:00000003 0C:00000006 0D:00000007 12:22222222 13:33333333 14:00000002 15:55555555 16:66666666 17:77777777 18:88888888 19:99999999 1A:AAAAAAAA 1B:BBBBBBBB 1C:00000001 1D:000007D0 1E:00000008 1F:00000008
090: 00650AB3  ADD x21, x10, x6    00:00000000 01:00000134 02:000006AC 05:00000018 06:00000018 07:0000000A 08:000007EC 09:11111111 0A:000007B8 0B:00000003 0C:00000006 0D:00000007 12:22222222 13:33333333 14:00000002 15:55555555 16:66666666 17:77777777 18:88888888 19:99999999 1A:AAAAAAAA 1B:BBBBBBBB 1C:00000001 1D:000007D0 1E:00000008 1F:00000008
094: 000AA903  LW x18, 0(x21)      00:00000000 01:00000134 02:000006AC 05:00000018 06:00000018 07:0000000A 08:000007EC 09:11111111 0A:000007B8 0B:00000003 0C:00000006 0D:00000007 12:22222222 13:33333333 14:00000002 15:000007D0 16:66666666 17:77777777 18:88888888 19:99999999 1A:AAAAAAAA 1B:BBBBBBBB 1C:00000001 1D:000007D0 1E:00000008 1F:00000008
098: 00058493  ADDI x9, x11, 0     00:00000000 01:00000134 02:000006AC 05:00000018 06:00000018 07:0000000A 08:000007EC 09:11111111 0A:000007B8 0B:00000003 0C:00000006 0D:00000007 12:00000004 13:33333333 14:00000002 15:000007D0 16:66666666 17:77777777 18:88888888 19:99999999 1A:AAAAAAAA 1B:BBBBBBBB 1C:00000001 1D:000007D0 1E:00000008 1F:00000008
09C: FFF58993  ADDI x19, x11, -1   00:00000000 01:00000134 02:000006AC 05:00000018 06:00000018 07:0000000A 08:000007EC 09:00000003 0A:000007B8 0B:00000003 0C:00000006 0D:00000007 12:00000004 13:33333333 14:00000002 15:000007D0 16:66666666 17:77777777 18:88888888 19:99999999 1A:AAAAAAAA 1B:BBBBBBBB 1C:00000001 1D:000007D0 1E:00000008 1F:00000008
0A0: 02C4DE63  BGE x9, x12, 60     00:00000000 01:00000134 02:000006AC 05:00000018 06:00000018 07:0000000A 08:000007EC 09:00000003 0A:000007B8 0B:00000003 0C:00000006 0D:00000007 12:00000004 13:00000002 14:00000002 15:000007D0 16:66666666 17:77777777 18:88888888 19:99999999 1A:AAAAAAAA 1B:BBBBBBBB 1C:00000001 1D:000007D0 1E:00000008 1F:00000008
0A4: 014492B3  SLL x5, x9, x20     00:00000000 01:00000134 02:000006AC 05:00000018 06:00000018 07:0000000A 08:000007EC 09:00000003 0A:000007B8 0B:00000003 0C:00000006 0D:00000007 12:00000004 13:00000002 14:00000002 15:000007D0 16:66666666 17:77777777 18:88888888 19:99999999 1A:AAAAAAAA 1B:BBBBBBBB 1C:00000001 1D:000007D0 1E:00000008 1F:00000008
0A8: 00550EB3  ADD x29, x10, x5    00:00000000 01:00000134 02:000006AC 05:0000000C 06:00000018 07:0000000A 08:000007EC 09:00000003 0A:000007B8 0B:00000003 0C:00000006 0D:00000007 12:00000004 13:00000002 14:00000002 15:000007D0 16:66666666 17:77777777 18:88888888 19:99999999 1A:AAAAAAAA 1B:BBBBBBBB 1C:00000001 1D:000007D0 1E:00000008 1F:00000008
0AC: 000EAF83  LW x31, 0(x29)      00:00000000 01:00000134 02:000006AC 05:0000000C 06:00000018 07:0000000A 08:000007EC 09:00000003 0A:000007B8 0B:00000003 0C:00000006 0D:00000007 12:00000004 13:00000002 14:00000002 15:000007D0 16:66666666 17:77777777 18:88888888 19:99999999 1A:AAAAAAAA 1B:BBBBBBBB 1C:00000001 1D:000007C4 1E:00000008 1F:00000008
0B0: 032FD263  BGE x31, x18, 36    00:00000000 01:00000134 02:000006AC 05:0000000C 06:00000018 07:0000000A 08:000007EC 09:00000003 0A:000007B8 0B:00000003 0C:00000006 0D:00000007 12:00000004 13:00000002 14:00000002 15:000007D0 16:66666666 17:77777777 18:88888888 19:99999999 1A:AAAAAAAA 1B:BBBBBBBB 1C:00000001 1D:000007C4 1E:00000008 1F:00000007
0D4: 00148493  ADDI x9, x9, 1      00:00000000 01:00000134 02:000006AC 05:0000000C 06:00000018 07:0000000A 08:000007EC 09:00000003 0A:000007B8 0B:00000003 0C:00000006 0D:00000007 12:00000004 13:00000002 14:00000002 15:000007D0 16:66666666 17:77777777 18:88888888 19:99999999 1A:AAAAAAAA 1B:BBBBBBBB 1C:00000001 1D:000007C4 1E:00000008 1F:00000007
0D8: FC9FF06F  JAL x0, -56         00:00000000 01:00000134 02:000006AC 05:0000000C 06:00000018 07:0000000A 08:000007EC 09:00000004 0A:000007B8 0B:00000003 0C:00000006 0D:00000007 12:00000004 13:00000002 14:00000002 15:000007D0 16:66666666 17:77777777 18:88888888 19:99999999 1A:AAAAAAAA 1B:BBBBBBBB 1C:00000001 1D:000007C4 1E:00000008 1F:00000007
0A0: 02C4DE63  BGE x9, x12, 60     00:00000000 01:00000134 02:000006AC 05:0000000C 06:00000018 07:0000000A 08:000007EC 09:00000004 0A:000007B8 0B:00000003 0C:00000006 0D:00000007 12:00000004 13:00000002 14:00000002 15:000007D0 16:66666666 17:77777777 18:88888888 19:99999999 1A:AAAAAAAA 1B:BBBBBBBB 1C:00000001 1D:000007C4 1E:00000008 1F:00000007
0A4: 014492B3  SLL x5, x9, x20     00:00000000 01:00000134 02:000006AC 05:0000000C 06:00000018 07:0000000A 08:000007EC 09:00000004 0A:000007B8 0B:00000003 0C:00000006 0D:00000007 12:00000004 13:00000002 14:00000002 15:000007D0 16:66666666 17:77777777 18:88888888 19:99999999 1A:AAAAAAAA 1B:BBBBBBBB 1C:00000001 1D:000007C4 1E:00000008 1F:00000007
0A8: 00550EB3  ADD x29, x10, x5    00:00000000 01:00000134 02:000006AC 05:00000010 06:00000018 07:0000000A 08:000007EC 09:00000004 0A:000007B8 0B:00000003 0C:00000006 0D:00000007 12:00000004 13:00000002 14:00000002 15:000007D0 16:66666666 17:77777777 18:88888888 19:99999999 1A:AAAAAAAA 1B:BBBBBBBB 1C:00000001 1D:000007C4 1E:00000008 1F:00000007
0AC: 000EAF83  LW x31, 0(x29)      00:00000000 01:00000134 02:000006AC 05:00000010 06:00000018 07:0000000A 08:000007EC 09:00000004 0A:000007B8 0B:00000003 0C:00000006 0D:00000007 12:00000004 13:00000002 14:00000002 15:000007D0 16:66666666 17:77777777 18:88888888 19:99999999 1A:AAAAAAAA 1B:BBBBBBBB 1C:00000001 1D:000007C8 1E:00000008 1F:00000007
0B0: 032FD263  BGE x31, x18, 36    00:00000000 01:00000134 02:000006AC 05:00000010 06:00000018 07:0000000A 08:000007EC 09:00000004 0A:000007B8 0B:00000003 0C:00000006 0D:00000007 12:00000004 13:00000002 14:00000002 15:000007D0 16:66666666 17:77777777 18:88888888 19:99999999 1A:AAAAAAAA 1B:BBBBBBBB 1C:00000001 1D:000007C8 1E:00000008 1F:00000006
0D4: 00148493  ADDI x9, x9, 1      00:00000000 01:00000134 02:000006AC 05:00000010 06:00000018 07:0000000A 08:000007EC 09:00000004 0A:000007B8 0B:00000003 0C:00000006 0D:00000007 12:00000004 13:00000002 14:00000002 15:000007D0 16:66666666 17:77777777 18:88888888 19:99999999 1A:AAAAAAAA 1B:BBBBBBBB 1C:00000001 1D:000007C8 1E:00000008 1F:00000006
0D8: FC9FF06F  JAL x0, -56         00:00000000 01:00000134 02:000006AC 05:00000010 06:00000018 07:0000000A 08:000007EC 09:00000005 0A:000007B8 0B:00000003 0C:00000006 0D:00000007 12:00000004 13:00000002 14:00000002 15:000007D0 16:66666666 17:77777777 18:88888888 19:99999999 1A:AAAAAAAA 1B:BBBBBBBB 1C:00000001 1D:000007C8 1E:00000008 1F:00000006
0A0: 02C4DE63  BGE x9, x12, 60     00:00000000 01:00000134 02:000006AC 05:00000010 06:00000018 07:0000000A 08:000007EC 09:00000005 0A:000007B8 0B:00000003 0C:00000006 0D:00000007 12:00000004 13:00000002 14:00000002 15:000007D0 16:66666666 17:77777777 18:88888888 19:99999999 1A:AAAAAAAA 1B:BBBBBBBB 1C:00000001 1D:000007C8 1E:00000008 1F:00000006
0A4: 014492B3  SLL x5, x9, x20     00:00000000 01:00000134 02:000006AC 05:00000010 06:00000018 07:0000000A 08:000007EC 09:00000005 0A:000007B8 0B:00000003 0C:00000006 0D:00000007 12:00000004 13:00000002 14:00000002 15:000007D0 16:66666666 17:77777777 18:88888888 19:99999999 1A:AAAAAAAA 1B:BBBBBBBB 1C:00000001 1D:000007C8 1E:00000008 1F:00000006
0A8: 00550EB3  ADD x29, x10, x5    00:00000000 01:00000134 02:000006AC 05:00000014 06:00000018 07:0000000A 08:000007EC 09:00000005 0A:000007B8 0B:00000003 0C:00000006 0D:00000007 12:00000004 13:00000002 14:00000002 15:000007D0 16:66666666 17:77777777 18:88888888 19:99999999 1A:AAAAAAAA 1B:BBBBBBBB 1C:00000001 1D:000007C8 1E:00000008 1F:00000006
0AC: 000EAF83  LW x31, 0(x29)      00:00000000 01:00000134 02:000006AC 05:00000014 06:00000018 07:0000000A 08:000007EC 09:00000005 0A:000007B8 0B:00000003 0C:00000006 0D:00000007 12:00000004 13:00000002 14:00000002 15:000007D0 16:66666666 17:77777777 18:88888888 19:99999999 1A:AAAAAAAA 1B:BBBBBBBB 1C:00000001 1D:000007CC 1E:00000008 1F:00000006
0B0: 032FD263  BGE x31, x18, 36    00:00000000 01:00000134 02:000006AC 05:00000014 06:00000018 07:0000000A 08:000007EC 09:00000005 0A:000007B8 0B:00000003 0C:00000006 0D:00000007 12:00000004 13:00000002 14:00000002 15:000007D0 16:66666666 17:77777777 18:88888888 19:99999999 1A:AAAAAAAA 1B:BBBBBBBB 1C:00000001 1D:000007CC 1E:00000008 1F:00000005
0D4: 00148493  ADDI x9, x9, 1      00:00000000 01:00000134 02:000006AC 05:00000014 06:00000018 07:0000000A 08:000007EC 09:00000005 0A:000007B8 0B:00000003 0C:00000006 0D:00000007 12:00000004 13:00000002 14:00000002 15:000007D0 16:66666666 17:77777777 18:88888888 19:99999999 1A:AAAAAAAA 1B:BBBBBBBB 1C:00000001 1D:000007CC 1E:00000008 1F:00000005
0D8: FC9FF06F  JAL x0, -56         00:00000000 01:00000134 02:000006AC 05:00000014 06:00000018 07:0000000A 08:000007EC 09:00000006 0A:000007B8 0B:00000003 0C:00000006 0D:00000007 12:00000004 13:00000002 14:00000002 15:000007D0 16:66666666 17:77777777 18:88888888 19:99999999 1A:AAAAAAAA 1B:BBBBBBBB 1C:00000001 1D:000007CC 1E:00000008 1F:00000005
0A0: 02C4DE63  BGE x9, x12, 60     00:00000000 01:00000134 02:000006AC 05:00000014 06:00000018 07:0000000A 08:000007EC 09:00000006 0A:000007B8 0B:00000003 0C:00000006 0D:00000007 12:00000004 13:00000002 14:00000002 15:000007D0 16:66666666 17:77777777 18:88888888 19:99999999 1A:AAAAAAAA 1B:BBBBBBBB 1C:00000001 1D:000007CC 1E:00000008 1F:00000005
0DC: 00198993  ADDI x19, x19, 1    00:00000000 01:00000134 02:000006AC 05:00000014 06:00000018 07:0000000A 08:000007EC 09:00000006 0A:000007B8 0B:00000003 0C:00000006 0D:00000007 12:00000004 13:00000002 14:00000002 15:000007D0 16:66666666 17:77777777 18:88888888 19:99999999 1A:AAAAAAAA 1B:BBBBBBBB 1C:00000001 1D:000007CC 1E:00000008 1F:00000005
0E0: 01499333  SLL x6, x19, x20    00:00000000 01:00000134 02:000006AC 05:00000014 06:00000018 07:0000000A 08:000007EC 09:00000006 0A:000007B8 0B:00000003 0C:00000006 0D:00000007 12:00000004 13:00000003 14:00000002 15:000007D0 16:66666666 17:77777777 18:88888888 19:99999999 1A:AAAAAAAA 1B:BBBBBBBB 1C:00000001 1D:000007CC 1E:00000008 1F:00000005
0E4: 006505B3  ADD x11, x10, x6    00:00000000 01:00000134 02:000006AC 05:00000014 06:0000000C 07:0000000A 08:000007EC 09:00000006 0A:000007B8 0B:00000003 0C:00000006 0D:00000007 12:00000004 13:00000003 14:00000002 15:000007D0 16:66666666 17:77777777 18:88888888 19:99999999 1A:AAAAAAAA 1B:BBBBBBBB 1C:00000001 1D:000007CC 1E:00000008 1F:00000005
0E8: 000A8613  ADDI x12, x21, 0    00:00000000 01:00000134 02:000006AC 05:00000014 06:0000000C 07:0000000A 08:000007EC 09:00000006 0A:000007B8 0B:000007C4 0C:00000006 0D:00000007 12:00000004 13:00000003 14:00000002 15:000007D0 16:66666666 17:77777777 18:88888888 19:99999999 1A:AAAAAAAA 1B:BBBBBBBB 1C:00000001 1D:000007CC 1E:00000008 1F:00000005
0EC: F55FF0EF  JAL x1, -172        00:00000000 01:00000134 02:000006AC 05:00000014 06:0000000C 07:0000000A 08:000007EC 09:00000006 0A:000007B8 0B:000007C4 0C:000007D0 0D:00000007 12:00000004 13:00000003 14:00000002 15:000007D0 16:66666666 17:77777777 18:88888888 19:99999999 1A:AAAAAAAA 1B:BBBBBBBB 1C:00000001 1D:000007CC 1E:00000008 1F:00000005
040: FE010113  ADDI x2, x2, -32    00:00000000 01:000000F0 02:000006AC 05:00000014 06:0000000C 07:0000000A 08:000007EC 09:00000006 0A:000007B8 0B:000007C4 0C:000007D0 0D:00000007 12:00000004 13:00000003 14:00000002 15:000007D0 16:66666666 17:77777777 18:88888888 19:99999999 1A:AAAAAAAA 1B:BBBBBBBB 1C:00000001 1D:000007CC 1E:00000008 1F:00000005
044: 00112E23  SW x1, 28(x2)       00:00000000 01:000000F0 02:0000068C 05:00000014 06:0000000C 07:0000000A 08:000007EC 09:00000006 0A:000007B8 0B:000007C4 0C:000007D0 0D:00000007 12:00000004 13:00000003 14:00000002 15:000007D0 16:66666666 17:77777777 18:88888888 19:99999999 1A:AAAAAAAA 1B:BBBBBBBB 1C:00000001 1D:000007CC 1E:00000008 1F:00000005
048: 0005AF03  LW x30, 0(x11)      00:00000000 01:000000F0 02:0000068C 05:00000014 06:0000000C 07:0000000A 08:000007EC 09:00000006 0A:000007B8 0B:000007C4 0C:000007D0 0D:00000007 12:00000004 13:00000003 14:00000002 15:000007D0 16:66666666 17:77777777 18:88888888 19:99999999 1A:AAAAAAAA 1B:BBBBBBBB 1C:00000001 1D:000007CC 1E:00000008 1F:00000005
04C: 00062F83  LW x31, 0(x12)      00:00000000 01:000000F0 02:0000068C 05:00000014 06:0000000C 07:0000000A 08:000007EC 09:00000006 0A:000007B8 0B:000007C4 0C:000007D0 0D:00000007 12:00000004 13:00000003 14:00000002 15:000007D0 16:66666666 17:77777777 18:88888888 19:99999999 1A:AAAAAAAA 1B:BBBBBBBB 1C:00000001 1D:000007CC 1E:00000007 1F:00000005
050: 01F5A023  SW x31, 0(x11)      00:00000000 01:000000F0 02:0000068C 05:00000014 06:0000000C 07:0000000A 08:000007EC 09:00000006 0A:000007B8 0B:000007C4 0C:000007D0 0D:00000007 12:00000004 13:00000003 14:00000002 15:000007D0 16:66666666 17:77777777 18:88888888 19:99999999 1A:AAAAAAAA 1B:BBBBBBBB 1C:00000001 1D:000007CC 1E:00000007 1F:00000004
054: 01E62023  SW x30, 0(x12)      00:00000000 01:000000F0 02:0000068C 05:00000014 06:0000000C 07:0000000A 08:000007EC 09:00000006 0A:000007B8 0B:000007C4 0C:000007D0 0D:00000007 12:00000004 13:00000003 14:00000002 15:000007D0 16:66666666 17:77777777 18:88888888 19:99999999 1A:AAAAAAAA 1B:BBBBBBBB 1C:00000001 1D:000007CC 1E:00000007 1F:00000004
058: 01C12083  LW x1, 28(x2)       00:00000000 01:000000F0 02:0000068C 05:00000014 06:0000000C 07:0000000A 08:000007EC 09:00000006 0A:000007B8 0B:000007C4 0C:000007D0 0D:00000007 12:00000004 13:00000003 14:00000002 15:000007D0 16:66666666 17:77777777 18:88888888 19:99999999 1A:AAAAAAAA 1B:BBBBBBBB 1C:00000001 1D:000007CC 1E:00000007 1F:00000004
05C: 02010113  ADDI x2, x2, 32     00:00000000 01:000000F0 02:0000068C 05:00000014 06:0000000C 07:0000000A 08:000007EC 09:00000006 0A:000007B8 0B:000007C4 0C:000007D0 0D:00000007 12:00000004 13:00000003 14:00000002 15:000007D0 16:66666666 17:77777777 18:88888888 19:99999999 1A:AAAAAAAA 1B:BBBBBBBB 1C:00000001 1D:000007CC 1E:00000007 1F:00000004
060: 00008067  JALR x0, 0(x1)      00:00000000 01:000000F0 02:000006AC 05:00000014 06:0000000C 07:0000000A 08:000007EC 09:00000006 0A:000007B8 0B:000007C4 0C:000007D0 0D:00000007 12:00000004 13:00000003 14:00000002 15:000007D0 16:66666666 17:77777777 18:88888888 19:99999999 1A:AAAAAAAA 1B:BBBBBBBB 1C:00000001 1D:000007CC 1E:00000007 1F:00000004
0F0: 00412583  LW x11, 4(x2)       00:00000000 01:000000F0 02:000006AC 05:00000014 06:0000000C 07:0000000A 08:000007EC 09:00000006 0A:000007B8 0B:000007C4 0C:000007D0 0D:00000007 12:00000004 13:00000003 14:00000002 15:000007D0 16:66666666 17:77777777 18:88888888 19:99999999 1A:AAAAAAAA 1B:BBBBBBBB 1C:00000001 1D:000007CC 1E:00000007 1F:00000004
0F4: 00012603  LW x12, 0(x2)       00:00000000 01:000000F0 02:000006AC 05:00000014 06:0000000C 07:0000000A 08:000007EC 09:00000006 0A:000007B8 0B:00000003 0C:000007D0 0D:00000007 12:00000004 13:00000003 14:00000002 15:000007D0 16:66666666 17:77777777 18:88888888 19:99999999 1A:AAAAAAAA 1B:BBBBBBBB 1C:00000001 1D:000007CC 1E:00000007 1F:00000004
0F8: 00098513  ADDI x10, x19, 0    00:00000000 01:000000F0 02:000006AC 05:00000014 06:0000000C 07:0000000A 08:000007EC 09:00000006 0A:000007B8 0B:00000003 0C:00000006 0D:00000007 12:00000004 13:00000003 14:00000002 15:000007D0 16:66666666 17:77777777 18:88888888 19:99999999 1A:AAAAAAAA 1B:BBBBBBBB 1C:00000001 1D:000007CC 1E:00000007 1F:00000004
0FC: 01812483  LW x9, 24(x2)       00:00000000 01:000000F0 02:000006AC 05:00000014 06:0000000C 07:0000000A 08:000007EC 09:00000006 0A:00000003 0B:00000003 0C:00000006 0D:00000007 12:00000004 13:00000003 14:00000002 15:000007D0 16:66666666 17:77777777 18:88888888 19:99999999 1A:AAAAAAAA 1B:BBBBBBBB 1C:00000001 1D:000007CC 1E:00000007 1F:00000004
100: 01412903  LW x18, 20(x2)      00:00000000 01:000000F0 02:000006AC 05:00000014 06:0000000C 07:0000000A 08:000007EC 09:11111111 0A:00000003 0B:00000003 0C:00000006 0D:00000007 12:00000004 13:00000003 14:00000002 15:000007D0 16:66666666 17:77777777 18:88888888 19:99999999 1A:AAAAAAAA 1B:BBBBBBBB 1C:00000001 1D:000007CC 1E:00000007 1F:00000004
104: 01012983  LW x19, 16(x2)      00:00000000 01:000000F0 02:000006AC 05:00000014 06:0000000C 07:0000000A 08:000007EC 09:11111111 0A:00000003 0B:00000003 0C:00000006 0D:00000007 12:22222222 13:00000003 14:00000002 15:000007D0 16:66666666 17:77777777 18:88888888 19:99999999 1A:AAAAAAAA 1B:BBBBBBBB 1C:00000001 1D:000007CC 1E:00000007 1F:00000004
108: 00C12A03  LW x20, 12(x2)      00:00000000 01:000000F0 02:000006AC 05:00000014 06:0000000C 07:0000000A 08:000007EC 09:11111111 0A:00000003 0B:00000003 0C:00000006 0D:00000007 12:22222222 13:33333333 14:00000002 15:000007D0 16:66666666 17:77777777 18:88888888 19:99999999 1A:AAAAAAAA 1B:BBBBBBBB 1C:00000001 1D:000007CC 1E:00000007 1F:00000004
10C: 00812A83  LW x21, 8(x2)       00:00000000 01:000000F0 02:000006AC 05:00000014 06:0000000C 07:0000000A 08:000007EC 09:11111111 0A:00000003 0B:00000003 0C:00000006 0D:00000007 12:22222222 13:33333333 14:44444444 15:000007D0 16:66666666 17:77777777 18:88888888 19:99999999 1A:AAAAAAAA 1B:BBBBBBBB 1C:00000001 1D:000007CC 1E:00000007 1F:00000004
110: 01C12083  LW x1, 28(x2)       00:00000000 01:000000F0 02:000006AC 05:00000014 06:0000000C 07:0000000A 08:000007EC 09:11111111 0A:00000003 0B:00000003 0C:00000006 0D:00000007 12:22222222 13:33333333 14:44444444 15:55555555 16:66666666 17:77777777 18:88888888 19:99999999 1A:AAAAAAAA 1B:BBBBBBBB 1C:00000001 1D:000007CC 1E:00000007 1F:00000004
114: 02010113  ADDI x2, x2, 32     00:00000000 01:00000134 02:000006AC 05:00000014 06:0000000C 07:0000000A 08:000007EC 09:11111111 0A:00000003 0B:00000003 0C:00000006 0D:00000007 12:22222222 13:33333333 14:44444444 15:55555555 16:66666666 17:77777777 18:88888888 19:99999999 1A:AAAAAAAA 1B:BBBBBBBB 1C:00000001 1D:000007CC 1E:00000007 1F:00000004
118: 00008067  JALR x0, 0(x1)      00:00000000 01:00000134 02:000006CC 05:00000014 06:0000000C 07:0000000A 08:000007EC 09:11111111 0A:00000003 0B:00000003 0C:00000006 0D:00000007 12:22222222 13:33333333 14:44444444 15:55555555 16:66666666 17:77777777 18:88888888 19:99999999 1A:AAAAAAAA 1B:BBBBBBBB 1C:00000001 1D:000007CC 1E:00000007 1F:00000004
134: 00050693  ADDI x13, x10, 0    00:00000000 01:00000134 02:000006CC 05:00000014 06:0000000C 07:0000000A 08:000007EC 09:11111111 0A:00000003 0B:00000003 0C:00000006 0D:00000007 12:22222222 13:33333333 14:44444444 15:55555555 16:66666666 17:77777777 18:88888888 19:99999999 1A:AAAAAAAA 1B:BBBBBBBB 1C:00000001 1D:000007CC 1E:00000007 1F:00000004
138: 00C12503  LW x10, 12(x2)      00:00000000 01:00000134 02:000006CC 05:00000014 06:0000000C 07:0000000A 08:000007EC 09:11111111 0A:00000003 0B:00000003 0C:00000006 0D:00000003 12:22222222 13:33333333 14:44444444 15:55555555 16:66666666 17:77777777 18:88888888 19:99999999 1A:AAAAAAAA 1B:BBBBBBBB 1C:00000001 1D:000007CC 1E:00000007 1F:00000004
13C: FFF68613  ADDI x12, x13, -1   00:00000000 01:00000134 02:000006CC 05:00000014 06:0000000C 07:0000000A 08:000007EC 09:11111111 0A:000007B8 0B:00000003 0C:00000006 0D:00000003 12:22222222 13:33333333 14:44444444 15:55555555 16:66666666 17:77777777 18:88888888 19:99999999 1A:AAAAAAAA 1B:BBBBBBBB 1C:00000001 1D:000007CC 1E:00000007 1F:00000004
140: FDDFF0EF  JAL x1, -36         00:00000000 01:00000134 02:000006CC 05:00000014 06:0000000C 07:0000000A 08:000007EC 09:11111111 0A:000007B8 0B:00000003 0C:00000002 0D:00000003 12:22222222 13:33333333 14:44444444 15:55555555 16:66666666 17:77777777 18:88888888 19:99999999 1A:AAAAAAAA 1B:BBBBBBBB 1C:00000001 1D:000007CC 1E:00000007 1F:00000004
11C: FE010113  ADDI x2, x2, -32    00:00000000 01:00000144 02:000006CC 05:00000014 06:0000000C 07:0000000A 08:000007EC 09:11111111 0A:000007B8 0B:00000003 0C:00000002 0D:00000003 12:22222222 13:33333333 14:44444444 15:55555555 16:66666666 17:77777777 18:88888888 19:99999999 1A:AAAAAAAA 1B:BBBBBBBB 1C:00000001 1D:000007CC 1E:00000007 1F:00000004
120: 00112E23  SW x1, 28(x2)       00:00000000 01:00000144 02:000006AC 05:00000014 06:0000000C 07:0000000A 08:000007EC 09:11111111 0A:000007B8 0B:00000003 0C:00000002 0D:00000003 12:22222222 13:33333333 14:44444444 15:55555555 16:66666666 17:77777777 18:88888888 19:99999999 1A:AAAAAAAA 1B:BBBBBBBB 1C:00000001 1D:000007CC 1E:00000007 1F:00000004
124: 00C12A23  SW x12, 20(x2)      00:00000000 01:00000144 02:000006AC 05:00000014 06:0000000C 07:0000000A 08:000007EC 09:11111111 0A:000007B8 0B:00000003 0C:00000002 0D:00000003 12:22222222 13:33333333 14:44444444 15:55555555 16:66666666 17:77777777 18:88888888 19:99999999 1A:AAAAAAAA 1B:BBBBBBBB 1C:00000001 1D:000007CC 1E:00000007 1F:00000004
128: 00A12623  SW x10, 12(x2)      00:00000000 01:00000144 02:000006AC 05:00000014 06:0000000C 07:0000000A 08:000007EC 09:11111111 0A:000007B8 0B:00000003 0C:00000002 0D:00000003 12:22222222 13:33333333 14:44444444 15:55555555 16:66666666 17:77777777 18:88888888 19:99999999 1A:AAAAAAAA 1B:BBBBBBBB 1C:00000001 1D:000007CC 1E:00000007 1F:00000004
12C: 02C5D463  BGE x11, x12, 40    00:00000000 01:00000144 02:000006AC 05:00000014 06:0000000C 07:0000000A 08:000007EC 09:11111111 0A:000007B8 0B:00000003 0C:00000002 0D:00000003 12:22222222 13:33333333 14:44444444 15:55555555 16:66666666 17:77777777 18:88888888 19:99999999 1A:AAAAAAAA 1B:BBBBBBBB 1C:00000001 1D:000007CC 1E:00000007 1F:00000004
154: 01C12083  LW x1, 28(x2)       00:00000000 01:00000144 02:000006AC 05:00000014 06:0000000C 07:0000000A 08:000007EC 09:11111111 0A:000007B8 0B:00000003 0C:00000002 0D:00000003 12:22222222 13:33333333 14:44444444 15:55555555 16:66666666 17:77777777 18:88888888 19:99999999 1A:AAAAAAAA 1B:BBBBBBBB 1C:00000001 1D:000007CC 1E:00000007 1F:00000004
158: 02010113  ADDI x2, x2, 32     00:00000000 01:00000144 02:000006AC 05:00000014 06:0000000C 07:0000000A 08:000007EC 09:11111111 0A:000007B8 0B:00000003 0C:00000002 0D:00000003 12:22222222 13:33333333 14:44444444 15:55555555 16:66666666 17:77777777 18:88888888 19:99999999 1A:AAAAAAAA 1B:BBBBBBBB 1C:00000001 1D:000007CC 1E:00000007 1F:00000004
15C: 00008067  JALR x0, 0(x1)      00:00000000 01:00000144 02:000006CC 05:00000014 06:0000000C 07:0000000A 08:000007EC 09:11111111 0A:000007B8 0B:00000003 0C:00000002 0D:00000003 12:22222222 13:33333333 14:44444444 15:55555555 16:66666666 17:77777777 18:88888888 19:99999999 1A:AAAAAAAA 1B:BBBBBBBB 1C:00000001 1D:000007CC 1E:00000007 1F:00000004
144: 00168593  ADDI x11, x13, 1    00:00000000 01:00000144 02:000006CC 05:00000014 06:0000000C 07:0000000A 08:000007EC 09:11111111 0A:000007B8 0B:00000003 0C:00000002 0D:00000003 12:22222222 13:33333333 14:44444444 15:55555555 16:66666666 17:77777777 18:88888888 19:99999999 1A:AAAAAAAA 1B:BBBBBBBB 1C:00000001 1D:000007CC 1E:00000007 1F:00000004
148: 01412603  LW x12, 20(x2)      00:00000000 01:00000144 02:000006CC 05:00000014 06:0000000C 07:0000000A 08:000007EC 09:11111111 0A:000007B8 0B:00000004 0C:00000002 0D:00000003 12:22222222 13:33333333 14:44444444 15:55555555 16:66666666 17:77777777 18:88888888 19:99999999 1A:AAAAAAAA 1B:BBBBBBBB 1C:00000001 1D:000007CC 1E:00000007 1F:00000004
14C: FD1FF0EF  JAL x1, -48         00:00000000 01:00000144 02:000006CC 05:00000014 06:0000000C 07:0000000A 08:000007EC 09:11111111 0A:000007B8 0B:00000004 0C:00000006 0D:00000003 12:22222222 13:33333333 14:44444444 15:55555555 16:66666666 17:77777777 18:88888888 19:99999999 1A:AAAAAAAA 1B:BBBBBBBB 1C:00000001 1D:000007CC 1E:00000007 1F:00000004
11C: FE010113  ADDI x2, x2, -32    00:00000000 01:00000150 02:000006CC 05:00000014 06:0000000C 07:0000000A 08:000007EC 09:11111111 0A:000007B8 0B:00000004 0C:00000006 0D:00000003 12:22222222 13:33333333 14:44444444 15:55555555 16:66666666 17:77777777 18:88888888 19:99999999 1A:AAAAAAAA 1B:BBBBBBBB 1C:00000001 1D:000007CC 1E:00000007 1F:00000004
120: 00112E23  SW x1, 28(x2)       00:00000000 01:00000150 02:000006AC 05:00000014 06:0000000C 07:0000000A 08:000007EC 09:11111111 0A:000007B8 0B:00000004 0C:00000006 0D:00000003 12:22222222 13:33333333 14:44444444 15:55555555 16:66666666 17:77777777 18:88888888 19:99999999 1A:AAAAAAAA 1B:BBBBBBBB 1C:00000001 1D:000007CC 1E:00000007 1F:00000004
124: 00C12A23  SW x12, 20(x2)      00:00000000 01:00000150 02:000006AC 05:00000014 06:0000000C 07:0000000A 08:000007EC 09:11111111 0A:000007B8 0B:00000004 0C:00000006 0D:00000003 12:22222222 13:33333333 14:44444444 15:55555555 16:66666666 17:77777777 18:88888888 19:99999999 1A:AAAAAAAA 1B:BBBBBBBB 1C:00000001 1D:000007CC 1E:00000007 1F:00000004
128: 00A12623  SW x10, 12(x2)      00:00000000 01:00000150 02:000006AC 05:00000014 06:0000000C 07:0000000A 08:000007EC 09:11111111 0A:000007B8 0B:00000004 0C:00000006 0D:00000003 12:22222222 13:33333333 14:44444444 15:55555555 16:66666666 17:77777777 18:88888888 19:99999999 1A:AAAAAAAA 1B:BBBBBBBB 1C:00000001 1D:000007CC 1E:00000007 1F:00000004
12C: 02C5D463  BGE x11, x12, 40    00:00000000 01:00000150 02:000006AC 05:00000014 06:0000000C 07:0000000A 08:000007EC 09:11111111 0A:000007B8 0B:00000004 0C:00000006 0D:00000003 12:22222222 13:33333333 14:44444444 15:55555555 16:66666666 17:77777777 18:88888888 19:99999999 1A:AAAAAAAA 1B:BBBBBBBB 1C:00000001 1D:000007CC 1E:00000007 1F:00000004
130: F35FF0EF  JAL x1, -204        00:00000000 01:00000150 02:000006AC 05:00000014 06:0000000C 07:0000000A 08:000007EC 09:11111111 0A:000007B8 0B:00000004 0C:00000006 0D:00000003 12:22222222 13:33333333 14:44444444 15:55555555 16:66666666 17:77777777 18:88888888 19:99999999 1A:AAAAAAAA 1B:BBBBBBBB 1C:00000001 1D:000007CC 1E:00000007 1F:00000004
064: FE010113  ADDI x2, x2, -32    00:00000000 01:00000134 02:000006AC 05:00000014 06:0000000C 07:0000000A 08:000007EC 09:11111111 0A:000007B8 0B:00000004 0C:00000006 0D:00000003 12:22222222 13:33333333 14:44444444 15:55555555 16:66666666 17:77777777 18:88888888 19:99999999 1A:AAAAAAAA 1B:BBBBBBBB 1C:00000001 1D:000007CC 1E:00000007 1F:00000004
068: 00112E23  SW x1, 28(x2)       00:00000000 01:00000134 02:0000068C 05:00000014 06:0000000C 07:0000000A 08:000007EC 09:11111111 0A:000007B8 0B:00000004 0C:00000006 0D:00000003 12:22222222 13:33333333 14:44444444 15:55555555 16:66666666 17:77777777 18:88888888 19:99999999 1A:AAAAAAAA 1B:BBBBBBBB 1C:00000001 1D:000007CC 1E:00000007 1F:00000004
06C: 00912C23  SW x9, 24(x2)       00:00000000 01:00000134 02:0000068C 05:00000014 06:0000000C 07:0000000A 08:000007EC 09:11111111 0A:000007B8 0B:00000004 0C:00000006 0D:00000003 12:22222222 13:33333333 14:44444444 15:55555555 16:66666666 17:77777777 18:88888888 19:99999999 1A:AAAAAAAA 1B:BBBBBBBB 1C:00000001 1D:000007CC 1E:00000007 1F:00000004
070: 01212A23  SW x18, 20(x2)      00:00000000 01:00000134 02:0000068C 05:00000014 06:0000000C 07:0000000A 08:000007EC 09:11111111 0A:000007B8 0B:00000004 0C:00000006 0D:00000003 12:22222222 13:33333333 14:44444444 15:55555555 16:66666666 17:77777777 18:88888888 19:99999999 1A:AAAAAAAA 1B:BBBBBBBB 1C:00000001 1D:000007CC 1E:00000007 1F:00000004
074: 01312823  SW x19, 16(x2)      00:00000000 01:00000134 02:0000068C 05:00000014 06:0000000C 07:0000000A 08:000007EC 09:11111111 0A:000007B8 0B:00000004 0C:00000006 0D:00000003 12:22222222 13:33333333 14:44444444 15:55555555 16:66666666 17:77777777 18:88888888 19:99999999 1A:AAAAAAAA 1B:BBBBBBBB 1C:00000001 1D:000007CC 1E:00000007 1F:00000004
078: 01412623  SW x20, 12(x2)      00:00000000 01:00000134 02:0000068C 05:00000014 06:0000000C 07:0000000A 08:000007EC 09:11111111 0A:000007B8 0B:00000004 0C:00000006 0D:00000003 12:22222222 13:33333333 14:44444444 15:55555555 16:66666666 17:77777777 18:88888888 19:99999999 1A:AAAAAAAA 1B:BBBBBBBB 1C:00000001 1D:000007CC 1E:00000007 1F:00000004
07C: 01512423  SW x21, 8(x2)       00:00000000 01:00000134 02:0000068C 05:00000014 06:0000000C 07:0000000A 08:000007EC 09:11111111 0A:000007B8 0B:00000004 0C:00000006 0D:00000003 12:22222222 13:33333333 14:44444444 15:55555555 16:66666666 17:77777777 18:88888888 19:99999999 1A:AAAAAAAA 1B:BBBBBBBB 1C:00000001 1D:000007CC 1E:00000007 1F:00000004
080: 00B12223  SW x11, 4(x2)       00:00000000 01:00000134 02:0000068C 05:00000014 06:0000000C 07:0000000A 08:000007EC 09:11111111 0A:000007B8 0B:00000004 0C:00000006 0D:00000003 12:22222222 13:33333333 14:44444444 15:55555555 16:66666666 17:77777777 18:88888888 19:99999999 1A:AAAAAAAA 1B:BBBBBBBB 1C:00000001 1D:000007CC 1E:00000007 1F:00000004
084: 00C12023  SW x12, 0(x2)       00:00000000 01:00000134 02:0000068C 05:00000014 06:0000000C 07:0000000A 08:000007EC 09:11111111 0A:000007B8 0B:00000004 0C:00000006 0D:00000003 12:22222222 13:33333333 14:44444444 15:55555555 16:66666666 17:77777777 18:88888888 19:99999999 1A:AAAAAAAA 1B:BBBBBBBB 1C:00000001 1D:000007CC 1E:00000007 1F:00000004
088: 00200A13  ADDI x20, x0, 2     00:00000000 01:00000134 02:0000068C 05:00000014 06:0000000C 07:0000000A 08:000007EC 09:11111111 0A:000007B8 0B:00000004 0C:00000006 0D:00000003 12:22222222 13:33333333 14:44444444 15:55555555 16:66666666 17:77777777 18:88888888 19:99999999 1A:AAAAAAAA 1B:BBBBBBBB 1C:00000001 1D:000007CC 1E:00000007 1F:00000004
08C: 01461333  SLL x6, x12, x20    00:00000000 01:00000134 02:0000068C 05:00000014 06:0000000C 07:0000000A 08:000007EC 09:11111111 0A:000007B8 0B:00000004 0C:00000006 0D:00000003 12:22222222 13:33333333 14:00000002 15:55555555 16:66666666 17:77777777 18:88888888 19:99999999 1A:AAAAAAAA 1B:BBBBBBBB 1C:00000001 1D:000007CC 1E:00000007 1F:00000004
090: 00650AB3  ADD x21, x10, x6    00:00000000 01:00000134 02:0000068C 05:00000014 06:00000018 07:0000000A 08:000007EC 09:11111111 0A:000007B8 0B:00000004 0C:00000006 0D:00000003 12:22222222 13:33333333 14:00000002 15:55555555 16:66666666 17:77777777 18:88888888 19:99999999 1A:AAAAAAAA 1B:BBBBBBBB 1C:00000001 1D:000007CC 1E:00000007 1F:00000004
094: 000AA903  LW x18, 0(x21)      00:00000000 01:00000134 02:0000068C 05:00000014 06:00000018 07:0000000A 08:000007EC 09:11111111 0A:000007B8 0B:00000004 0C:00000006 0D:00000003 12:22222222 13:33333333 14:00000002 15:000007D0 16:66666666 17:77777777 18:88888888 19:99999999 1A:AAAAAAAA 1B:BBBBBBBB 1C:00000001 1D:000007CC 1E:00000007 1F:00000004
098: 00058493  ADDI x9, x11, 0     00:00000000 01:00000134 02:0000068C 05:00000014 06:00000018 07:0000000A 08:000007EC 09:11111111 0A:000007B8 0B:00000004 0C:00000006 0D:00000003 12:00000007 13:33333333 14:00000002 15:000007D0 16:66666666 17:77777777 18:88888888 19:99999999 1A:AAAAAAAA 1B:BBBBBBBB 1C:00000001 1D:000007CC 1E:00000007 1F:00000004
09C: FFF58993  ADDI x19, x11, -1   00:00000000 01:00000134 02:0000068C 05:00000014 06:00000018 07:0000000A 08:000007EC 09:00000004 0A:000007B8 0B:00000004 0C:00000006 0D:00000003 12:00000007 13:33333333 14:00000002 15:000007D0 16:66666666 17:77777777 18:88888888 19:99999999 1A:AAAAAAAA 1B:BBBBBBBB 1C:00000001 1D:000007CC 1E:00000007 1F:00000004
0A0: 02C4DE63  BGE x9, x12, 60     00:00000000 01:00000134 02:0000068C 05:00000014 06:00000018 07:0000000A 08:000007EC 09:00000004 0A:000007B8 0B:00000004 0C:00000006 0D:00000003 12:00000007 13:00000003 14:00000002 15:000007D0 16:66666666 17:77777777 18:88888888 19:99999999 1A:AAAAAAAA 1B:BBBBBBBB 1C:00000001 1D:000007CC 1E:00000007 1F:00000004
0A4: 014492B3  SLL x5, x9, x20     00:00000000 01:00000134 02:0000068C 05:00000014 06:00000018 07:0000000A 08:000007EC 09:00000004 0A:000007B8 0B:00000004 0C:00000006 0D:00000003 12:00000007 13:00000003 14:00000002 15:000007D0 16:66666666 17:77777777 18:88888888 19:99999999 1A:AAAAAAAA 1B:BBBBBBBB 1C:00000001 1D:000007CC 1E:00000007 1F:00000004
0A8: 00550EB3  ADD x29, x10, x5    00:00000000 01:00000134 02:0000068C 05:00000010 06:00000018 07:0000000A 08:000007EC 09:00000004 0A:000007B8 0B:00000004 0C:00000006 0D:00000003 12:00000007 13:00000003 14:00000002 15:000007D0 16:66666666 17:77777777 18:88888888 19:99999999 1A:AAAAAAAA 1B:BBBBBBBB 1C:00000001 1D:000007CC 1E:00000007 1F:00000004
0AC: 000EAF83  LW x31, 0(x29)      00:00000000 01:00000134 02:0000068C 05:00000010 06:00000018 07:0000000A 08:000007EC 09:00000004 0A:000007B8 0B:00000004 0C:00000006 0D:00000003 12:00000007 13:00000003 14:00000002 15:000007D0 16:66666666 17:77777777 18:88888888 19:99999999 1A:AAAAAAAA 1B:BBBBBBBB 1C:00000001 1D:000007C8 1E:00000007 1F:00000004
0B0: 032FD263  BGE x31, x18, 36    00:00000000 01:00000134 02:0000068C 05:00000010 06:00000018 07:0000000A 08:000007EC 09:00000004 0A:000007B8 0B:00000004 0C:00000006 0D:00000003 12:00000007 13:00000003 14:00000002 15:000007D0 16:66666666 17:77777777 18:88888888 19:99999999 1A:AAAAAAAA 1B:BBBBBBBB 1C:00000001 1D:000007C8 1E:00000007 1F:00000006
0B4: 00198993  ADDI x19, x19, 1    00:00000000 01:00000134 02:0000068C 05:00000010 06:00000018 07:0000000A 08:000007EC 09:00000004 0A:000007B8 0B:00000004 0C:00000006 0D:00000003 12:00000007 13:00000003 14:00000002 15:000007D0 16:66666666 17:77777777 18:88888888 19:99999999 1A:AAAAAAAA 1B:BBBBBBBB 1C:00000001 1D:000007C8 1E:00000007 1F:00000006
0B8: 01499333  SLL x6, x19, x20    00:00000000 01:00000134 02:0000068C 05:00000010 06:00000018 07:0000000A 08:000007EC 09:00000004 0A:000007B8 0B:00000004 0C:00000006 0D:00000003 12:00000007 13:00000004 14:00000002 15:000007D0 16:66666666 17:77777777 18:88888888 19:99999999 1A:AAAAAAAA 1B:BBBBBBBB 1C:00000001 1D:000007C8 1E:00000007 1F:00000006
0BC: 006505B3  ADD x11, x10, x6    00:00000000 01:00000134 02:0000068C 05:00000010 06:00000010 07:0000000A 08:000007EC 09:00000004 0A:000007B8 0B:00000004 0C:00000006 0D:00000003 12:00000007 13:00000004 14:00000002 15:000007D0 16:66666666 17:77777777 18:88888888 19:99999999 1A:AAAAAAAA 1B:BBBBBBBB 1C:00000001 1D:000007C8 1E:00000007 1F:00000006
0C0: 000E8613  ADDI x12, x29, 0    00:00000000 01:00000134 02:0000068C 05:00000010 06:00000010 07:0000000A 08:000007EC 09:00000004 0A:000007B8 0B:000007C8 0C:00000006 0D:00000003 12:00000007 13:00000004 14:00000002 15:000007D0 16:66666666 17:77777777 18:88888888 19:99999999 1A:AAAAAAAA 1B:BBBBBBBB 1C:00000001 1D:000007C8 1E:00000007 1F:00000006
0C4: F7DFF0EF  JAL x1, -132        00:00000000 01:00000134 02:0000068C 05:00000010 06:00000010 07:0000000A 08:000007EC 09:00000004 0A:000007B8 0B:000007C8 0C:000007C8 0D:00000003 12:00000007 13:00000004 14:00000002 15:000007D0 16:66666666 17:77777777 18:88888888 19:99999999 1A:AAAAAAAA 1B:BBBBBBBB 1C:00000001 1D:000007C8 1E:00000007 1F:00000006
040: FE010113  ADDI x2, x2, -32    00:00000000 01:000000C8 02:0000068C 05:00000010 06:00000010 07:0000000A 08:000007EC 09:00000004 0A:000007B8 0B:000007C8 0C:000007C8 0D:00000003 12:00000007 13:00000004 14:00000002 15:000007D0 16:66666666 17:77777777 18:88888888 19:99999999 1A:AAAAAAAA 1B:BBBBBBBB 1C:00000001 1D:000007C8 1E:00000007 1F:00000006
044: 00112E23  SW x1, 28(x2)       00:00000000 01:000000C8 02:0000066C 05:00000010 06:00000010 07:0000000A 08:000007EC 09:00000004 0A:000007B8 0B:000007C8 0C:000007C8 0D:00000003 12:00000007 13:00000004 14:00000002 15:000007D0 16:66666666 17:77777777 18:88888888 19:99999999 1A:AAAAAAAA 1B:BBBBBBBB 1C:00000001 1D:000007C8 1E:00000007 1F:00000006
048: 0005AF03  LW x30, 0(x11)      00:00000000 01:000000C8 02:0000066C 05:00000010 06:00000010 07:0000000A 08:000007EC 09:00000004 0A:000007B8 0B:000007C8 0C:000007C8 0D:00000003 12:00000007 13:00000004 14:00000002 15:000007D0 16:66666666 17:77777777 18:88888888 19:99999999 1A:AAAAAAAA 1B:BBBBBBBB 1C:00000001 1D:000007C8 1E:00000007 1F:00000006
04C: 00062F83  LW x31, 0(x12)      00:00000000 01:000000C8 02:0000066C 05:00000010 06:00000010 07:0000000A 08:000007EC 09:00000004 0A:000007B8 0B:000007C8 0C:000007C8 0D:00000003 12:00000007 13:00000004 14:00000002 15:000007D0 16:66666666 17:77777777 18:88888888 19:99999999 1A:AAAAAAAA 1B:BBBBBBBB 1C:00000001 1D:000007C8 1E:00000006 1F:00000006
050: 01F5A023  SW x31, 0(x11)      00:00000000 01:000000C8 02:0000066C 05:00000010 06:00000010 07:0000000A 08:000007EC 09:00000004 0A:000007B8 0B:000007C8 0C:000007C8 0D:00000003 12:00000007 13:00000004 14:00000002 15:000007D0 16:66666666 17:77777777 18:88888888 19:99999999 1A:AAAAAAAA 1B:BBBBBBBB 1C:00000001 1D:000007C8 1E:00000006 1F:00000006
054: 01E62023  SW x30, 0(x12)      00:00000000 01:000000C8 02:0000066C 05:00000010 06:00000010 07:0000000A 08:000007EC 09:00000004 0A:000007B8 0B:000007C8 0C:000007C8 0D:00000003 12:00000007 13:00000004 14:00000002 15:000007D0 16:66666666 17:77777777 18:88888888 19:99999999 1A:AAAAAAAA 1B:BBBBBBBB 1C:00000001 1D:000007C8 1E:00000006 1F:00000006
058: 01C12083  LW x1, 28(x2)       00:00000000 01:000000C8 02:0000066C 05:00000010 06:00000010 07:0000000A 08:000007EC 09:00000004 0A:000007B8 0B:000007C8 0C:000007C8 0D:00000003 12:00000007 13:00000004 14:00000002 15:000007D0 16:66666666 17:77777777 18:88888888 19:99999999 1A:AAAAAAAA 1B:BBBBBBBB 1C:00000001 1D:000007C8 1E:00000006 1F:00000006
05C: 02010113  ADDI x2, x2, 32     00:00000000 01:000000C8 02:0000066C 05:00000010 06:00000010 07:0000000A 08:000007EC 09:00000004 0A:000007B8 0B:000007C8 0C:000007C8 0D:00000003 12:00000007 13:00000004 14:00000002 15:000007D0 16:66666666 17:77777777 18:88888888 19:99999999 1A:AAAAAAAA 1B:BBBBBBBB 1C:00000001 1D:000007C8 1E:00000006 1F:00000006
060: 00008067  JALR x0, 0(x1)      00:00000000 01:000000C8 02:0000068C 05:00000010 06:00000010 07:0000000A 08:000007EC 09:00000004 0A:000007B8 0B:000007C8 0C:000007C8 0D:00000003 12:00000007 13:00000004 14:00000002 15:000007D0 16:66666666 17:77777777 18:88888888 19:99999999 1A:AAAAAAAA 1B:BBBBBBBB 1C:00000001 1D:000007C8 1E:00000006 1F:00000006
0C8: 00412583  LW x11, 4(x2)       00:00000000 01:000000C8 02:0000068C 05:00000010 06:00000010 07:0000000A 08:000007EC 09:00000004 0A:000007B8 0B:000007C8 0C:000007C8 0D:00000003 12:00000007 13:00000004 14:00000002 15:000007D0 16:66666666 17:77777777 18:88888888 19:99999999 1A:AAAAAAAA 1B:BBBBBBBB 1C:00000001 1D:000007C8 1E:00000006 1F:00000006
0CC: 00012603  LW x12, 0(x2)       00:00000000 01:000000C8 02:0000068C 05:00000010 06:00000010 07:0000000A 08:000007EC 09:00000004 0A:000007B8 0B:00000004 0C:000007C8 0D:00000003 12:00000007 13:00000004 14:00000002 15:000007D0 16:66666666 17:77777777 18:88888888 19:99999999 1A:AAAAAAAA 1B:BBBBBBBB 1C:00000001 1D:000007C8 1E:00000006 1F:00000006
0D0: 0040006F  JAL x0, 4           00:00000000 01:000000C8 02:0000068C 05:00000010 06:00000010 07:0000000A 08:000007EC 09:00000004 0A:000007B8 0B:00000004 0C:00000006 0D:00000003 12:00000007 13:00000004 14:00000002 15:000007D0 16:66666666 17:77777777 18:88888888 19:99999999 1A:AAAAAAAA 1B:BBBBBBBB 1C:00000001 1D:000007C8 1E:00000006 1F:00000006
0D4: 00148493  ADDI x9, x9, 1      00:00000000 01:000000C8 02:0000068C 05:00000010 06:00000010 07:0000000A 08:000007EC 09:00000004 0A:000007B8 0B:00000004 0C:00000006 0D:00000003 12:00000007 13:00000004 14:00000002 15:000007D0 16:66666666 17:77777777 18:88888888 19:99999999 1A:AAAAAAAA 1B:BBBBBBBB 1C:00000001 1D:000007C8 1E:00000006 1F:00000006
0D8: FC9FF06F  JAL x0, -56         00:00000000 01:000000C8 02:0000068C 05:00000010 06:00000010 07:0000000A 08:000007EC 09:00000005 0A:000007B8 0B:00000004 0C:00000006 0D:00000003 12:00000007 13:00000004 14:00000002 15:000007D0 16:66666666 17:77777777 18:88888888 19:99999999 1A:AAAAAAAA 1B:BBBBBBBB 1C:00000001 1D:000007C8 1E:00000006 1F:00000006
0A0: 02C4DE63  BGE x9, x12, 60     00:00000000 01:000000C8 02:0000068C 05:00000010 06:00000010 07:0000000A 08:000007EC 09:00000005 0A:000007B8 0B:00000004 0C:00000006 0D:00000003 12:00000007 13:00000004 14:00000002 15:000007D0 16:66666666 17:77777777 18:88888888 19:99999999 1A:AAAAAAAA 1B:BBBBBBBB 1C:00000001 1D:000007C8 1E:00000006 1F:00000006
0A4: 014492B3  SLL x5, x9, x20     00:00000000 01:000000C8 02:0000068C 05:00000010 06:00000010 07:0000000A 08:000007EC 09:00000005 0A:000007B8 0B:00000004 0C:00000006 0D:00000003 12:00000007 13:00000004 14:00000002 15:000007D0 16:66666666 17:77777777 18:88888888 19:99999999 1A:AAAAAAAA 1B:BBBBBBBB 1C:00000001 1D:000007C8 1E:00000006 1F:00000006
0A8: 00550EB3  ADD x29, x10, x5    00:00000000 01:000000C8 02:0000068C 05:00000014 06:00000010 07:0000000A 08:000007EC 09:00000005 0A:000007B8 0B:00000004 0C:00000006 0D:00000003 12:00000007 13:00000004 14:00000002 15:000007D0 16:66666666 17:77777777 18:88888888 19:99999999 1A:AAAAAAAA 1B:BBBBBBBB 1C:00000001 1D:000007C8 1E:00000006 1F:00000006
0AC: 000EAF83  LW x31, 0(x29)      00:00000000 01:000000C8 02:0000068C 05:00000014 06:00000010 07:0000000A 08:000007EC 09:00000005 0A:000007B8 0B:00000004 0C:00000006 0D:00000003 12:00000007 13:00000004 14:00000002 15:000007D0 16:66666666 17:77777777 18:88888888 19:99999999 1A:AAAAAAAA 1B:BBBBBBBB 1C:00000001 1D:000007CC 1E:00000006 1F:00000006
0B0: 032FD263  BGE x31, x18, 36    00:00000000 01:000000C8 02:0000068C 05:00000014 06:00000010 07:0000000A 08:000007EC 09:00000005 0A:000007B8 0B:00000004 0C:00000006 0D:00000003 12:00000007 13:00000004 14:00000002 15:000007D0 16:66666666 17:77777777 18:88888888 19:99999999 1A:AAAAAAAA 1B:BBBBBBBB 1C:00000001 1D:000007CC 1E:00000006 1F:00000005
0B4: 00198993  ADDI x19, x19, 1    00:00000000 01:000000C8 02:0000068C 05:00000014 06:00000010 07:0000000A 08:000007EC 09:00000005 0A:000007B8 0B:00000004 0C:00000006 0D:00000003 12:00000007 13:00000004 14:00000002 15:000007D0 16:66666666 17:77777777 18:88888888 19:99999999 1A:AAAAAAAA 1B:BBBBBBBB 1C:00000001 1D:000007CC 1E:00000006 1F:00000005
0B8: 01499333  SLL x6, x19, x20    00:00000000 01:000000C8 02:0000068C 05:00000014 06:00000010 07:0000000A 08:000007EC 09:00000005 0A:000007B8 0B:00000004 0C:00000006 0D:00000003 12:00000007 13:00000005 14:00000002 15:000007D0 16:66666666 17:77777777 18:88888888 19:99999999 1A:AAAAAAAA 1B:BBBBBBBB 1C:00000001 1D:000007CC 1E:00000006 1F:00000005
0BC: 006505B3  ADD x11, x10, x6    00:00000000 01:000000C8 02:0000068C 05:00000014 06:00000014 07:0000000A 08:000007EC 09:00000005 0A:000007B8 0B:00000004 0C:00000006 0D:00000003 12:00000007 13:00000005 14:00000002 15:000007D0 16:66666666 17:77777777 18:88888888 19:99999999 1A:AAAAAAAA 1B:BBBBBBBB 1C:00000001 1D:000007CC 1E:00000006 1F:00000005
0C0: 000E8613  ADDI x12, x29, 0    00:00000000 01:000000C8 02:0000068C 05:00000014 06:00000014 07:0000000A 08:000007EC 09:00000005 0A:000007B8 0B:000007CC 0C:00000006 0D:00000003 12:00000007 13:00000005 14:00000002 15:000007D0 16:66666666 17:77777777 18:88888888 19:99999999 1A:AAAAAAAA 1B:BBBBBBBB 1C:00000001 1D:000007CC 1E:00000006 1F:00000005
0C4: F7DFF0EF  JAL x1, -132        00:00000000 01:000000C8 02:0000068C 05:00000014 06:00000014 07:0000000A 08:000007EC 09:00000005 0A:000007B8 0B:000007CC 0C:000007CC 0D:00000003 12:00000007 13:00000005 14:00000002 15:000007D0 16:66666666 17:77777777 18:88888888 19:99999999 1A:AAAAAAAA 1B:BBBBBBBB 1C:00000001 1D:000007CC 1E:00000006 1F:00000005
040: FE010113  ADDI x2, x2, -32    00:00000000 01:000000C8 02:0000068C 05:00000014 06:00000014 07:0000000A 08:000007EC 09:00000005 0A:000007B8 0B:000007CC 0C:000007CC 0D:00000003 12:00000007 13:00000005 14:00000002 15:000007D0 16:66666666 17:77777777 18:88888888 19:99999999 1A:AAAAAAAA 1B:BBBBBBBB 1C:00000001 1D:000007CC 1E:00000006 1F:00000005
044: 00112E23  SW x1, 28(x2)       00:00000000 01:000000C8 02:0000066C 05:00000014 06:00000014 07:0000000A 08:000007EC 09:00000005 0A:000007B8 0B:000007CC 0C:000007CC 0D:00000003 12:00000007 13:00000005 14:00000002 15:000007D0 16:66666666 17:77777777 18:88888888 19:99999999 1A:AAAAAAAA 1B:BBBBBBBB 1C:00000001 1D:000007CC 1E:00000006 1F:00000005
048: 0005AF03  LW x30, 0(x11)      00:00000000 01:000000C8 02:0000066C 05:00000014 06:00000014 07:0000000A 08:000007EC 09:00000005 0A:000007B8 0B:000007CC 0C:000007CC 0D:00000003 12:00000007 13:00000005 14:00000002 15:000007D0 16:66666666 17:77777777 18:88888888 19:99999999 1A:AAAAAAAA 1B:BBBBBBBB 1C:00000001 1D:000007CC 1E:00000006 1F:00000005
04C: 00062F83  LW x31, 0(x12)      00:00000000 01:000000C8 02:0000066C 05:00000014 06:00000014 07:0000000A 08:000007EC 09:00000005 0A:000007B8 0B:000007CC 0C:000007CC 0D:00000003 12:00000007 13:00000005 14:00000002 15:000007D0 16:66666666 17:77777777 18:88888888 19:99999999 1A:AAAAAAAA 1B:BBBBBBBB 1C:00000001 1D:000007CC 1E:00000005 1F:00000005
050: 01F5A023  SW x31, 0(x11)      00:00000000 01:000000C8 02:0000066C 05:00000014 06:00000014 07:0000000A 08:000007EC 09:00000005 0A:000007B8 0B:000007CC 0C:000007CC 0D:00000003 12:00000007 13:00000005 14:00000002 15:000007D0 16:66666666 17:77777777 18:88888888 19:99999999 1A:AAAAAAAA 1B:BBBBBBBB 1C:00000001 1D:000007CC 1E:00000005 1F:00000005
054: 01E62023  SW x30, 0(x12)      00:00000000 01:000000C8 02:0000066C 05:00000014 06:00000014 07:0000000A 08:000007EC 09:00000005 0A:000007B8 0B:000007CC 0C:000007CC 0D:00000003 12:00000007 13:00000005 14:00000002 15:000007D0 16:66666666 17:77777777 18:88888888 19:99999999 1A:AAAAAAAA 1B:BBBBBBBB 1C:00000001 1D:000007CC 1E:00000005 1F:00000005
058: 01C12083  LW x1, 28(x2)       00:00000000 01:000000C8 02:0000066C 05:00000014 06:00000014 07:0000000A 08:000007EC 09:00000005 0A:000007B8 0B:000007CC 0C:000007CC 0D:00000003 12:00000007 13:00000005 14:00000002 15:000007D0 16:66666666 17:77777777 18:88888888 19:99999999 1A:AAAAAAAA 1B:BBBBBBBB 1C:00000001 1D:000007CC 1E:00000005 1F:00000005
05C: 02010113  ADDI x2, x2, 32     00:00000000 01:000000C8 02:0000066C 05:00000014 06:00000014 07:0000000A 08:000007EC 09:00000005 0A:000007B8 0B:000007CC 0C:000007CC 0D:00000003 12:00000007 13:00000005 14:00000002 15:000007D0 16:66666666 17:77777777 18:88888888 19:99999999 1A:AAAAAAAA 1B:BBBBBBBB 1C:00000001 1D:000007CC 1E:00000005 1F:00000005
060: 00008067  JALR x0, 0(x1)      00:00000000 01:000000C8 02:0000068C 05:00000014 06:00000014 07:0000000A 08:000007EC 09:00000005 0A:000007B8 0B:000007CC 0C:000007CC 0D:00000003 12:00000007 13:00000005 14:00000002 15:000007D0 16:66666666 17:77777777 18:88888888 19:99999999 1A:AAAAAAAA 1B:BBBBBBBB 1C:00000001 1D:000007CC 1E:00000005 1F:00000005
0C8: 00412583  LW x11, 4(x2)       00:00000000 01:000000C8 02:0000068C 05:00000014 06:00000014 07:0000000A 08:000007EC 09:00000005 0A:000007B8 0B:000007CC 0C:000007CC 0D:00000003 12:00000007 13:00000005 14:00000002 15:000007D0 16:66666666 17:77777777 18:88888888 19:99999999 1A:AAAAAAAA 1B:BBBBBBBB 1C:00000001 1D:000007CC 1E:00000005 1F:00000005
0CC: 00012603  LW x12, 0(x2)       00:00000000 01:000000C8 02:0000068C 05:00000014 06:00000014 07:0000000A 08:000007EC 09:00000005 0A:000007B8 0B:00000004 0C:000007CC 0D:00000003 12:00000007 13:00000005 14:00000002 15:000007D0 16:66666666 17:77777777 18:88888888 19:99999999 1A:AAAAAAAA 1B:BBBBBBBB 1C:00000001 1D:000007CC 1E:00000005 1F:00000005
0D0: 0040006F  JAL x0, 4           00:00000000 01:000000C8 02:0000068C 05:00000014 06:00000014 07:0000000A 08:000007EC 09:00000005 0A:000007B8 0B:00000004 0C:00000006 0D:00000003 12:00000007 13:00000005 14:00000002 15:000007D0 16:66666666 17:77777777 18:88888888 19:99999999 1A:AAAAAAAA 1B:BBBBBBBB 1C:00000001 1D:000007CC 1E:00000005 1F:00000005
0D4: 00148493  ADDI x9, x9, 1      00:00000000 01:000000C8 02:0000068C 05:00000014 06:00000014 07:0000000A 08:000007EC 09:00000005 0A:000007B8 0B:00000004 0C:00000006 0D:00000003 12:00000007 13:00000005 14:00000002 15:000007D0 16:66666666 17:77777777 18:88888888 19:99999999 1A:AAAAAAAA 1B:BBBBBBBB 1C:00000001 1D:000007CC 1E:00000005 1F:00000005
0D8: FC9FF06F  JAL x0, -56         00:00000000 01:000000C8 02:0000068C 05:00000014 06:00000014 07:0000000A 08:000007EC 09:00000006 0A:000007B8 0B:00000004 0C:00000006 0D:00000003 12:00000007 13:00000005 14:00000002 15:000007D0 16:66666666 17:77777777 18:88888888 19:99999999 1A:AAAAAAAA 1B:BBBBBBBB 1C:00000001 1D:000007CC 1E:00000005 1F:00000005
0A0: 02C4DE63  BGE x9, x12, 60     00:00000000 01:000000C8 02:0000068C 05:00000014 06:00000014 07:0000000A 08:000007EC 09:00000006 0A:000007B8 0B:00000004 0C:00000006 0D:00000003 12:00000007 13:00000005 14:00000002 15:000007D0 16:66666666 17:77777777 18:88888888 19:99999999 1A:AAAAAAAA 1B:BBBBBBBB 1C:00000001 1D:000007CC 1E:00000005 1F:00000005
0DC: 00198993  ADDI x19, x19, 1    00:00000000 01:000000C8 02:0000068C 05:00000014 06:00000014 07:0000000A 08:000007EC 09:00000006 0A:000007B8 0B:00000004 0C:00000006 0D:00000003 12:00000007 13:00000005 14:00000002 15:000007D0 16:66666666 17:77777777 18:88888888 19:99999999 1A:AAAAAAAA 1B:BBBBBBBB 1C:00000001 1D:000007CC 1E:00000005 1F:00000005
0E0: 01499333  SLL x6, x19, x20    00:00000000 01:000000C8 02:0000068C 05:00000014 06:00000014 07:0000000A 08:000007EC 09:00000006 0A:000007B8 0B:00000004 0C:00000006 0D:00000003 12:00000007 13:00000006 14:00000002 15:000007D0 16:66666666 17:77777777 18:88888888 19:99999999 1A:AAAAAAAA 1B:BBBBBBBB 1C:00000001 1D:000007CC 1E:00000005 1F:00000005
0E4: 006505B3  ADD x11, x10, x6    00:00000000 01:000000C8 02:0000068C 05:00000014 06:00000018 07:0000000A 08:000007EC 09:00000006 0A:000007B8 0B:00000004 0C:00000006 0D:00000003 12:00000007 13:00000006 14:00000002 15:000007D0 16:66666666 17:77777777 18:88888888 19:99999999 1A:AAAAAAAA 1B:BBBBBBBB 1C:00000001 1D:000007CC 1E:00000005 1F:00000005
0E8: 000A8613  ADDI x12, x21, 0    00:00000000 01:000000C8 02:0000068C 05:00000014 06:00000018 07:0000000A 08:000007EC 09:00000006 0A:000007B8 0B:000007D0 0C:00000006 0D:00000003 12:00000007 13:00000006 14:00000002 15:000007D0 16:66666666 17:77777777 18:88888888 19:99999999 1A:AAAAAAAA 1B:BBBBBBBB 1C:00000001 1D:000007CC 1E:00000005 1F:00000005
0EC: F55FF0EF  JAL x1, -172        00:00000000 01:000000C8 02:0000068C 05:00000014 06:00000018 07:0000000A 08:000007EC 09:00000006 0A:000007B8 0B:000007D0 0C:000007D0 0D:00000003 12:00000007 13:00000006 14:00000002 15:000007D0 16:66666666 17:77777777 18:88888888 19:99999999 1A:AAAAAAAA 1B:BBBBBBBB 1C:00000001 1D:000007CC 1E:00000005 1F:00000005
040: FE010113  ADDI x2, x2, -32    00:00000000 01:000000F0 02:0000068C 05:00000014 06:00000018 07:0000000A 08:000007EC 09:00000006 0A:000007B8 0B:000007D0 0C:000007D0 0D:00000003 12:00000007 13:00000006 14:00000002 15:000007D0 16:66666666 17:77777777 18:88888888 19:99999999 1A:AAAAAAAA 1B:BBBBBBBB 1C:00000001 1D:000007CC 1E:00000005 1F:00000005
044: 00112E23  SW x1, 28(x2)       00:00000000 01:000000F0 02:0000066C 05:00000014 06:00000018 07:0000000A 08:000007EC 09:00000006 0A:000007B8 0B:000007D0 0C:000007D0 0D:00000003 12:00000007 13:00000006 14:00000002 15:000007D0 16:66666666 17:77777777 18:88888888 19:99999999 1A:AAAAAAAA 1B:BBBBBBBB 1C:00000001 1D:000007CC 1E:00000005 1F:00000005
048: 0005AF03  LW x30, 0(x11)      00:00000000 01:000000F0 02:0000066C 05:00000014 06:00000018 07:0000000A 08:000007EC 09:00000006 0A:000007B8 0B:000007D0 0C:000007D0 0D:00000003 12:00000007 13:00000006 14:00000002 15:000007D0 16:66666666 17:77777777 18:88888888 19:99999999 1A:AAAAAAAA 1B:BBBBBBBB 1C:00000001 1D:000007CC 1E:00000005 1F:00000005
04C: 00062F83  LW x31, 0(x12)      00:00000000 01:000000F0 02:0000066C 05:00000014 06:00000018 07:0000000A 08:000007EC 09:00000006 0A:000007B8 0B:000007D0 0C:000007D0 0D:00000003 12:00000007 13:00000006 14:00000002 15:000007D0 16:66666666 17:77777777 18:88888888 19:99999999 1A:AAAAAAAA 1B:BBBBBBBB 1C:00000001 1D:000007CC 1E:00000007 1F:00000005
050: 01F5A023  SW x31, 0(x11)      00:00000000 01:000000F0 02:0000066C 05:00000014 06:00000018 07:0000000A 08:000007EC 09:00000006 0A:000007B8 0B:000007D0 0C:000007D0 0D:00000003 12:00000007 13:00000006 14:00000002 15:000007D0 16:66666666 17:77777777 18:88888888 19:99999999 1A:AAAAAAAA 1B:BBBBBBBB 1C:00000001 1D:000007CC 1E:00000007 1F:00000007
054: 01E62023  SW x30, 0(x12)      00:00000000 01:000000F0 02:0000066C 05:00000014 06:00000018 07:0000000A 08:000007EC 09:00000006 0A:000007B8 0B:000007D0 0C:000007D0 0D:00000003 12:00000007 13:00000006 14:00000002 15:000007D0 16:66666666 17:77777777 18:88888888 19:99999999 1A:AAAAAAAA 1B:BBBBBBBB 1C:00000001 1D:000007CC 1E:00000007 1F:00000007
058: 01C12083  LW x1, 28(x2)       00:00000000 01:000000F0 02:0000066C 05:00000014 06:00000018 07:0000000A 08:000007EC 09:00000006 0A:000007B8 0B:000007D0 0C:000007D0 0D:00000003 12:00000007 13:00000006 14:00000002 15:000007D0 16:66666666 17:77777777 18:88888888 19:99999999 1A:AAAAAAAA 1B:BBBBBBBB 1C:00000001 1D:000007CC 1E:00000007 1F:00000007
05C: 02010113  ADDI x2, x2, 32     00:00000000 01:000000F0 02:0000066C 05:00000014 06:00000018 07:0000000A 08:000007EC 09:00000006 0A:000007B8 0B:000007D0 0C:000007D0 0D:00000003 12:00000007 13:00000006 14:00000002 15:000007D0 16:66666666 17:77777777 18:88888888 19:99999999 1A:AAAAAAAA 1B:BBBBBBBB 1C:00000001 1D:000007CC 1E:00000007 1F:00000007
060: 00008067  JALR x0, 0(x1)      00:00000000 01:000000F0 02:0000068C 05:00000014 06:00000018 07:0000000A 08:000007EC 09:00000006 0A:000007B8 0B:000007D0 0C:000007D0 0D:00000003 12:00000007 13:00000006 14:00000002 15:000007D0 16:66666666 17:77777777 18:88888888 19:99999999 1A:AAAAAAAA 1B:BBBBBBBB 1C:00000001 1D:000007CC 1E:00000007 1F:00000007
0F0: 00412583  LW x11, 4(x2)       00:00000000 01:000000F0 02:0000068C 05:00000014 06:00000018 07:0000000A 08:000007EC 09:00000006 0A:000007B8 0B:000007D0 0C:000007D0 0D:00000003 12:00000007 13:00000006 14:00000002 15:000007D0 16:66666666 17:77777777 18:88888888 19:99999999 1A:AAAAAAAA 1B:BBBBBBBB 1C:00000001 1D:000007CC 1E:00000007 1F:00000007
0F4: 00012603  LW x12, 0(x2)       00:00000000 01:000000F0 02:0000068C 05:00000014 06:00000018 07:0000000A 08:000007EC 09:00000006 0A:000007B8 0B:00000004 0C:000007D0 0D:00000003 12:00000007 13:00000006 14:00000002 15:000007D0 16:66666666 17:77777777 18:88888888 19:99999999 1A:AAAAAAAA 1B:BBBBBBBB 1C:00000001 1D:000007CC 1E:00000007 1F:00000007
0F8: 00098513  ADDI x10, x19, 0    00:00000000 01:000000F0 02:0000068C 05:00000014 06:00000018 07:0000000A 08:000007EC 09:00000006 0A:000007B8 0B:00000004 0C:00000006 0D:00000003 12:00000007 13:00000006 14:00000002 15:000007D0 16:66666666 17:77777777 18:88888888 19:99999999 1A:AAAAAAAA 1B:BBBBBBBB 1C:00000001 1D:000007CC 1E:00000007 1F:00000007
0FC: 01812483  LW x9, 24(x2)       00:00000000 01:000000F0 02:0000068C 05:00000014 06:00000018 07:0000000A 08:000007EC 09:00000006 0A:00000006 0B:00000004 0C:00000006 0D:00000003 12:00000007 13:00000006 14:00000002 15:000007D0 16:66666666 17:77777777 18:88888888 19:99999999 1A:AAAAAAAA 1B:BBBBBBBB 1C:00000001 1D:000007CC 1E:00000007 1F:00000007
100: 01412903  LW x18, 20(x2)      00:00000000 01:000000F0 02:0000068C 05:00000014 06:00000018 07:0000000A 08:000007EC 09:11111111 0A:00000006 0B:00000004 0C:00000006 0D:00000003 12:00000007 13:00000006 14:00000002 15:000007D0 16:66666666 17:77777777 18:88888888 19:99999999 1A:AAAAAAAA 1B:BBBBBBBB 1C:00000001 1D:000007CC 1E:00000007 1F:00000007
104: 01012983  LW x19, 16(x2)      00:00000000 01:000000F0 02:0000068C 05:00000014 06:00000018 07:0000000A 08:000007EC 09:11111111 0A:00000006 0B:00000004 0C:00000006 0D:00000003 12:22222222 13:00000006 14:00000002 15:000007D0 16:66666666 17:77777777 18:88888888 19:99999999 1A:AAAAAAAA 1B:BBBBBBBB 1C:00000001 1D:000007CC 1E:00000007 1F:00000007
108: 00C12A03  LW x20, 12(x2)      00:00000000 01:000000F0 02:0000068C 05:00000014 06:00000018 07:0000000A 08:000007EC 09:11111111 0A:00000006 0B:00000004 0C:00000006 0D:00000003 12:22222222 13:33333333 14:00000002 15:000007D0 16:66666666 17:77777777 18:88888888 19:99999999 1A:AAAAAAAA 1B:BBBBBBBB 1C:00000001 1D:000007CC 1E:00000007 1F:00000007
10C: 00812A83  LW x21, 8(x2)       00:00000000 01:000000F0 02:0000068C 05:00000014 06:00000018 07:0000000A 08:000007EC 09:11111111 0A:00000006 0B:00000004 0C:00000006 0D:00000003 12:22222222 13:33333333 14:44444444 15:000007D0 16:66666666 17:77777777 18:88888888 19:99999999 1A:AAAAAAAA 1B:BBBBBBBB 1C:00000001 1D:000007CC 1E:00000007 1F:00000007
110: 01C12083  LW x1, 28(x2)       00:00000000 01:000000F0 02:0000068C 05:00000014 06:00000018 07:0000000A 08:000007EC 09:11111111 0A:00000006 0B:00000004 0C:00000006 0D:00000003 12:22222222 13:33333333 14:44444444 15:55555555 16:66666666 17:77777777 18:88888888 19:99999999 1A:AAAAAAAA 1B:BBBBBBBB 1C:00000001 1D:000007CC 1E:00000007 1F:00000007
114: 02010113  ADDI x2, x2, 32     00:00000000 01:00000134 02:0000068C 05:00000014 06:00000018 07:0000000A 08:000007EC 09:11111111 0A:00000006 0B:00000004 0C:00000006 0D:00000003 12:22222222 13:33333333 14:44444444 15:55555555 16:66666666 17:77777777 18:88888888 19:99999999 1A:AAAAAAAA 1B:BBBBBBBB 1C:00000001 1D:000007CC 1E:00000007 1F:00000007
118: 00008067  JALR x0, 0(x1)      00:00000000 01:00000134 02:000006AC 05:00000014 06:00000018 07:0000000A 08:000007EC 09:11111111 0A:00000006 0B:00000004 0C:00000006 0D:00000003 12:22222222 13:33333333 14:44444444 15:55555555 16:66666666 17:77777777 18:88888888 19:99999999 1A:AAAAAAAA 1B:BBBBBBBB 1C:00000001 1D:000007CC 1E:00000007 1F:00000007
134: 00050693  ADDI x13, x10, 0    00:00000000 01:00000134 02:000006AC 05:00000014 06:00000018 07:0000000A 08:000007EC 09:11111111 0A:00000006 0B:00000004 0C:00000006 0D:00000003 12:22222222 13:33333333 14:44444444 15:55555555 16:66666666 17:77777777 18:88888888 19:99999999 1A:AAAAAAAA 1B:BBBBBBBB 1C:00000001 1D:000007CC 1E:00000007 1F:00000007
138: 00C12503  LW x10, 12(x2)      00:00000000 01:00000134 02:000006AC 05:00000014 06:00000018 07:0000000A 08:000007EC 09:11111111 0A:00000006 0B:00000004 0C:00000006 0D:00000006 12:22222222 13:33333333 14:44444444 15:55555555 16:66666666 17:77777777 18:88888888 19:99999999 1A:AAAAAAAA 1B:BBBBBBBB 1C:00000001 1D:000007CC 1E:00000007 1F:00000007
13C: FFF68613  ADDI x12, x13, -1   00:00000000 01:00000134 02:000006AC 05:00000014 06:00000018 07:0000000A 08:000007EC 09:11111111 0A:000007B8 0B:00000004 0C:00000006 0D:00000006 12:22222222 13:33333333 14:44444444 15:55555555 16:66666666 17:77777777 18:88888888 19:99999999 1A:AAAAAAAA 1B:BBBBBBBB 1C:00000001 1D:000007CC 1E:00000007 1F:00000007
140: FDDFF0EF  JAL x1, -36         00:00000000 01:00000134 02:000006AC 05:00000014 06:00000018 07:0000000A 08:000007EC 09:11111111 0A:000007B8 0B:00000004 0C:00000005 0D:00000006 12:22222222 13:33333333 14:44444444 15:55555555 16:66666666 17:77777777 18:88888888 19:99999999 1A:AAAAAAAA 1B:BBBBBBBB 1C:00000001 1D:000007CC 1E:00000007 1F:00000007
11C: FE010113  ADDI x2, x2, -32    00:00000000 01:00000144 02:000006AC 05:00000014 06:00000018 07:0000000A 08:000007EC 09:11111111 0A:000007B8 0B:00000004 0C:00000005 0D:00000006 12:22222222 13:33333333 14:44444444 15:55555555 16:66666666 17:77777777 18:88888888 19:99999999 1A:AAAAAAAA 1B:BBBBBBBB 1C:00000001 1D:000007CC 1E:00000007 1F:00000007
120: 00112E23  SW x1, 28(x2)       00:00000000 01:00000144 02:0000068C 05:00000014 06:00000018 07:0000000A 08:000007EC 09:11111111 0A:000007B8 0B:00000004 0C:00000005 0D:00000006 12:22222222 13:33333333 14:44444444 15:55555555 16:66666666 17:77777777 18:88888888 19:99999999 1A:AAAAAAAA 1B:BBBBBBBB 1C:00000001 1D:000007CC 1E:00000007 1F:00000007
124: 00C12A23  SW x12, 20(x2)      00:00000000 01:00000144 02:0000068C 05:00000014 06:00000018 07:0000000A 08:000007EC 09:11111111 0A:000007B8 0B:00000004 0C:00000005 0D:00000006 12:22222222 13:33333333 14:44444444 15:55555555 16:66666666 17:77777777 18:88888888 19:99999999 1A:AAAAAAAA 1B:BBBBBBBB 1C:00000001 1D:000007CC 1E:00000007 1F:00000007
128: 00A12623  SW x10, 12(x2)      00:00000000 01:00000144 02:0000068C 05:00000014 06:00000018 07:0000000A 08:000007EC 09:11111111 0A:000007B8 0B:00000004 0C:00000005 0D:00000006 12:22222222 13:33333333 14:44444444 15:55555555 16:66666666 17:77777777 18:88888888 19:99999999 1A:AAAAAAAA 1B:BBBBBBBB 1C:00000001 1D:000007CC 1E:00000007 1F:00000007
12C: 02C5D463  BGE x11, x12, 40    00:00000000 01:00000144 02:0000068C 05:00000014 06:00000018 07:0000000A 08:000007EC 09:11111111 0A:000007B8 0B:00000004 0C:00000005 0D:00000006 12:22222222 13:33333333 14:44444444 15:55555555 16:66666666 17:77777777 18:88888888 19:99999999 1A:AAAAAAAA 1B:BBBBBBBB 1C:00000001 1D:000007CC 1E:00000007 1F:00000007
130: F35FF0EF  JAL x1, -204        00:00000000 01:00000144 02:0000068C 05:00000014 06:00000018 07:0000000A 08:000007EC 09:11111111 0A:000007B8 0B:00000004 0C:00000005 0D:00000006 12:22222222 13:33333333 14:44444444 15:55555555 16:66666666 17:77777777 18:88888888 19:99999999 1A:AAAAAAAA 1B:BBBBBBBB 1C:00000001 1D:000007CC 1E:00000007 1F:00000007
064: FE010113  ADDI x2, x2, -32    00:00000000 01:00000134 02:0000068C 05:00000014 06:00000018 07:0000000A 08:000007EC 09:11111111 0A:000007B8 0B:00000004 0C:00000005 0D:00000006 12:22222222 13:33333333 14:44444444 15:55555555 16:66666666 17:77777777 18:88888888 19:99999999 1A:AAAAAAAA 1B:BBBBBBBB 1C:00000001 1D:000007CC 1E:00000007 1F:00000007
068: 00112E23  SW x1, 28(x2)       00:00000000 01:00000134 02:0000066C 05:00000014 06:00000018 07:0000000A 08:000007EC 09:11111111 0A:000007B8 0B:00000004 0C:00000005 0D:00000006 12:22222222 13:33333333 14:44444444 15:55555555 16:66666666 17:77777777 18:88888888 19:99999999 1A:AAAAAAAA 1B:BBBBBBBB 1C:00000001 1D:000007CC 1E:00000007 1F:00000007
06C: 00912C23  SW x9, 24(x2)       00:00000000 01:00000134 02:0000066C 05:00000014 06:00000018 07:0000000A 08:000007EC 09:11111111 0A:000007B8 0B:00000004 0C:00000005 0D:00000006 12:22222222 13:33333333 14:44444444 15:55555555 16:66666666 17:77777777 18:88888888 19:99999999 1A:AAAAAAAA 1B:BBBBBBBB 1C:00000001 1D:000007CC 1E:00000007 1F:00000007
070: 01212A23  SW x18, 20(x2)      00:00000000 01:00000134 02:0000066C 05:00000014 06:00000018 07:0000000A 08:000007EC 09:11111111 0A:000007B8 0B:00000004 0C:00000005 0D:00000006 12:22222222 13:33333333 14:44444444 15:55555555 16:66666666 17:77777777 18:88888888 19:99999999 1A:AAAAAAAA 1B:BBBBBBBB 1C:00000001 1D:000007CC 1E:00000007 1F:00000007
074: 01312823  SW x19, 16(x2)      00:00000000 01:00000134 02:0000066C 05:00000014 06:00000018 07:0000000A 08:000007EC 09:11111111 0A:000007B8 0B:00000004 0C:00000005 0D:00000006 12:22222222 13:33333333 14:44444444 15:55555555 16:66666666 17:77777777 18:88888888 19:99999999 1A:AAAAAAAA 1B:BBBBBBBB 1C:00000001 1D:000007CC 1E:00000007 1F:00000007
078: 01412623  SW x20, 12(x2)      00:00000000 01:00000134 02:0000066C 05:00000014 06:00000018 07:0000000A 08:000007EC 09:11111111 0A:000007B8 0B:00000004 0C:00000005 0D:00000006 12:22222222 13:33333333 14:44444444 15:55555555 16:66666666 17:77777777 18:88888888 19:99999999 1A:AAAAAAAA 1B:BBBBBBBB 1C:00000001 1D:000007CC 1E:00000007 1F:00000007
07C: 01512423  SW x21, 8(x2)       00:00000000 01:00000134 02:0000066C 05:00000014 06:00000018 07:0000000A 08:000007EC 09:11111111 0A:000007B8 0B:00000004 0C:00000005 0D:00000006 12:22222222 13:33333333 14:44444444 15:55555555 16:66666666 17:77777777 18:88888888 19:99999999 1A:AAAAAAAA 1B:BBBBBBBB 1C:00000001 1D:000007CC 1E:00000007 1F:00000007
080: 00B12223  SW x11, 4(x2)       00:00000000 01:00000134 02:0000066C 05:00000014 06:00000018 07:0000000A 08:000007EC 09:11111111 0A:000007B8 0B:00000004 0C:00000005 0D:00000006 12:22222222 13:33333333 14:44444444 15:55555555 16:66666666 17:77777777 18:88888888 19:99999999 1A:AAAAAAAA 1B:BBBBBBBB 1C:00000001 1D:000007CC 1E:00000007 1F:00000007
084: 00C12023  SW x12, 0(x2)       00:00000000 01:00000134 02:0000066C 05:00000014 06:00000018 07:0000000A 08:000007EC 09:11111111 0A:000007B8 0B:00000004 0C:00000005 0D:00000006 12:22222222 13:33333333 14:44444444 15:55555555 16:66666666 17:77777777 18:88888888 19:99999999 1A:AAAAAAAA 1B:BBBBBBBB 1C:00000001 1D:000007CC 1E:00000007 1F:00000007
088: 00200A13  ADDI x20, x0, 2     00:00000000 01:00000134 02:0000066C 05:00000014 06:00000018 07:0000000A 08:000007EC 09:11111111 0A:000007B8 0B:00000004 0C:00000005 0D:00000006 12:22222222 13:33333333 14:44444444 15:55555555 16:66666666 17:77777777 18:88888888 19:99999999 1A:AAAAAAAA 1B:BBBBBBBB 1C:00000001 1D:000007CC 1E:00000007 1F:00000007
08C: 01461333  SLL x6, x12, x20    00:00000000 01:00000134 02:0000066C 05:00000014 06:00000018 07:0000000A 08:000007EC 09:11111111 0A:000007B8 0B:00000004 0C:00000005 0D:00000006 12:22222222 13:33333333 14:00000002 15:55555555 16:66666666 17:77777777 18:88888888 19:99999999 1A:AAAAAAAA 1B:BBBBBBBB 1C:00000001 1D:000007CC 1E:00000007 1F:00000007
090: 00650AB3  ADD x21, x10, x6    00:00000000 01:00000134 02:0000066C 05:00000014 06:00000014 07:0000000A 08:000007EC 09:11111111 0A:000007B8 0B:00000004 0C:00000005 0D:00000006 12:22222222 13:33333333 14:00000002 15:55555555 16:66666666 17:77777777 18:88888888 19:99999999 1A:AAAAAAAA 1B:BBBBBBBB 1C:00000001 1D:000007CC 1E:00000007 1F:00000007
094: 000AA903  LW x18, 0(x21)      00:00000000 01:00000134 02:0000066C 05:00000014 06:00000014 07:0000000A 08:000007EC 09:11111111 0A:000007B8 0B:00000004 0C:00000005 0D:00000006 12:22222222 13:33333333 14:00000002 15:000007CC 16:66666666 17:77777777 18:88888888 19:99999999 1A:AAAAAAAA 1B:BBBBBBBB 1C:00000001 1D:000007CC 1E:00000007 1F:00000007
098: 00058493  ADDI x9, x11, 0     00:00000000 01:00000134 02:0000066C 05:00000014 06:00000014 07:0000000A 08:000007EC 09:11111111 0A:000007B8 0B:00000004 0C:00000005 0D:00000006 12:00000005 13:33333333 14:00000002 15:000007CC 16:66666666 17:77777777 18:88888888 19:99999999 1A:AAAAAAAA 1B:BBBBBBBB 1C:00000001 1D:000007CC 1E:00000007 1F:00000007
09C: FFF58993  ADDI x19, x11, -1   00:00000000 01:00000134 02:0000066C 05:00000014 06:00000014 07:0000000A 08:000007EC 09:00000004 0A:000007B8 0B:00000004 0C:00000005 0D:00000006 12:00000005 13:33333333 14:00000002 15:000007CC 16:66666666 17:77777777 18:88888888 19:99999999 1A:AAAAAAAA 1B:BBBBBBBB 1C:00000001 1D:000007CC 1E:00000007 1F:00000007
0A0: 02C4DE63  BGE x9, x12, 60     00:00000000 01:00000134 02:0000066C 05:00000014 06:00000014 07:0000000A 08:000007EC 09:00000004 0A:000007B8 0B:00000004 0C:00000005 0D:00000006 12:00000005 13:00000003 14:00000002 15:000007CC 16:66666666 17:77777777 18:88888888 19:99999999 1A:AAAAAAAA 1B:BBBBBBBB 1C:00000001 1D:000007CC 1E:00000007 1F:00000007
0A4: 014492B3  SLL x5, x9, x20     00:00000000 01:00000134 02:0000066C 05:00000014 06:00000014 07:0000000A 08:000007EC 09:00000004 0A:000007B8 0B:00000004 0C:00000005 0D:00000006 12:00000005 13:00000003 14:00000002 15:000007CC 16:66666666 17:77777777 18:88888888 19:99999999 1A:AAAAAAAA 1B:BBBBBBBB 1C:00000001 1D:000007CC 1E:00000007 1F:00000007
0A8: 00550EB3  ADD x29, x10, x5    00:00000000 01:00000134 02:0000066C 05:00000010 06:00000014 07:0000000A 08:000007EC 09:00000004 0A:000007B8 0B:00000004 0C:00000005 0D:00000006 12:00000005 13:00000003 14:00000002 15:000007CC 16:66666666 17:77777777 18:88888888 19:99999999 1A:AAAAAAAA 1B:BBBBBBBB 1C:00000001 1D:000007CC 1E:00000007 1F:00000007
0AC: 000EAF83  LW x31, 0(x29)      00:00000000 01:00000134 02:0000066C 05:00000010 06:00000014 07:0000000A 08:000007EC 09:00000004 0A:000007B8 0B:00000004 0C:00000005 0D:00000006 12:00000005 13:00000003 14:00000002 15:000007CC 16:66666666 17:77777777 18:88888888 19:99999999 1A:AAAAAAAA 1B:BBBBBBBB 1C:00000001 1D:000007C8 1E:00000007 1F:00000007
0B0: 032FD263  BGE x31, x18, 36    00:00000000 01:00000134 02:0000066C 05:00000010 06:00000014 07:0000000A 08:000007EC 09:00000004 0A:000007B8 0B:00000004 0C:00000005 0D:00000006 12:00000005 13:00000003 14:00000002 15:000007CC 16:66666666 17:77777777 18:88888888 19:99999999 1A:AAAAAAAA 1B:BBBBBBBB 1C:00000001 1D:000007C8 1E:00000007 1F:00000006
0D4: 00148493  ADDI x9, x9, 1      00:00000000 01:00000134 02:0000066C 05:00000010 06:00000014 07:0000000A 08:000007EC 09:00000004 0A:000007B8 0B:00000004 0C:00000005 0D:00000006 12:00000005 13:00000003 14:00000002 15:000007CC 16:66666666 17:77777777 18:88888888 19:99999999 1A:AAAAAAAA 1B:BBBBBBBB 1C:00000001 1D:000007C8 1E:00000007 1F:00000006
0D8: FC9FF06F  JAL x0, -56         00:00000000 01:00000134 02:0000066C 05:00000010 06:00000014 07:0000000A 08:000007EC 09:00000005 0A:000007B8 0B:00000004 0C:00000005 0D:00000006 12:00000005 13:00000003 14:00000002 15:000007CC 16:66666666 17:77777777 18:88888888 19:99999999 1A:AAAAAAAA 1B:BBBBBBBB 1C:00000001 1D:000007C8 1E:00000007 1F:00000006
0A0: 02C4DE63  BGE x9, x12, 60     00:00000000 01:00000134 02:0000066C 05:00000010 06:00000014 07:0000000A 08:000007EC 09:00000005 0A:000007B8 0B:00000004 0C:00000005 0D:00000006 12:00000005 13:00000003 14:00000002 15:000007CC 16:66666666 17:77777777 18:88888888 19:99999999 1A:AAAAAAAA 1B:BBBBBBBB 1C:00000001 1D:000007C8 1E:00000007 1F:00000006
0DC: 00198993  ADDI x19, x19, 1    00:00000000 01:00000134 02:0000066C 05:00000010 06:00000014 07:0000000A 08:000007EC 09:00000005 0A:000007B8 0B:00000004 0C:00000005 0D:00000006 12:00000005 13:00000003 14:00000002 15:000007CC 16:66666666 17:77777777 18:88888888 19:99999999 1A:AAAAAAAA 1B:BBBBBBBB 1C:00000001 1D:000007C8 1E:00000007 1F:00000006
0E0: 01499333  SLL x6, x19, x20    00:00000000 01:00000134 02:0000066C 05:00000010 06:00000014 07:0000000A 08:000007EC 09:00000005 0A:000007B8 0B:00000004 0C:00000005 0D:00000006 12:00000005 13:00000004 14:00000002 15:000007CC 16:66666666 17:77777777 18:88888888 19:99999999 1A:AAAAAAAA 1B:BBBBBBBB 1C:00000001 1D:000007C8 1E:00000007 1F:00000006
0E4: 006505B3  ADD x11, x10, x6    00:00000000 01:00000134 02:0000066C 05:00000010 06:00000010 07:0000000A 08:000007EC 09:00000005 0A:000007B8 0B:00000004 0C:00000005 0D:00000006 12:00000005 13:00000004 14:00000002 15:000007CC 16:66666666 17:77777777 18:88888888 19:99999999 1A:AAAAAAAA 1B:BBBBBBBB 1C:00000001 1D:000007C8 1E:00000007 1F:00000006
0E8: 000A8613  ADDI x12, x21, 0    00:00000000 01:00000134 02:0000066C 05:00000010 06:00000010 07:0000000A 08:000007EC 09:00000005 0A:000007B8 0B:000007C8 0C:00000005 0D:00000006 12:00000005 13:00000004 14:00000002 15:000007CC 16:66666666 17:77777777 18:88888888 19:99999999 1A:AAAAAAAA 1B:BBBBBBBB 1C:00000001 1D:000007C8 1E:00000007 1F:00000006
0EC: F55FF0EF  JAL x1, -172        00:00000000 01:00000134 02:0000066C 05:00000010 06:00000010 07:0000000A 08:000007EC 09:00000005 0A:000007B8 0B:000007C8 0C:000007CC 0D:00000006 12:00000005 13:00000004 14:00000002 15:000007CC 16:66666666 17:77777777 18:88888888 19:99999999 1A:AAAAAAAA 1B:BBBBBBBB 1C:00000001 1D:000007C8 1E:00000007 1F:00000006
040: FE010113  ADDI x2, x2, -32    00:00000000 01:000000F0 02:0000066C 05:00000010 06:00000010 07:0000000A 08:000007EC 09:00000005 0A:000007B8 0B:000007C8 0C:000007CC 0D:00000006 12:00000005 13:00000004 14:00000002 15:000007CC 16:66666666 17:77777777 18:88888888 19:99999999 1A:AAAAAAAA 1B:BBBBBBBB 1C:00000001 1D:000007C8 1E:00000007 1F:00000006
044: 00112E23  SW x1, 28(x2)       00:00000000 01:000000F0 02:0000064C 05:00000010 06:00000010 07:0000000A 08:000007EC 09:00000005 0A:000007B8 0B:000007C8 0C:000007CC 0D:00000006 12:00000005 13:00000004 14:00000002 15:000007CC 16:66666666 17:77777777 18:88888888 19:99999999 1A:AAAAAAAA 1B:BBBBBBBB 1C:00000001 1D:000007C8 1E:00000007 1F:00000006
048: 0005AF03  LW x30, 0(x11)      00:00000000 01:000000F0 02:0000064C 05:00000010 06:00000010 07:0000000A 08:000007EC 09:00000005 0A:000007B8 0B:000007C8 0C:000007CC 0D:00000006 12:00000005 13:00000004 14:00000002 15:000007CC 16:66666666 17:77777777 18:88888888 19:99999999 1A:AAAAAAAA 1B:BBBBBBBB 1C:00000001 1D:000007C8 1E:00000007 1F:00000006
04C: 00062F83  LW x31, 0(x12)      00:00000000 01:000000F0 02:0000064C 05:00000010 06:00000010 07:0000000A 08:000007EC 09:00000005 0A:000007B8 0B:000007C8 0C:000007CC 0D:00000006 12:00000005 13:00000004 14:00000002 15:000007CC 16:66666666 17:77777777 18:88888888 19:99999999 1A:AAAAAAAA 1B:BBBBBBBB 1C:00000001 1D:000007C8 1E:00000006 1F:00000006
050: 01F5A023  SW x31, 0(x11)      00:00000000 01:000000F0 02:0000064C 05:00000010 06:00000010 07:0000000A 08:000007EC 09:00000005 0A:000007B8 0B:000007C8 0C:000007CC 0D:00000006 12:00000005 13:00000004 14:00000002 15:000007CC 16:66666666 17:77777777 18:88888888 19:99999999 1A:AAAAAAAA 1B:BBBBBBBB 1C:00000001 1D:000007C8 1E:00000006 1F:00000005
054: 01E62023  SW x30, 0(x12)      00:00000000 01:000000F0 02:0000064C 05:00000010 06:00000010 07:0000000A 08:000007EC 09:00000005 0A:000007B8 0B:000007C8 0C:000007CC 0D:00000006 12:00000005 13:00000004 14:00000002 15:000007CC 16:66666666 17:77777777 18:88888888 19:99999999 1A:AAAAAAAA 1B:BBBBBBBB 1C:00000001 1D:000007C8 1E:00000006 1F:00000005
058: 01C12083  LW x1, 28(x2)       00:00000000 01:000000F0 02:0000064C 05:00000010 06:00000010 07:0000000A 08:000007EC 09:00000005 0A:000007B8 0B:000007C8 0C:000007CC 0D:00000006 12:00000005 13:00000004 14:00000002 15:000007CC 16:66666666 17:77777777 18:88888888 19:99999999 1A:AAAAAAAA 1B:BBBBBBBB 1C:00000001 1D:000007C8 1E:00000006 1F:00000005
05C: 02010113  ADDI x2, x2, 32     00:00000000 01:000000F0 02:0000064C 05:00000010 06:00000010 07:0000000A 08:000007EC 09:00000005 0A:000007B8 0B:000007C8 0C:000007CC 0D:00000006 12:00000005 13:00000004 14:00000002 15:000007CC 16:66666666 17:77777777 18:88888888 19:99999999 1A:AAAAAAAA 1B:BBBBBBBB 1C:00000001 1D:000007C8 1E:00000006 1F:00000005
060: 00008067  JALR x0, 0(x1)      00:00000000 01:000000F0 02:0000066C 05:00000010 06:00000010 07:0000000A 08:000007EC 09:00000005 0A:000007B8 0B:000007C8 0C:000007CC 0D:00000006 12:00000005 13:00000004 14:00000002 15:000007CC 16:66666666 17:77777777 18:88888888 19:99999999 1A:AAAAAAAA 1B:BBBBBBBB 1C:00000001 1D:000007C8 1E:00000006 1F:00000005
0F0: 00412583  LW x11, 4(x2)       00:00000000 01:000000F0 02:0000066C 05:00000010 06:00000010 07:0000000A 08:000007EC 09:00000005 0A:000007B8 0B:000007C8 0C:000007CC 0D:00000006 12:00000005 13:00000004 14:00000002 15:000007CC 16:66666666 17:77777777 18:88888888 19:99999999 1A:AAAAAAAA 1B:BBBBBBBB 1C:00000001 1D:000007C8 1E:00000006 1F:00000005
0F4: 00012603  LW x12, 0(x2)       00:00000000 01:000000F0 02:0000066C 05:00000010 06:00000010 07:0000000A 08:000007EC 09:00000005 0A:000007B8 0B:00000004 0C:000007CC 0D:00000006 12:00000005 13:00000004 14:00000002 15:000007CC 16:66666666 17:77777777 18:88888888 19:99999999 1A:AAAAAAAA 1B:BBBBBBBB 1C:00000001 1D:000007C8 1E:00000006 1F:00000005
0F8: 00098513  ADDI x10, x19, 0    00:00000000 01:000000F0 02:0000066C 05:00000010 06:00000010 07:0000000A 08:000007EC 09:00000005 0A:000007B8 0B:00000004 0C:00000005 0D:00000006 12:00000005 13:00000004 14:00000002 15:000007CC 16:66666666 17:77777777 18:88888888 19:99999999 1A:AAAAAAAA 1B:BBBBBBBB 1C:00000001 1D:000007C8 1E:00000006 1F:00000005
0FC: 01812483  LW x9, 24(x2)       00:00000000 01:000000F0 02:0000066C 05:00000010 06:00000010 07:0000000A 08:000007EC 09:00000005 0A:00000004 0B:00000004 0C:00000005 0D:00000006 12:00000005 13:00000004 14:00000002 15:000007CC 16:66666666 17:77777777 18:88888888 19:99999999 1A:AAAAAAAA 1B:BBBBBBBB 1C:00000001 1D:000007C8 1E:00000006 1F:00000005
100: 01412903  LW x18, 20(x2)      00:00000000 01:000000F0 02:0000066C 05:00000010 06:00000010 07:0000000A 08:000007EC 09:11111111 0A:00000004 0B:00000004 0C:00000005 0D:00000006 12:00000005 13:00000004 14:00000002 15:000007CC 16:66666666 17:77777777 18:88888888 19:99999999 1A:AAAAAAAA 1B:BBBBBBBB 1C:00000001 1D:000007C8 1E:00000006 1F:00000005
104: 01012983  LW x19, 16(x2)      00:00000000 01:000000F0 02:0000066C 05:00000010 06:00000010 07:0000000A 08:000007EC 09:11111111 0A:00000004 0B:00000004 0C:00000005 0D:00000006 12:22222222 13:00000004 14:00000002 15:000007CC 16:66666666 17:77777777 18:88888888 19:99999999 1A:AAAAAAAA 1B:BBBBBBBB 1C:00000001 1D:000007C8 1E:00000006 1F:00000005
108: 00C12A03  LW x20, 12(x2)      00:00000000 01:000000F0 02:0000066C 05:00000010 06:00000010 07:0000000A 08:000007EC 09:11111111 0A:00000004 0B:00000004 0C:00000005 0D:00000006 12:22222222 13:33333333 14:00000002 15:000007CC 16:66666666 17:77777777 18:88888888 19:99999999 1A:AAAAAAAA 1B:BBBBBBBB 1C:00000001 1D:000007C8 1E:00000006 1F:00000005
10C: 00812A83  LW x21, 8(x2)       00:00000000 01:000000F0 02:0000066C 05:00000010 06:00000010 07:0000000A 08:000007EC 09:11111111 0A:00000004 0B:00000004 0C:00000005 0D:00000006 12:22222222 13:33333333 14:44444444 15:000007CC 16:66666666 17:77777777 18:88888888 19:99999999 1A:AAAAAAAA 1B:BBBBBBBB 1C:00000001 1D:000007C8 1E:00000006 1F:00000005
110: 01C12083  LW x1, 28(x2)       00:00000000 01:000000F0 02:0000066C 05:00000010 06:00000010 07:0000000A 08:000007EC 09:11111111 0A:00000004 0B:00000004 0C:00000005 0D:00000006 12:22222222 13:33333333 14:44444444 15:55555555 16:66666666 17:77777777 18:88888888 19:99999999 1A:AAAAAAAA 1B:BBBBBBBB 1C:00000001 1D:000007C8 1E:00000006 1F:00000005
114: 02010113  ADDI x2, x2, 32     00:00000000 01:00000134 02:0000066C 05:00000010 06:00000010 07:0000000A 08:000007EC 09:11111111 0A:00000004 0B:00000004 0C:00000005 0D:00000006 12:22222222 13:33333333 14:44444444 15:55555555 16:66666666 17:77777777 18:88888888 19:99999999 1A:AAAAAAAA 1B:BBBBBBBB 1C:00000001 1D:000007C8 1E:00000006 1F:00000005
118: 00008067  JALR x0, 0(x1)      00:00000000 01:00000134 02:0000068C 05:00000010 06:00000010 07:0000000A 08:000007EC 09:11111111 0A:00000004 0B:00000004 0C:00000005 0D:00000006 12:22222222 13:33333333 14:44444444 15:55555555 16:66666666 17:77777777 18:88888888 19:99999999 1A:AAAAAAAA 1B:BBBBBBBB 1C:00000001 1D:000007C8 1E:00000006 1F:00000005
134: 00050693  ADDI x13, x10, 0    00:00000000 01:00000134 02:0000068C 05:00000010 06:00000010 07:0000000A 08:000007EC 09:11111111 0A:00000004 0B:00000004 0C:00000005 0D:00000006 12:22222222 13:33333333 14:44444444 15:55555555 16:66666666 17:77777777 18:88888888 19:99999999 1A:AAAAAAAA 1B:BBBBBBBB 1C:00000001 1D:000007C8 1E:00000006 1F:00000005
138: 00C12503  LW x10, 12(x2)      00:00000000 01:00000134 02:0000068C 05:00000010 06:00000010 07:0000000A 08:000007EC 09:11111111 0A:00000004 0B:00000004 0C:00000005 0D:00000004 12:22222222 13:33333333 14:44444444 15:55555555 16:66666666 17:77777777 18:88888888 19:99999999 1A:AAAAAAAA 1B:BBBBBBBB 1C:00000001 1D:000007C8 1E:00000006 1F:00000005
13C: FFF68613  ADDI x12, x13, -1   00:00000000 01:00000134 02:0000068C 05:00000010 06:00000010 07:0000000A 08:000007EC 09:11111111 0A:000007B8 0B:00000004 0C:00000005 0D:00000004 12:22222222 13:33333333 14:44444444 15:55555555 16:66666666 17:77777777 18:88888888 19:99999999 1A:AAAAAAAA 1B:BBBBBBBB 1C:00000001 1D:000007C8 1E:00000006 1F:00000005
140: FDDFF0EF  JAL x1, -36         00:00000000 01:00000134 02:0000068C 05:00000010 06:00000010 07:0000000A 08:000007EC 09:11111111 0A:000007B8 0B:00000004 0C:00000003 0D:00000004 12:22222222 13:33333333 14:44444444 15:55555555 16:66666666 17:77777777 18:88888888 19:99999999 1A:AAAAAAAA 1B:BBBBBBBB 1C:00000001 1D:000007C8 1E:00000006 1F:00000005
11C: FE010113  ADDI x2, x2, -32    00:00000000 01:00000144 02:0000068C 05:00000010 06:00000010 07:0000000A 08:000007EC 09:11111111 0A:000007B8 0B:00000004 0C:00000003 0D:00000004 12:22222222 13:33333333 14:44444444 15:55555555 16:66666666 17:77777777 18:88888888 19:99999999 1A:AAAAAAAA 1B:BBBBBBBB 1C:00000001 1D:000007C8 1E:00000006 1F:00000005
120: 00112E23  SW x1, 28(x2)       00:00000000 01:00000144 02:0000066C 05:00000010 06:00000010 07:0000000A 08:000007EC 09:11111111 0A:000007B8 0B:00000004 0C:00000003 0D:00000004 12:22222222 13:33333333 14:44444444 15:55555555 16:66666666 17:77777777 18:88888888 19:99999999 1A:AAAAAAAA 1B:BBBBBBBB 1C:00000001 1D:000007C8 1E:00000006 1F:00000005
124: 00C12A23  SW x12, 20(x2)      00:00000000 01:00000144 02:0000066C 05:00000010 06:00000010 07:0000000A 08:000007EC 09:11111111 0A:000007B8 0B:00000004 0C:00000003 0D:00000004 12:22222222 13:33333333 14:44444444 15:55555555 16:66666666 17:77777777 18:88888888 19:99999999 1A:AAAAAAAA 1B:BBBBBBBB 1C:00000001 1D:000007C8 1E:00000006 1F:00000005
128: 00A12623  SW x10, 12(x2)      00:00000000 01:00000144 02:0000066C 05:00000010 06:00000010 07:0000000A 08:000007EC 09:11111111 0A:000007B8 0B:00000004 0C:00000003 0D:00000004 12:22222222 13:33333333 14:44444444 15:55555555 16:66666666 17:77777777 18:88888888 19:99999999 1A:AAAAAAAA 1B:BBBBBBBB 1C:00000001 1D:000007C8 1E:00000006 1F:00000005
12C: 02C5D463  BGE x11, x12, 40    00:00000000 01:00000144 02:0000066C 05:00000010 06:00000010 07:0000000A 08:000007EC 09:11111111 0A:000007B8 0B:00000004 0C:00000003 0D:00000004 12:22222222 13:33333333 14:44444444 15:55555555 16:66666666 17:77777777 18:88888888 19:99999999 1A:AAAAAAAA 1B:BBBBBBBB 1C:00000001 1D:000007C8 1E:00000006 1F:00000005
154: 01C12083  LW x1, 28(x2)       00:00000000 01:00000144 02:0000066C 05:00000010 06:00000010 07:0000000A 08:000007EC 09:11111111 0A:000007B8 0B:00000004 0C:00000003 0D:00000004 12:22222222 13:33333333 14:44444444 15:55555555 16:66666666 17:77777777 18:88888888 19:99999999 1A:AAAAAAAA 1B:BBBBBBBB 1C:00000001 1D:000007C8 1E:00000006 1F:00000005
158: 02010113  ADDI x2, x2, 32     00:00000000 01:00000144 02:0000066C 05:00000010 06:00000010 07:0000000A 08:000007EC 09:11111111 0A:000007B8 0B:00000004 0C:00000003 0D:00000004 12:22222222 13:33333333 14:44444444 15:55555555 16:66666666 17:77777777 18:88888888 19:99999999 1A:AAAAAAAA 1B:BBBBBBBB 1C:00000001 1D:000007C8 1E:00000006 1F:00000005
15C: 00008067  JALR x0, 0(x1)      00:00000000 01:00000144 02:0000068C 05:00000010 06:00000010 07:0000000A 08:000007EC 09:11111111 0A:000007B8 0B:00000004 0C:00000003 0D:00000004 12:22222222 13:33333333 14:44444444 15:55555555 16:66666666 17:77777777 18:88888888 19:99999999 1A:AAAAAAAA 1B:BBBBBBBB 1C:00000001 1D:000007C8 1E:00000006 1F:00000005
144: 00168593  ADDI x11, x13, 1    00:00000000 01:00000144 02:0000068C 05:00000010 06:00000010 07:0000000A 08:000007EC 09:11111111 0A:000007B8 0B:00000004 0C:00000003 0D:00000004 12:22222222 13:33333333 14:44444444 15:55555555 16:66666666 17:77777777 18:88888888 19:99999999 1A:AAAAAAAA 1B:BBBBBBBB 1C:00000001 1D:000007C8 1E:00000006 1F:00000005
148: 01412603  LW x12, 20(x2)      00:00000000 01:00000144 02:0000068C 05:00000010 06:00000010 07:0000000A 08:000007EC 09:11111111 0A:000007B8 0B:00000005 0C:00000003 0D:00000004 12:22222222 13:33333333 14:44444444 15:55555555 16:66666666 17:77777777 18:88888888 19:99999999 1A:AAAAAAAA 1B:BBBBBBBB 1C:00000001 1D:000007C8 1E:00000006 1F:00000005
14C: FD1FF0EF  JAL x1, -48         00:00000000 01:00000144 02:0000068C 05:00000010 06:00000010 07:0000000A 08:000007EC 09:11111111 0A:000007B8 0B:00000005 0C:00000005 0D:00000004 12:22222222 13:33333333 14:44444444 15:55555555 16:66666666 17:77777777 18:88888888 19:99999999 1A:AAAAAAAA 1B:BBBBBBBB 1C:00000001 1D:000007C8 1E:00000006 1F:00000005
11C: FE010113  ADDI x2, x2, -32    00:00000000 01:00000150 02:0000068C 05:00000010 06:00000010 07:0000000A 08:000007EC 09:11111111 0A:000007B8 0B:00000005 0C:00000005 0D:00000004 12:22222222 13:33333333 14:44444444 15:55555555 16:66666666 17:77777777 18:88888888 19:99999999 1A:AAAAAAAA 1B:BBBBBBBB 1C:00000001 1D:000007C8 1E:00000006 1F:00000005
120: 00112E23  SW x1, 28(x2)       00:00000000 01:00000150 02:0000066C 05:00000010 06:00000010 07:0000000A 08:000007EC 09:11111111 0A:000007B8 0B:00000005 0C:00000005 0D:00000004 12:22222222 13:33333333 14:44444444 15:55555555 16:66666666 17:77777777 18:88888888 19:99999999 1A:AAAAAAAA 1B:BBBBBBBB 1C:00000001 1D:000007C8 1E:00000006 1F:00000005
124: 00C12A23  SW x12, 20(x2)      00:00000000 01:00000150 02:0000066C 05:00000010 06:00000010 07:0000000A 08:000007EC 09:11111111 0A:000007B8 0B:00000005 0C:00000005 0D:00000004 12:22222222 13:33333333 14:44444444 15:55555555 16:66666666 17:77777777 18:88888888 19:99999999 1A:AAAAAAAA 1B:BBBBBBBB 1C:00000001 1D:000007C8 1E:00000006 1F:00000005
128: 00A12623  SW x10, 12(x2)      00:00000000 01:00000150 02:0000066C 05:00000010 06:00000010 07:0000000A 08:000007EC 09:11111111 0A:000007B8 0B:00000005 0C:00000005 0D:00000004 12:22222222 13:33333333 14:44444444 15:55555555 16:66666666 17:77777777 18:88888888 19:99999999 1A:AAAAAAAA 1B:BBBBBBBB 1C:00000001 1D:000007C8 1E:00000006 1F:00000005
12C: 02C5D463  BGE x11, x12, 40    00:00000000 01:00000150 02:0000066C 05:00000010 06:00000010 07:0000000A 08:000007EC 09:11111111 0A:000007B8 0B:00000005 0C:00000005 0D:00000004 12:22222222 13:33333333 14:44444444 15:55555555 16:66666666 17:77777777 18:88888888 19:99999999 1A:AAAAAAAA 1B:BBBBBBBB 1C:00000001 1D:000007C8 1E:00000006 1F:00000005
154: 01C12083  LW x1, 28(x2)       00:00000000 01:00000150 02:0000066C 05:00000010 06:00000010 07:0000000A 08:000007EC 09:11111111 0A:000007B8 0B:00000005 0C:00000005 0D:00000004 12:22222222 13:33333333 14:44444444 15:55555555 16:66666666 17:77777777 18:88888888 19:99999999 1A:AAAAAAAA 1B:BBBBBBBB 1C:00000001 1D:000007C8 1E:00000006 1F:00000005
158: 02010113  ADDI x2, x2, 32     00:00000000 01:00000150 02:0000066C 05:00000010 06:00000010 07:0000000A 08:000007EC 09:11111111 0A:000007B8 0B:00000005 0C:00000005 0D:00000004 12:22222222 13:33333333 14:44444444 15:55555555 16:66666666 17:77777777 18:88888888 19:99999999 1A:AAAAAAAA 1B:BBBBBBBB 1C:00000001 1D:000007C8 1E:00000006 1F:00000005
15C: 00008067  JALR x0, 0(x1)      00:00000000 01:00000150 02:0000068C 05:00000010 06:00000010 07:0000000A 08:000007EC 09:11111111 0A:000007B8 0B:00000005 0C:00000005 0D:00000004 12:22222222 13:33333333 14:44444444 15:55555555 16:66666666 17:77777777 18:88888888 19:99999999 1A:AAAAAAAA 1B:BBBBBBBB 1C:00000001 1D:000007C8 1E:00000006 1F:00000005
150: 01412603  LW x12, 20(x2)      00:00000000 01:00000150 02:0000068C 05:00000010 06:00000010 07:0000000A 08:000007EC 09:11111111 0A:000007B8 0B:00000005 0C:00000005 0D:00000004 12:22222222 13:33333333 14:44444444 15:55555555 16:66666666 17:77777777 18:88888888 19:99999999 1A:AAAAAAAA 1B:BBBBBBBB 1C:00000001 1D:000007C8 1E:00000006 1F:00000005
154: 01C12083  LW x1, 28(x2)       00:00000000 01:00000150 02:0000068C 05:00000010 06:00000010 07:0000000A 08:000007EC 09:11111111 0A:000007B8 0B:00000005 0C:00000005 0D:00000004 12:22222222 13:33333333 14:44444444 15:55555555 16:66666666 17:77777777 18:88888888 19:99999999 1A:AAAAAAAA 1B:BBBBBBBB 1C:00000001 1D:000007C8 1E:00000006 1F:00000005
158: 02010113  ADDI x2, x2, 32     00:00000000 01:00000144 02:0000068C 05:00000010 06:00000010 07:0000000A 08:000007EC 09:11111111 0A:000007B8 0B:00000005 0C:00000005 0D:00000004 12:22222222 13:33333333 14:44444444 15:55555555 16:66666666 17:77777777 18:88888888 19:99999999 1A:AAAAAAAA 1B:BBBBBBBB 1C:00000001 1D:000007C8 1E:00000006 1F:00000005
15C: 00008067  JALR x0, 0(x1)      00:00000000 01:00000144 02:000006AC 05:00000010 06:00000010 07:0000000A 08:000007EC 09:11111111 0A:000007B8 0B:00000005 0C:00000005 0D:00000004 12:22222222 13:33333333 14:44444444 15:55555555 16:66666666 17:77777777 18:88888888 19:99999999 1A:AAAAAAAA 1B:BBBBBBBB 1C:00000001 1D:000007C8 1E:00000006 1F:00000005
144: 00168593  ADDI x11, x13, 1    00:00000000 01:00000144 02:000006AC 05:00000010 06:00000010 07:0000000A 08:000007EC 09:11111111 0A:000007B8 0B:00000005 0C:00000005 0D:00000004 12:22222222 13:33333333 14:44444444 15:55555555 16:66666666 17:77777777 18:88888888 19:99999999 1A:AAAAAAAA 1B:BBBBBBBB 1C:00000001 1D:000007C8 1E:00000006 1F:00000005
148: 01412603  LW x12, 20(x2)      00:00000000 01:00000144 02:000006AC 05:00000010 06:00000010 07:0000000A 08:000007EC 09:11111111 0A:000007B8 0B:00000005 0C:00000005 0D:00000004 12:22222222 13:33333333 14:44444444 15:55555555 16:66666666 17:77777777 18:88888888 19:99999999 1A:AAAAAAAA 1B:BBBBBBBB 1C:00000001 1D:000007C8 1E:00000006 1F:00000005
14C: FD1FF0EF  JAL x1, -48         00:00000000 01:00000144 02:000006AC 05:00000010 06:00000010 07:0000000A 08:000007EC 09:11111111 0A:000007B8 0B:00000005 0C:00000006 0D:00000004 12:22222222 13:33333333 14:44444444 15:55555555 16:66666666 17:77777777 18:88888888 19:99999999 1A:AAAAAAAA 1B:BBBBBBBB 1C:00000001 1D:000007C8 1E:00000006 1F:00000005
11C: FE010113  ADDI x2, x2, -32    00:00000000 01:00000150 02:000006AC 05:00000010 06:00000010 07:0000000A 08:000007EC 09:11111111 0A:000007B8 0B:00000005 0C:00000006 0D:00000004 12:22222222 13:33333333 14:44444444 15:55555555 16:66666666 17:77777777 18:88888888 19:99999999 1A:AAAAAAAA 1B:BBBBBBBB 1C:00000001 1D:000007C8 1E:00000006 1F:00000005
120: 00112E23  SW x1, 28(x2)       00:00000000 01:00000150 02:0000068C 05:00000010 06:00000010 07:0000000A 08:000007EC 09:11111111 0A:000007B8 0B:00000005 0C:00000006 0D:00000004 12:22222222 13:33333333 14:44444444 15:55555555 16:66666666 17:77777777 18:88888888 19:99999999 1A:AAAAAAAA 1B:BBBBBBBB 1C:00000001 1D:000007C8 1E:00000006 1F:00000005
124: 00C12A23  SW x12, 20(x2)      00:00000000 01:00000150 02:0000068C 05:00000010 06:00000010 07:0000000A 08:000007EC 09:11111111 0A:000007B8 0B:00000005 0C:00000006 0D:00000004 12:22222222 13:33333333 14:44444444 15:55555555 16:66666666 17:77777777 18:88888888 19:99999999 1A:AAAAAAAA 1B:BBBBBBBB 1C:00000001 1D:000007C8 1E:00000006 1F:00000005
128: 00A12623  SW x10, 12(x2)      00:00000000 01:00000150 02:0000068C 05:00000010 06:00000010 07:0000000A 08:000007EC 09:11111111 0A:000007B8 0B:00000005 0C:00000006 0D:00000004 12:22222222 13:33333333 14:44444444 15:55555555 16:66666666 17:77777777 18:88888888 19:99999999 1A:AAAAAAAA 1B:BBBBBBBB 1C:00000001 1D:000007C8 1E:00000006 1F:00000005
12C: 02C5D463  BGE x11, x12, 40    00:00000000 01:00000150 02:0000068C 05:00000010 06:00000010 07:0000000A 08:000007EC 09:11111111 0A:000007B8 0B:00000005 0C:00000006 0D:00000004 12:22222222 13:33333333 14:44444444 15:55555555 16:66666666 17:77777777 18:88888888 19:99999999 1A:AAAAAAAA 1B:BBBBBBBB 1C:00000001 1D:000007C8 1E:00000006 1F:00000005
130: F35FF0EF  JAL x1, -204        00:00000000 01:00000150 02:0000068C 05:00000010 06:00000010 07:0000000A 08:000007EC 09:11111111 0A:000007B8 0B:00000005 0C:00000006 0D:00000004 12:22222222 13:33333333 14:44444444 15:55555555 16:66666666 17:77777777 18:88888888 19:99999999 1A:AAAAAAAA 1B:BBBBBBBB 1C:00000001 1D:000007C8 1E:00000006 1F:00000005
064: FE010113  ADDI x2, x2, -32    00:00000000 01:00000134 02:0000068C 05:00000010 06:00000010 07:0000000A 08:000007EC 09:11111111 0A:000007B8 0B:00000005 0C:00000006 0D:00000004 12:22222222 13:33333333 14:44444444 15:55555555 16:66666666 17:77777777 18:88888888 19:99999999 1A:AAAAAAAA 1B:BBBBBBBB 1C:00000001 1D:000007C8 1E:00000006 1F:00000005
068: 00112E23  SW x1, 28(x2)       00:00000000 01:00000134 02:0000066C 05:00000010 06:00000010 07:0000000A 08:000007EC 09:11111111 0A:000007B8 0B:00000005 0C:00000006 0D:00000004 12:22222222 13:33333333 14:44444444 15:55555555 16:66666666 17:77777777 18:88888888 19:99999999 1A:AAAAAAAA 1B:BBBBBBBB 1C:00000001 1D:000007C8 1E:00000006 1F:00000005
06C: 00912C23  SW x9, 24(x2)       00:00000000 01:00000134 02:0000066C 05:00000010 06:00000010 07:0000000A 08:000007EC 09:11111111 0A:000007B8 0B:00000005 0C:00000006 0D:00000004 12:22222222 13:33333333 14:44444444 15:55555555 16:66666666 17:77777777 18:88888888 19:99999999 1A:AAAAAAAA 1B:BBBBBBBB 1C:00000001 1D:000007C8 1E:00000006 1F:00000005
070: 01212A23  SW x18, 20(x2)      00:00000000 01:00000134 02:0000066C 05:00000010 06:00000010 07:0000000A 08:000007EC 09:11111111 0A:000007B8 0B:00000005 0C:00000006 0D:00000004 12:22222222 13:33333333 14:44444444 15:55555555 16:66666666 17:77777777 18:88888888 19:99999999 1A:AAAAAAAA 1B:BBBBBBBB 1C:00000001 1D:000007C8 1E:00000006 1F:00000005
074: 01312823  SW x19, 16(x2)      00:00000000 01:00000134 02:0000066C 05:00000010 06:00000010 07:0000000A 08:000007EC 09:11111111 0A:000007B8 0B:00000005 0C:00000006 0D:00000004 12:22222222 13:33333333 14:44444444 15:55555555 16:66666666 17:77777777 18:88888888 19:99999999 1A:AAAAAAAA 1B:BBBBBBBB 1C:00000001 1D:000007C8 1E:00000006 1F:00000005
078: 01412623  SW x20, 12(x2)      00:00000000 01:00000134 02:0000066C 05:00000010 06:00000010 07:0000000A 08:000007EC 09:11111111 0A:000007B8 0B:00000005 0C:00000006 0D:00000004 12:22222222 13:33333333 14:44444444 15:55555555 16:66666666 17:77777777 18:88888888 19:99999999 1A:AAAAAAAA 1B:BBBBBBBB 1C:00000001 1D:000007C8 1E:00000006 1F:00000005
07C: 01512423  SW x21, 8(x2)       00:00000000 01:00000134 02:0000066C 05:00000010 06:00000010 07:0000000A 08:000007EC 09:11111111 0A:000007B8 0B:00000005 0C:00000006 0D:00000004 12:22222222 13:33333333 14:44444444 15:55555555 16:66666666 17:77777777 18:88888888 19:99999999 1A:AAAAAAAA 1B:BBBBBBBB 1C:00000001 1D:000007C8 1E:00000006 1F:00000005
080: 00B12223  SW x11, 4(x2)       00:00000000 01:00000134 02:0000066C 05:00000010 06:00000010 07:0000000A 08:000007EC 09:11111111 0A:000007B8 0B:00000005 0C:00000006 0D:00000004 12:22222222 13:33333333 14:44444444 15:55555555 16:66666666 17:77777777 18:88888888 19:99999999 1A:AAAAAAAA 1B:BBBBBBBB 1C:00000001 1D:000007C8 1E:00000006 1F:00000005
084: 00C12023  SW x12, 0(x2)       00:00000000 01:00000134 02:0000066C 05:00000010 06:00000010 07:0000000A 08:000007EC 09:11111111 0A:000007B8 0B:00000005 0C:00000006 0D:00000004 12:22222222 13:33333333 14:44444444 15:55555555 16:66666666 17:77777777 18:88888888 19:99999999 1A:AAAAAAAA 1B:BBBBBBBB 1C:00000001 1D:000007C8 1E:00000006 1F:00000005
088: 00200A13  ADDI x20, x0, 2     00:00000000 01:00000134 02:0000066C 05:00000010 06:00000010 07:0000000A 08:000007EC 09:11111111 0A:000007B8 0B:00000005 0C:00000006 0D:00000004 12:22222222 13:33333333 14:44444444 15:55555555 16:66666666 17:77777777 18:88888888 19:99999999 1A:AAAAAAAA 1B:BBBBBBBB 1C:00000001 1D:000007C8 1E:00000006 1F:00000005
08C: 01461333  SLL x6, x12, x20    00:00000000 01:00000134 02:0000066C 05:00000010 06:00000010 07:0000000A 08:000007EC 09:11111111 0A:000007B8 0B:00000005 0C:00000006 0D:00000004 12:22222222 13:33333333 14:00000002 15:55555555 16:66666666 17:77777777 18:88888888 19:99999999 1A:AAAAAAAA 1B:BBBBBBBB 1C:00000001 1D:000007C8 1E:00000006 1F:00000005
090: 00650AB3  ADD x21, x10, x6    00:00000000 01:00000134 02:0000066C 05:00000010 06:00000018 07:0000000A 08:000007EC 09:11111111 0A:000007B8 0B:00000005 0C:00000006 0D:00000004 12:22222222 13:33333333 14:00000002 15:55555555 16:66666666 17:77777777 18:88888888 19:99999999 1A:AAAAAAAA 1B:BBBBBBBB 1C:00000001 1D:000007C8 1E:00000006 1F:00000005
094: 000AA903  LW x18, 0(x21)      00:00000000 01:00000134 02:0000066C 05:00000010 06:00000018 07:0000000A 08:000007EC 09:11111111 0A:000007B8 0B:00000005 0C:00000006 0D:00000004 12:22222222 13:33333333 14:00000002 15:000007D0 16:66666666 17:77777777 18:88888888 19:99999999 1A:AAAAAAAA 1B:BBBBBBBB 1C:00000001 1D:000007C8 1E:00000006 1F:00000005
098: 00058493  ADDI x9, x11, 0     00:00000000 01:00000134 02:0000066C 05:00000010 06:00000018 07:0000000A 08:000007EC 09:11111111 0A:000007B8 0B:00000005 0C:00000006 0D:00000004 12:00000007 13:33333333 14:00000002 15:000007D0 16:66666666 17:77777777 18:88888888 19:99999999 1A:AAAAAAAA 1B:BBBBBBBB 1C:00000001 1D:000007C8 1E:00000006 1F:00000005
09C: FFF58993  ADDI x19, x11, -1   00:00000000 01:00000134 02:0000066C 05:00000010 06:00000018 07:0000000A 08:000007EC 09:00000005 0A:000007B8 0B:00000005 0C:00000006 0D:00000004 12:00000007 13:33333333 14:00000002 15:000007D0 16:66666666 17:77777777 18:88888888 19:99999999 1A:AAAAAAAA 1B:BBBBBBBB 1C:00000001 1D:000007C8 1E:00000006 1F:00000005
0A0: 02C4DE63  BGE x9, x12, 60     00:00000000 01:00000134 02:0000066C 05:00000010 06:00000018 07:0000000A 08:000007EC 09:00000005 0A:000007B8 0B:00000005 0C:00000006 0D:00000004 12:00000007 13:00000004 14:00000002 15:000007D0 16:66666666 17:77777777 18:88888888 19:99999999 1A:AAAAAAAA 1B:BBBBBBBB 1C:00000001 1D:000007C8 1E:00000006 1F:00000005
0A4: 014492B3  SLL x5, x9, x20     00:00000000 01:00000134 02:0000066C 05:00000010 06:00000018 07:0000000A 08:000007EC 09:00000005 0A:000007B8 0B:00000005 0C:00000006 0D:00000004 12:00000007 13:00000004 14:00000002 15:000007D0 16:66666666 17:77777777 18:88888888 19:99999999 1A:AAAAAAAA 1B:BBBBBBBB 1C:00000001 1D:000007C8 1E:00000006 1F:00000005
0A8: 00550EB3  ADD x29, x10, x5    00:00000000 01:00000134 02:0000066C 05:00000014 06:00000018 07:0000000A 08:000007EC 09:00000005 0A:000007B8 0B:00000005 0C:00000006 0D:00000004 12:00000007 13:00000004 14:00000002 15:000007D0 16:66666666 17:77777777 18:88888888 19:99999999 1A:AAAAAAAA 1B:BBBBBBBB 1C:00000001 1D:000007C8 1E:00000006 1F:00000005
0AC: 000EAF83  LW x31, 0(x29)      00:00000000 01:00000134 02:0000066C 05:00000014 06:00000018 07:0000000A 08:000007EC 09:00000005 0A:000007B8 0B:00000005 0C:00000006 0D:00000004 12:00000007 13:00000004 14:00000002 15:000007D0 16:66666666 17:77777777 18:88888888 19:99999999 1A:AAAAAAAA 1B:BBBBBBBB 1C:00000001 1D:000007CC 1E:00000006 1F:00000005
0B0: 032FD263  BGE x31, x18, 36    00:00000000 01:00000134 02:0000066C 05:00000014 06:00000018 07:0000000A 08:000007EC 09:00000005 0A:000007B8 0B:00000005 0C:00000006 0D:00000004 12:00000007 13:00000004 14:00000002 15:000007D0 16:66666666 17:77777777 18:88888888 19:99999999 1A:AAAAAAAA 1B:BBBBBBBB 1C:00000001 1D:000007CC 1E:00000006 1F:00000006
0B4: 00198993  ADDI x19, x19, 1    00:00000000 01:00000134 02:0000066C 05:00000014 06:00000018 07:0000000A 08:000007EC 09:00000005 0A:000007B8 0B:00000005 0C:00000006 0D:00000004 12:00000007 13:00000004 14:00000002 15:000007D0 16:66666666 17:77777777 18:88888888 19:99999999 1A:AAAAAAAA 1B:BBBBBBBB 1C:00000001 1D:000007CC 1E:00000006 1F:00000006
0B8: 01499333  SLL x6, x19, x20    00:00000000 01:00000134 02:0000066C 05:00000014 06:00000018 07:0000000A 08:000007EC 09:00000005 0A:000007B8 0B:00000005 0C:00000006 0D:00000004 12:00000007 13:00000005 14:00000002 15:000007D0 16:66666666 17:77777777 18:88888888 19:99999999 1A:AAAAAAAA 1B:BBBBBBBB 1C:00000001 1D:000007CC 1E:00000006 1F:00000006
0BC: 006505B3  ADD x11, x10, x6    00:00000000 01:00000134 02:0000066C 05:00000014 06:00000014 07:0000000A 08:000007EC 09:00000005 0A:000007B8 0B:00000005 0C:00000006 0D:00000004 12:00000007 13:00000005 14:00000002 15:000007D0 16:66666666 17:77777777 18:88888888 19:99999999 1A:AAAAAAAA 1B:BBBBBBBB 1C:00000001 1D:000007CC 1E:00000006 1F:00000006
0C0: 000E8613  ADDI x12, x29, 0    00:00000000 01:00000134 02:0000066C 05:00000014 06:00000014 07:0000000A 08:000007EC 09:00000005 0A:000007B8 0B:000007CC 0C:00000006 0D:00000004 12:00000007 13:00000005 14:00000002 15:000007D0 16:66666666 17:77777777 18:88888888 19:99999999 1A:AAAAAAAA 1B:BBBBBBBB 1C:00000001 1D:000007CC 1E:00000006 1F:00000006
0C4: F7DFF0EF  JAL x1, -132        00:00000000 01:00000134 02:0000066C 05:00000014 06:00000014 07:0000000A 08:000007EC 09:00000005 0A:000007B8 0B:000007CC 0C:000007CC 0D:00000004 12:00000007 13:00000005 14:00000002 15:000007D0 16:66666666 17:77777777 18:88888888 19:99999999 1A:AAAAAAAA 1B:BBBBBBBB 1C:00000001 1D:000007CC 1E:00000006 1F:00000006
040: FE010113  ADDI x2, x2, -32    00:00000000 01:000000C8 02:0000066C 05:00000014 06:00000014 07:0000000A 08:000007EC 09:00000005 0A:000007B8 0B:000007CC 0C:000007CC 0D:00000004 12:00000007 13:00000005 14:00000002 15:000007D0 16:66666666 17:77777777 18:88888888 19:99999999 1A:AAAAAAAA 1B:BBBBBBBB 1C:00000001 1D:000007CC 1E:00000006 1F:00000006
044: 00112E23  SW x1, 28(x2)       00:00000000 01:000000C8 02:0000064C 05:00000014 06:00000014 07:0000000A 08:000007EC 09:00000005 0A:000007B8 0B:000007CC 0C:000007CC 0D:00000004 12:00000007 13:00000005 14:00000002 15:000007D0 16:66666666 17:77777777 18:88888888 19:99999999 1A:AAAAAAAA 1B:BBBBBBBB 1C:00000001 1D:000007CC 1E:00000006 1F:00000006
048: 0005AF03  LW x30, 0(x11)      00:00000000 01:000000C8 02:0000064C 05:00000014 06:00000014 07:0000000A 08:000007EC 09:00000005 0A:000007B8 0B:000007CC 0C:000007CC 0D:00000004 12:00000007 13:00000005 14:00000002 15:000007D0 16:66666666 17:77777777 18:88888888 19:99999999 1A:AAAAAAAA 1B:BBBBBBBB 1C:00000001 1D:000007CC 1E:00000006 1F:00000006
04C: 00062F83  LW x31, 0(x12)      00:00000000 01:000000C8 02:0000064C 05:00000014 06:00000014 07:0000000A 08:000007EC 09:00000005 0A:000007B8 0B:000007CC 0C:000007CC 0D:00000004 12:00000007 13:00000005 14:00000002 15:000007D0 16:66666666 17:77777777 18:88888888 19:99999999 1A:AAAAAAAA 1B:BBBBBBBB 1C:00000001 1D:000007CC 1E:00000006 1F:00000006
050: 01F5A023  SW x31, 0(x11)      00:00000000 01:000000C8 02:0000064C 05:00000014 06:00000014 07:0000000A 08:000007EC 09:00000005 0A:000007B8 0B:000007CC 0C:000007CC 0D:00000004 12:00000007 13:00000005 14:00000002 15:000007D0 16:66666666 17:77777777 18:88888888 19:99999999 1A:AAAAAAAA 1B:BBBBBBBB 1C:00000001 1D:000007CC 1E:00000006 1F:00000006
054: 01E62023  SW x30, 0(x12)      00:00000000 01:000000C8 02:0000064C 05:00000014 06:00000014 07:0000000A 08:000007EC 09:00000005 0A:000007B8 0B:000007CC 0C:000007CC 0D:00000004 12:00000007 13:00000005 14:00000002 15:000007D0 16:66666666 17:77777777 18:88888888 19:99999999 1A:AAAAAAAA 1B:BBBBBBBB 1C:00000001 1D:000007CC 1E:00000006 1F:00000006
058: 01C12083  LW x1, 28(x2)       00:00000000 01:000000C8 02:0000064C 05:00000014 06:00000014 07:0000000A 08:000007EC 09:00000005 0A:000007B8 0B:000007CC 0C:000007CC 0D:00000004 12:00000007 13:00000005 14:00000002 15:000007D0 16:66666666 17:77777777 18:88888888 19:99999999 1A:AAAAAAAA 1B:BBBBBBBB 1C:00000001 1D:000007CC 1E:00000006 1F:00000006
05C: 02010113  ADDI x2, x2, 32     00:00000000 01:000000C8 02:0000064C 05:00000014 06:00000014 07:0000000A 08:000007EC 09:00000005 0A:000007B8 0B:000007CC 0C:000007CC 0D:00000004 12:00000007 13:00000005 14:00000002 15:000007D0 16:66666666 17:77777777 18:88888888 19:99999999 1A:AAAAAAAA 1B:BBBBBBBB 1C:00000001 1D:000007CC 1E:00000006 1F:00000006
060: 00008067  JALR x0, 0(x1)      00:00000000 01:000000C8 02:0000066C 05:00000014 06:00000014 07:0000000A 08:000007EC 09:00000005 0A:000007B8 0B:000007CC 0C:000007CC 0D:00000004 12:00000007 13:00000005 14:00000002 15:000007D0 16:66666666 17:77777777 18:88888888 19:99999999 1A:AAAAAAAA 1B:BBBBBBBB 1C:00000001 1D:000007CC 1E:00000006 1F:00000006
0C8: 00412583  LW x11, 4(x2)       00:00000000 01:000000C8 02:0000066C 05:00000014 06:00000014 07:0000000A 08:000007EC 09:00000005 0A:000007B8 0B:000007CC 0C:000007CC 0D:00000004 12:00000007 13:00000005 14:00000002 15:000007D0 16:66666666 17:77777777 18:88888888 19:99999999 1A:AAAAAAAA 1B:BBBBBBBB 1C:00000001 1D:000007CC 1E:00000006 1F:00000006
0CC: 00012603  LW x12, 0(x2)       00:00000000 01:000000C8 02:0000066C 05:00000014 06:00000014 07:0000000A 08:000007EC 09:00000005 0A:000007B8 0B:00000005 0C:000007CC 0D:00000004 12:00000007 13:00000005 14:00000002 15:000007D0 16:66666666 17:77777777 18:88888888 19:99999999 1A:AAAAAAAA 1B:BBBBBBBB 1C:00000001 1D:000007CC 1E:00000006 1F:00000006
0D0: 0040006F  JAL x0, 4           00:00000000 01:000000C8 02:0000066C 05:00000014 06:00000014 07:0000000A 08:000007EC 09:00000005 0A:000007B8 0B:00000005 0C:00000006 0D:00000004 12:00000007 13:00000005 14:00000002 15:000007D0 16:66666666 17:77777777 18:88888888 19:99999999 1A:AAAAAAAA 1B:BBBBBBBB 1C:00000001 1D:000007CC 1E:00000006 1F:00000006
0D4: 00148493  ADDI x9, x9, 1      00:00000000 01:000000C8 02:0000066C 05:00000014 06:00000014 07:0000000A 08:000007EC 09:00000005 0A:000007B8 0B:00000005 0C:00000006 0D:00000004 12:00000007 13:00000005 14:00000002 15:000007D0 16:66666666 17:77777777 18:88888888 19:99999999 1A:AAAAAAAA 1B:BBBBBBBB 1C:00000001 1D:000007CC 1E:00000006 1F:00000006
0D8: FC9FF06F  JAL x0, -56         00:00000000 01:000000C8 02:0000066C 05:00000014 06:00000014 07:0000000A 08:000007EC 09:00000006 0A:000007B8 0B:00000005 0C:00000006 0D:00000004 12:00000007 13:00000005 14:00000002 15:000007D0 16:66666666 17:77777777 18:88888888 19:99999999 1A:AAAAAAAA 1B:BBBBBBBB 1C:00000001 1D:000007CC 1E:00000006 1F:00000006
0A0: 02C4DE63  BGE x9, x12, 60     00:00000000 01:000000C8 02:0000066C 05:00000014 06:00000014 07:0000000A 08:000007EC 09:00000006 0A:000007B8 0B:00000005 0C:00000006 0D:00000004 12:00000007 13:00000005 14:00000002 15:000007D0 16:66666666 17:77777777 18:88888888 19:99999999 1A:AAAAAAAA 1B:BBBBBBBB 1C:00000001 1D:000007CC 1E:00000006 1F:00000006
0DC: 00198993  ADDI x19, x19, 1    00:00000000 01:000000C8 02:0000066C 05:00000014 06:00000014 07:0000000A 08:000007EC 09:00000006 0A:000007B8 0B:00000005 0C:00000006 0D:00000004 12:00000007 13:00000005 14:00000002 15:000007D0 16:66666666 17:77777777 18:88888888 19:99999999 1A:AAAAAAAA 1B:BBBBBBBB 1C:00000001 1D:000007CC 1E:00000006 1F:00000006
0E0: 01499333  SLL x6, x19, x20    00:00000000 01:000000C8 02:0000066C 05:00000014 06:00000014 07:0000000A 08:000007EC 09:00000006 0A:000007B8 0B:00000005 0C:00000006 0D:00000004 12:00000007 13:00000006 14:00000002 15:000007D0 16:66666666 17:77777777 18:88888888 19:99999999 1A:AAAAAAAA 1B:BBBBBBBB 1C:00000001 1D:000007CC 1E:00000006 1F:00000006
0E4: 006505B3  ADD x11, x10, x6    00:00000000 01:000000C8 02:0000066C 05:00000014 06:00000018 07:0000000A 08:000007EC 09:00000006 0A:000007B8 0B:00000005 0C:00000006 0D:00000004 12:00000007 13:00000006 14:00000002 15:000007D0 16:66666666 17:77777777 18:88888888 19:99999999 1A:AAAAAAAA 1B:BBBBBBBB 1C:00000001 1D:000007CC 1E:00000006 1F:00000006
0E8: 000A8613  ADDI x12, x21, 0    00:00000000 01:000000C8 02:0000066C 05:00000014 06:00000018 07:0000000A 08:000007EC 09:00000006 0A:000007B8 0B:000007D0 0C:00000006 0D:00000004 12:00000007 13:00000006 14:00000002 15:000007D0 16:66666666 17:77777777 18:88888888 19:99999999 1A:AAAAAAAA 1B:BBBBBBBB 1C:00000001 1D:000007CC 1E:00000006 1F:00000006
0EC: F55FF0EF  JAL x1, -172        00:00000000 01:000000C8 02:0000066C 05:00000014 06:00000018 07:0000000A 08:000007EC 09:00000006 0A:000007B8 0B:000007D0 0C:000007D0 0D:00000004 12:00000007 13:00000006 14:00000002 15:000007D0 16:66666666 17:77777777 18:88888888 19:99999999 1A:AAAAAAAA 1B:BBBBBBBB 1C:00000001 1D:000007CC 1E:00000006 1F:00000006
040: FE010113  ADDI x2, x2, -32    00:00000000 01:000000F0 02:0000066C 05:00000014 06:00000018 07:0000000A 08:000007EC 09:00000006 0A:000007B8 0B:000007D0 0C:000007D0 0D:00000004 12:00000007 13:00000006 14:00000002 15:000007D0 16:66666666 17:77777777 18:88888888 19:99999999 1A:AAAAAAAA 1B:BBBBBBBB 1C:00000001 1D:000007CC 1E:00000006 1F:00000006
044: 00112E23  SW x1, 28(x2)       00:00000000 01:000000F0 02:0000064C 05:00000014 06:00000018 07:0000000A 08:000007EC 09:00000006 0A:000007B8 0B:000007D0 0C:000007D0 0D:00000004 12:00000007 13:00000006 14:00000002 15:000007D0 16:66666666 17:77777777 18:88888888 19:99999999 1A:AAAAAAAA 1B:BBBBBBBB 1C:00000001 1D:000007CC 1E:00000006 1F:00000006
048: 0005AF03  LW x30, 0(x11)      00:00000000 01:000000F0 02:0000064C 05:00000014 06:00000018 07:0000000A 08:000007EC 09:00000006 0A:000007B8 0B:000007D0 0C:000007D0 0D:00000004 12:00000007 13:00000006 14:00000002 15:000007D0 16:66666666 17:77777777 18:88888888 19:99999999 1A:AAAAAAAA 1B:BBBBBBBB 1C:00000001 1D:000007CC 1E:00000006 1F:00000006
04C: 00062F83  LW x31, 0(x12)      00:00000000 01:000000F0 02:0000064C 05:00000014 06:00000018 07:0000000A 08:000007EC 09:00000006 0A:000007B8 0B:000007D0 0C:000007D0 0D:00000004 12:00000007 13:00000006 14:00000002 15:000007D0 16:66666666 17:77777777 18:88888888 19:99999999 1A:AAAAAAAA 1B:BBBBBBBB 1C:00000001 1D:000007CC 1E:00000007 1F:00000006
050: 01F5A023  SW x31, 0(x11)      00:00000000 01:000000F0 02:0000064C 05:00000014 06:00000018 07:0000000A 08:000007EC 09:00000006 0A:000007B8 0B:000007D0 0C:000007D0 0D:00000004 12:00000007 13:00000006 14:00000002 15:000007D0 16:66666666 17:77777777 18:88888888 19:99999999 1A:AAAAAAAA 1B:BBBBBBBB 1C:00000001 1D:000007CC 1E:00000007 1F:00000007
054: 01E62023  SW x30, 0(x12)      00:00000000 01:000000F0 02:0000064C 05:00000014 06:00000018 07:0000000A 08:000007EC 09:00000006 0A:000007B8 0B:000007D0 0C:000007D0 0D:00000004 12:00000007 13:00000006 14:00000002 15:000007D0 16:66666666 17:77777777 18:88888888 19:99999999 1A:AAAAAAAA 1B:BBBBBBBB 1C:00000001 1D:000007CC 1E:00000007 1F:00000007
058: 01C12083  LW x1, 28(x2)       00:00000000 01:000000F0 02:0000064C 05:00000014 06:00000018 07:0000000A 08:000007EC 09:00000006 0A:000007B8 0B:000007D0 0C:000007D0 0D:00000004 12:00000007 13:00000006 14:00000002 15:000007D0 16:66666666 17:77777777 18:88888888 19:99999999 1A:AAAAAAAA 1B:BBBBBBBB 1C:00000001 1D:000007CC 1E:00000007 1F:00000007
05C: 02010113  ADDI x2, x2, 32     00:00000000 01:000000F0 02:0000064C 05:00000014 06:00000018 07:0000000A 08:000007EC 09:00000006 0A:000007B8 0B:000007D0 0C:000007D0 0D:00000004 12:00000007 13:00000006 14:00000002 15:000007D0 16:66666666 17:77777777 18:88888888 19:99999999 1A:AAAAAAAA 1B:BBBBBBBB 1C:00000001 1D:000007CC 1E:00000007 1F:00000007
060: 00008067  JALR x0, 0(x1)      00:00000000 01:000000F0 02:0000066C 05:00000014 06:00000018 07:0000000A 08:000007EC 09:00000006 0A:000007B8 0B:000007D0 0C:000007D0 0D:00000004 12:00000007 13:00000006 14:00000002 15:000007D0 16:66666666 17:77777777 18:88888888 19:99999999 1A:AAAAAAAA 1B:BBBBBBBB 1C:00000001 1D:000007CC 1E:00000007 1F:00000007
0F0: 00412583  LW x11, 4(x2)       00:00000000 01:000000F0 02:0000066C 05:00000014 06:00000018 07:0000000A 08:000007EC 09:00000006 0A:000007B8 0B:000007D0 0C:000007D0 0D:00000004 12:00000007 13:00000006 14:00000002 15:000007D0 16:66666666 17:77777777 18:88888888 19:99999999 1A:AAAAAAAA 1B:BBBBBBBB 1C:00000001 1D:000007CC 1E:00000007 1F:00000007
0F4: 00012603  LW x12, 0(x2)       00:00000000 01:000000F0 02:0000066C 05:00000014 06:00000018 07:0000000A 08:000007EC 09:00000006 0A:000007B8 0B:00000005 0C:000007D0 0D:00000004 12:00000007 13:00000006 14:00000002 15:000007D0 16:66666666 17:77777777 18:88888888 19:99999999 1A:AAAAAAAA 1B:BBBBBBBB 1C:00000001 1D:000007CC 1E:00000007 1F:00000007
0F8: 00098513  ADDI x10, x19, 0    00:00000000 01:000000F0 02:0000066C 05:00000014 06:00000018 07:0000000A 08:000007EC 09:00000006 0A:000007B8 0B:00000005 0C:00000006 0D:00000004 12:00000007 13:00000006 14:00000002 15:000007D0 16:66666666 17:77777777 18:88888888 19:99999999 1A:AAAAAAAA 1B:BBBBBBBB 1C:00000001 1D:000007CC 1E:00000007 1F:00000007
0FC: 01812483  LW x9, 24(x2)       00:00000000 01:000000F0 02:0000066C 05:00000014 06:00000018 07:0000000A 08:000007EC 09:00000006 0A:00000006 0B:00000005 0C:00000006 0D:00000004 12:00000007 13:00000006 14:00000002 15:000007D0 16:66666666 17:77777777 18:88888888 19:99999999 1A:AAAAAAAA 1B:BBBBBBBB 1C:00000001 1D:000007CC 1E:00000007 1F:00000007
100: 01412903  LW x18, 20(x2)      00:00000000 01:000000F0 02:0000066C 05:00000014 06:00000018 07:0000000A 08:000007EC 09:11111111 0A:00000006 0B:00000005 0C:00000006 0D:00000004 12:00000007 13:00000006 14:00000002 15:000007D0 16:66666666 17:77777777 18:88888888 19:99999999 1A:AAAAAAAA 1B:BBBBBBBB 1C:00000001 1D:000007CC 1E:00000007 1F:00000007
104: 01012983  LW x19, 16(x2)      00:00000000 01:000000F0 02:0000066C 05:00000014 06:00000018 07:0000000A 08:000007EC 09:11111111 0A:00000006 0B:00000005 0C:00000006 0D:00000004 12:22222222 13:00000006 14:00000002 15:000007D0 16:66666666 17:77777777 18:88888888 19:99999999 1A:AAAAAAAA 1B:BBBBBBBB 1C:00000001 1D:000007CC 1E:00000007 1F:00000007
108: 00C12A03  LW x20, 12(x2)      00:00000000 01:000000F0 02:0000066C 05:00000014 06:00000018 07:0000000A 08:000007EC 09:11111111 0A:00000006 0B:00000005 0C:00000006 0D:00000004 12:22222222 13:33333333 14:00000002 15:000007D0 16:66666666 17:77777777 18:88888888 19:99999999 1A:AAAAAAAA 1B:BBBBBBBB 1C:00000001 1D:000007CC 1E:00000007 1F:00000007
10C: 00812A83  LW x21, 8(x2)       00:00000000 01:000000F0 02:0000066C 05:00000014 06:00000018 07:0000000A 08:000007EC 09:11111111 0A:00000006 0B:00000005 0C:00000006 0D:00000004 12:22222222 13:33333333 14:44444444 15:000007D0 16:66666666 17:77777777 18:88888888 19:99999999 1A:AAAAAAAA 1B:BBBBBBBB 1C:00000001 1D:000007CC 1E:00000007 1F:00000007
110: 01C12083  LW x1, 28(x2)       00:00000000 01:000000F0 02:0000066C 05:00000014 06:00000018 07:0000000A 08:000007EC 09:11111111 0A:00000006 0B:00000005 0C:00000006 0D:00000004 12:22222222 13:33333333 14:44444444 15:55555555 16:66666666 17:77777777 18:88888888 19:99999999 1A:AAAAAAAA 1B:BBBBBBBB 1C:00000001 1D:000007CC 1E:00000007 1F:00000007
114: 02010113  ADDI x2, x2, 32     00:00000000 01:00000134 02:0000066C 05:00000014 06:00000018 07:0000000A 08:000007EC 09:11111111 0A:00000006 0B:00000005 0C:00000006 0D:00000004 12:22222222 13:33333333 14:44444444 15:55555555 16:66666666 17:77777777 18:88888888 19:99999999 1A:AAAAAAAA 1B:BBBBBBBB 1C:00000001 1D:000007CC 1E:00000007 1F:00000007
118: 00008067  JALR x0, 0(x1)      00:00000000 01:00000134 02:0000068C 05:00000014 06:00000018 07:0000000A 08:000007EC 09:11111111 0A:00000006 0B:00000005 0C:00000006 0D:00000004 12:22222222 13:33333333 14:44444444 15:55555555 16:66666666 17:77777777 18:88888888 19:99999999 1A:AAAAAAAA 1B:BBBBBBBB 1C:00000001 1D:000007CC 1E:00000007 1F:00000007
134: 00050693  ADDI x13, x10, 0    00:00000000 01:00000134 02:0000068C 05:00000014 06:00000018 07:0000000A 08:000007EC 09:11111111 0A:00000006 0B:00000005 0C:00000006 0D:00000004 12:22222222 13:33333333 14:44444444 15:55555555 16:66666666 17:77777777 18:88888888 19:99999999 1A:AAAAAAAA 1B:BBBBBBBB 1C:00000001 1D:000007CC 1E:00000007 1F:00000007
138: 00C12503  LW x10, 12(x2)      00:00000000 01:00000134 02:0000068C 05:00000014 06:00000018 07:0000000A 08:000007EC 09:11111111 0A:00000006 0B:00000005 0C:00000006 0D:00000006 12:22222222 13:33333333 14:44444444 15:55555555 16:66666666 17:77777777 18:88888888 19:99999999 1A:AAAAAAAA 1B:BBBBBBBB 1C:00000001 1D:000007CC 1E:00000007 1F:00000007
13C: FFF68613  ADDI x12, x13, -1   00:00000000 01:00000134 02:0000068C 05:00000014 06:00000018 07:0000000A 08:000007EC 09:11111111 0A:000007B8 0B:00000005 0C:00000006 0D:00000006 12:22222222 13:33333333 14:44444444 15:55555555 16:66666666 17:77777777 18:88888888 19:99999999 1A:AAAAAAAA 1B:BBBBBBBB 1C:00000001 1D:000007CC 1E:00000007 1F:00000007
140: FDDFF0EF  JAL x1, -36         00:00000000 01:00000134 02:0000068C 05:00000014 06:00000018 07:0000000A 08:000007EC 09:11111111 0A:000007B8 0B:00000005 0C:00000005 0D:00000006 12:22222222 13:33333333 14:44444444 15:55555555 16:66666666 17:77777777 18:88888888 19:99999999 1A:AAAAAAAA 1B:BBBBBBBB 1C:00000001 1D:000007CC 1E:00000007 1F:00000007
11C: FE010113  ADDI x2, x2, -32    00:00000000 01:00000144 02:0000068C 05:00000014 06:00000018 07:0000000A 08:000007EC 09:11111111 0A:000007B8 0B:00000005 0C:00000005 0D:00000006 12:22222222 13:33333333 14:44444444 15:55555555 16:66666666 17:77777777 18:88888888 19:99999999 1A:AAAAAAAA 1B:BBBBBBBB 1C:00000001 1D:000007CC 1E:00000007 1F:00000007
120: 00112E23  SW x1, 28(x2)       00:00000000 01:00000144 02:0000066C 05:00000014 06:00000018 07:0000000A 08:000007EC 09:11111111 0A:000007B8 0B:00000005 0C:00000005 0D:00000006 12:22222222 13:33333333 14:44444444 15:55555555 16:66666666 17:77777777 18:88888888 19:99999999 1A:AAAAAAAA 1B:BBBBBBBB 1C:00000001 1D:000007CC 1E:00000007 1F:00000007
124: 00C12A23  SW x12, 20(x2)      00:00000000 01:00000144 02:0000066C 05:00000014 06:00000018 07:0000000A 08:000007EC 09:11111111 0A:000007B8 0B:00000005 0C:00000005 0D:00000006 12:22222222 13:33333333 14:44444444 15:55555555 16:66666666 17:77777777 18:88888888 19:99999999 1A:AAAAAAAA 1B:BBBBBBBB 1C:00000001 1D:000007CC 1E:00000007 1F:00000007
128: 00A12623  SW x10, 12(x2)      00:00000000 01:00000144 02:0000066C 05:00000014 06:00000018 07:0000000A 08:000007EC 09:11111111 0A:000007B8 0B:00000005 0C:00000005 0D:00000006 12:22222222 13:33333333 14:44444444 15:55555555 16:66666666 17:77777777 18:88888888 19:99999999 1A:AAAAAAAA 1B:BBBBBBBB 1C:00000001 1D:000007CC 1E:00000007 1F:00000007
12C: 02C5D463  BGE x11, x12, 40    00:00000000 01:00000144 02:0000066C 05:00000014 06:00000018 07:0000000A 08:000007EC 09:11111111 0A:000007B8 0B:00000005 0C:00000005 0D:00000006 12:22222222 13:33333333 14:44444444 15:55555555 16:66666666 17:77777777 18:88888888 19:99999999 1A:AAAAAAAA 1B:BBBBBBBB 1C:00000001 1D:000007CC 1E:00000007 1F:00000007
154: 01C12083  LW x1, 28(x2)       00:00000000 01:00000144 02:0000066C 05:00000014 06:00000018 07:0000000A 08:000007EC 09:11111111 0A:000007B8 0B:00000005 0C:00000005 0D:00000006 12:22222222 13:33333333 14:44444444 15:55555555 16:66666666 17:77777777 18:88888888 19:99999999 1A:AAAAAAAA 1B:BBBBBBBB 1C:00000001 1D:000007CC 1E:00000007 1F:00000007
158: 02010113  ADDI x2, x2, 32     00:00000000 01:00000144 02:0000066C 05:00000014 06:00000018 07:0000000A 08:000007EC 09:11111111 0A:000007B8 0B:00000005 0C:00000005 0D:00000006 12:22222222 13:33333333 14:44444444 15:55555555 16:66666666 17:77777777 18:88888888 19:99999999 1A:AAAAAAAA 1B:BBBBBBBB 1C:00000001 1D:000007CC 1E:00000007 1F:00000007
15C: 00008067  JALR x0, 0(x1)      00:00000000 01:00000144 02:0000068C 05:00000014 06:00000018 07:0000000A 08:000007EC 09:11111111 0A:000007B8 0B:00000005 0C:00000005 0D:00000006 12:22222222 13:33333333 14:44444444 15:55555555 16:66666666 17:77777777 18:88888888 19:99999999 1A:AAAAAAAA 1B:BBBBBBBB 1C:00000001 1D:000007CC 1E:00000007 1F:00000007
144: 00168593  ADDI x11, x13, 1    00:00000000 01:00000144 02:0000068C 05:00000014 06:00000018 07:0000000A 08:000007EC 09:11111111 0A:000007B8 0B:00000005 0C:00000005 0D:00000006 12:22222222 13:33333333 14:44444444 15:55555555 16:66666666 17:77777777 18:88888888 19:99999999 1A:AAAAAAAA 1B:BBBBBBBB 1C:00000001 1D:000007CC 1E:00000007 1F:00000007
148: 01412603  LW x12, 20(x2)      00:00000000 01:00000144 02:0000068C 05:00000014 06:00000018 07:0000000A 08:000007EC 09:11111111 0A:000007B8 0B:00000007 0C:00000005 0D:00000006 12:22222222 13:33333333 14:44444444 15:55555555 16:66666666 17:77777777 18:88888888 19:99999999 1A:AAAAAAAA 1B:BBBBBBBB 1C:00000001 1D:000007CC 1E:00000007 1F:00000007
14C: FD1FF0EF  JAL x1, -48         00:00000000 01:00000144 02:0000068C 05:00000014 06:00000018 07:0000000A 08:000007EC 09:11111111 0A:000007B8 0B:00000007 0C:00000006 0D:00000006 12:22222222 13:33333333 14:44444444 15:55555555 16:66666666 17:77777777 18:88888888 19:99999999 1A:AAAAAAAA 1B:BBBBBBBB 1C:00000001 1D:000007CC 1E:00000007 1F:00000007
11C: FE010113  ADDI x2, x2, -32    00:00000000 01:00000150 02:0000068C 05:00000014 06:00000018 07:0000000A 08:000007EC 09:11111111 0A:000007B8 0B:00000007 0C:00000006 0D:00000006 12:22222222 13:33333333 14:44444444 15:55555555 16:66666666 17:77777777 18:88888888 19:99999999 1A:AAAAAAAA 1B:BBBBBBBB 1C:00000001 1D:000007CC 1E:00000007 1F:00000007
120: 00112E23  SW x1, 28(x2)       00:00000000 01:00000150 02:0000066C 05:00000014 06:00000018 07:0000000A 08:000007EC 09:11111111 0A:000007B8 0B:00000007 0C:00000006 0D:00000006 12:22222222 13:33333333 14:44444444 15:55555555 16:66666666 17:77777777 18:88888888 19:99999999 1A:AAAAAAAA 1B:BBBBBBBB 1C:00000001 1D:000007CC 1E:00000007 1F:00000007
124: 00C12A23  SW x12, 20(x2)      00:00000000 01:00000150 02:0000066C 05:00000014 06:00000018 07:0000000A 08:000007EC 09:11111111 0A:000007B8 0B:00000007 0C:00000006 0D:00000006 12:22222222 13:33333333 14:44444444 15:55555555 16:66666666 17:77777777 18:88888888 19:99999999 1A:AAAAAAAA 1B:BBBBBBBB 1C:00000001 1D:000007CC 1E:00000007 1F:00000007
128: 00A12623  SW x10, 12(x2)      00:00000000 01:00000150 02:0000066C 05:00000014 06:00000018 07:0000000A 08:000007EC 09:11111111 0A:000007B8 0B:00000007 0C:00000006 0D:00000006 12:22222222 13:33333333 14:44444444 15:55555555 16:66666666 17:77777777 18:88888888 19:99999999 1A:AAAAAAAA 1B:BBBBBBBB 1C:00000001 1D:000007CC 1E:00000007 1F:00000007
12C: 02C5D463  BGE x11, x12, 40    00:00000000 01:00000150 02:0000066C 05:00000014 06:00000018 07:0000000A 08:000007EC 09:11111111 0A:000007B8 0B:00000007 0C:00000006 0D:00000006 12:22222222 13:33333333 14:44444444 15:55555555 16:66666666 17:77777777 18:88888888 19:99999999 1A:AAAAAAAA 1B:BBBBBBBB 1C:00000001 1D:000007CC 1E:00000007 1F:00000007
154: 01C12083  LW x1, 28(x2)       00:00000000 01:00000150 02:0000066C 05:00000014 06:00000018 07:0000000A 08:000007EC 09:11111111 0A:000007B8 0B:00000007 0C:00000006 0D:00000006 12:22222222 13:33333333 14:44444444 15:55555555 16:66666666 17:77777777 18:88888888 19:99999999 1A:AAAAAAAA 1B:BBBBBBBB 1C:00000001 1D:000007CC 1E:00000007 1F:00000007
158: 02010113  ADDI x2, x2, 32     00:00000000 01:00000150 02:0000066C 05:00000014 06:00000018 07:0000000A 08:000007EC 09:11111111 0A:000007B8 0B:00000007 0C:00000006 0D:00000006 12:22222222 13:33333333 14:44444444 15:55555555 16:66666666 17:77777777 18:88888888 19:99999999 1A:AAAAAAAA 1B:BBBBBBBB 1C:00000001 1D:000007CC 1E:00000007 1F:00000007
15C: 00008067  JALR x0, 0(x1)      00:00000000 01:00000150 02:0000068C 05:00000014 06:00000018 07:0000000A 08:000007EC 09:11111111 0A:000007B8 0B:00000007 0C:00000006 0D:00000006 12:22222222 13:33333333 14:44444444 15:55555555 16:66666666 17:77777777 18:88888888 19:99999999 1A:AAAAAAAA 1B:BBBBBBBB 1C:00000001 1D:000007CC 1E:00000007 1F:00000007
150: 01412603  LW x12, 20(x2)      00:00000000 01:00000150 02:0000068C 05:00000014 06:00000018 07:0000000A 08:000007EC 09:11111111 0A:000007B8 0B:00000007 0C:00000006 0D:00000006 12:22222222 13:33333333 14:44444444 15:55555555 16:66666666 17:77777777 18:88888888 19:99999999 1A:AAAAAAAA 1B:BBBBBBBB 1C:00000001 1D:000007CC 1E:00000007 1F:00000007
154: 01C12083  LW x1, 28(x2)       00:00000000 01:00000150 02:0000068C 05:00000014 06:00000018 07:0000000A 08:000007EC 09:11111111 0A:000007B8 0B:00000007 0C:00000006 0D:00000006 12:22222222 13:33333333 14:44444444 15:55555555 16:66666666 17:77777777 18:88888888 19:99999999 1A:AAAAAAAA 1B:BBBBBBBB 1C:00000001 1D:000007CC 1E:00000007 1F:00000007
158: 02010113  ADDI x2, x2, 32     00:00000000 01:00000150 02:0000068C 05:00000014 06:00000018 07:0000000A 08:000007EC 09:11111111 0A:000007B8 0B:00000007 0C:00000006 0D:00000006 12:22222222 13:33333333 14:44444444 15:55555555 16:66666666 17:77777777 18:88888888 19:99999999 1A:AAAAAAAA 1B:BBBBBBBB 1C:00000001 1D:000007CC 1E:00000007 1F:00000007
15C: 00008067  JALR x0, 0(x1)      00:00000000 01:00000150 02:000006AC 05:00000014 06:00000018 07:0000000A 08:000007EC 09:11111111 0A:000007B8 0B:00000007 0C:00000006 0D:00000006 12:22222222 13:33333333 14:44444444 15:55555555 16:66666666 17:77777777 18:88888888 19:99999999 1A:AAAAAAAA 1B:BBBBBBBB 1C:00000001 1D:000007CC 1E:00000007 1F:00000007
150: 01412603  LW x12, 20(x2)      00:00000000 01:00000150 02:000006AC 05:00000014 06:00000018 07:0000000A 08:000007EC 09:11111111 0A:000007B8 0B:00000007 0C:00000006 0D:00000006 12:22222222 13:33333333 14:44444444 15:55555555 16:66666666 17:77777777 18:88888888 19:99999999 1A:AAAAAAAA 1B:BBBBBBBB 1C:00000001 1D:000007CC 1E:00000007 1F:00000007
154: 01C12083  LW x1, 28(x2)       00:00000000 01:00000150 02:000006AC 05:00000014 06:00000018 07:0000000A 08:000007EC 09:11111111 0A:000007B8 0B:00000007 0C:00000006 0D:00000006 12:22222222 13:33333333 14:44444444 15:55555555 16:66666666 17:77777777 18:88888888 19:99999999 1A:AAAAAAAA 1B:BBBBBBBB 1C:00000001 1D:000007CC 1E:00000007 1F:00000007
158: 02010113  ADDI x2, x2, 32     00:00000000 01:00000150 02:000006AC 05:00000014 06:00000018 07:0000000A 08:000007EC 09:11111111 0A:000007B8 0B:00000007 0C:00000006 0D:00000006 12:22222222 13:33333333 14:44444444 15:55555555 16:66666666 17:77777777 18:88888888 19:99999999 1A:AAAAAAAA 1B:BBBBBBBB 1C:00000001 1D:000007CC 1E:00000007 1F:00000007
15C: 00008067  JALR x0, 0(x1)      00:00000000 01:00000150 02:000006CC 05:00000014 06:00000018 07:0000000A 08:000007EC 09:11111111 0A:000007B8 0B:00000007 0C:00000006 0D:00000006 12:22222222 13:33333333 14:44444444 15:55555555 16:66666666 17:77777777 18:88888888 19:99999999 1A:AAAAAAAA 1B:BBBBBBBB 1C:00000001 1D:000007CC 1E:00000007 1F:00000007
150: 01412603  LW x12, 20(x2)      00:00000000 01:00000150 02:000006CC 05:00000014 06:00000018 07:0000000A 08:000007EC 09:11111111 0A:000007B8 0B:00000007 0C:00000006 0D:00000006 12:22222222 13:33333333 14:44444444 15:55555555 16:66666666 17:77777777 18:88888888 19:99999999 1A:AAAAAAAA 1B:BBBBBBBB 1C:00000001 1D:000007CC 1E:00000007 1F:00000007
154: 01C12083  LW x1, 28(x2)       00:00000000 01:00000150 02:000006CC 05:00000014 06:00000018 07:0000000A 08:000007EC 09:11111111 0A:000007B8 0B:00000007 0C:00000006 0D:00000006 12:22222222 13:33333333 14:44444444 15:55555555 16:66666666 17:77777777 18:88888888 19:99999999 1A:AAAAAAAA 1B:BBBBBBBB 1C:00000001 1D:000007CC 1E:00000007 1F:00000007
158: 02010113  ADDI x2, x2, 32     00:00000000 01:00000144 02:000006CC 05:00000014 06:00000018 07:0000000A 08:000007EC 09:11111111 0A:000007B8 0B:00000007 0C:00000006 0D:00000006 12:22222222 13:33333333 14:44444444 15:55555555 16:66666666 17:77777777 18:88888888 19:99999999 1A:AAAAAAAA 1B:BBBBBBBB 1C:00000001 1D:000007CC 1E:00000007 1F:00000007
15C: 00008067  JALR x0, 0(x1)      00:00000000 01:00000144 02:000006EC 05:00000014 06:00000018 07:0000000A 08:000007EC 09:11111111 0A:000007B8 0B:00000007 0C:00000006 0D:00000006 12:22222222 13:33333333 14:44444444 15:55555555 16:66666666 17:77777777 18:88888888 19:99999999 1A:AAAAAAAA 1B:BBBBBBBB 1C:00000001 1D:000007CC 1E:00000007 1F:00000007
144: 00168593  ADDI x11, x13, 1    00:00000000 01:00000144 02:000006EC 05:00000014 06:00000018 07:0000000A 08:000007EC 09:11111111 0A:000007B8 0B:00000007 0C:00000006 0D:00000006 12:22222222 13:33333333 14:44444444 15:55555555 16:66666666 17:77777777 18:88888888 19:99999999 1A:AAAAAAAA 1B:BBBBBBBB 1C:00000001 1D:000007CC 1E:00000007 1F:00000007
148: 01412603  LW x12, 20(x2)      00:00000000 01:00000144 02:000006EC 05:00000014 06:00000018 07:0000000A 08:000007EC 09:11111111 0A:000007B8 0B:00000007 0C:00000006 0D:00000006 12:22222222 13:33333333 14:44444444 15:55555555 16:66666666 17:77777777 18:88888888 19:99999999 1A:AAAAAAAA 1B:BBBBBBBB 1C:00000001 1D:000007CC 1E:00000007 1F:00000007
14C: FD1FF0EF  JAL x1, -48         00:00000000 01:00000144 02:000006EC 05:00000014 06:00000018 07:0000000A 08:000007EC 09:11111111 0A:000007B8 0B:00000007 0C:00000007 0D:00000006 12:22222222 13:33333333 14:44444444 15:55555555 16:66666666 17:77777777 18:88888888 19:99999999 1A:AAAAAAAA 1B:BBBBBBBB 1C:00000001 1D:000007CC 1E:00000007 1F:00000007
11C: FE010113  ADDI x2, x2, -32    00:00000000 01:00000150 02:000006EC 05:00000014 06:00000018 07:0000000A 08:000007EC 09:11111111 0A:000007B8 0B:00000007 0C:00000007 0D:00000006 12:22222222 13:33333333 14:44444444 15:55555555 16:66666666 17:77777777 18:88888888 19:99999999 1A:AAAAAAAA 1B:BBBBBBBB 1C:00000001 1D:000007CC 1E:00000007 1F:00000007
120: 00112E23  SW x1, 28(x2)       00:00000000 01:00000150 02:000006CC 05:00000014 06:00000018 07:0000000A 08:000007EC 09:11111111 0A:000007B8 0B:00000007 0C:00000007 0D:00000006 12:22222222 13:33333333 14:44444444 15:55555555 16:66666666 17:77777777 18:88888888 19:99999999 1A:AAAAAAAA 1B:BBBBBBBB 1C:00000001 1D:000007CC 1E:00000007 1F:00000007
124: 00C12A23  SW x12, 20(x2)      00:00000000 01:00000150 02:000006CC 05:00000014 06:00000018 07:0000000A 08:000007EC 09:11111111 0A:000007B8 0B:00000007 0C:00000007 0D:00000006 12:22222222 13:33333333 14:44444444 15:55555555 16:66666666 17:77777777 18:88888888 19:99999999 1A:AAAAAAAA 1B:BBBBBBBB 1C:00000001 1D:000007CC 1E:00000007 1F:00000007
128: 00A12623  SW x10, 12(x2)      00:00000000 01:00000150 02:000006CC 05:00000014 06:00000018 07:0000000A 08:000007EC 09:11111111 0A:000007B8 0B:00000007 0C:00000007 0D:00000006 12:22222222 13:33333333 14:44444444 15:55555555 16:66666666 17:77777777 18:88888888 19:99999999 1A:AAAAAAAA 1B:BBBBBBBB 1C:00000001 1D:000007CC 1E:00000007 1F:00000007
12C: 02C5D463  BGE x11, x12, 40    00:00000000 01:00000150 02:000006CC 05:00000014 06:00000018 07:0000000A 08:000007EC 09:11111111 0A:000007B8 0B:00000007 0C:00000007 0D:00000006 12:22222222 13:33333333 14:44444444 15:55555555 16:66666666 17:77777777 18:88888888 19:99999999 1A:AAAAAAAA 1B:BBBBBBBB 1C:00000001 1D:000007CC 1E:00000007 1F:00000007
154: 01C12083  LW x1, 28(x2)       00:00000000 01:00000150 02:000006CC 05:00000014 06:00000018 07:0000000A 08:000007EC 09:11111111 0A:000007B8 0B:00000007 0C:00000007 0D:00000006 12:22222222 13:33333333 14:44444444 15:55555555 16:66666666 17:77777777 18:88888888 19:99999999 1A:AAAAAAAA 1B:BBBBBBBB 1C:00000001 1D:000007CC 1E:00000007 1F:00000007
158: 02010113  ADDI x2, x2, 32     00:00000000 01:00000150 02:000006CC 05:00000014 06:00000018 07:0000000A 08:000007EC 09:11111111 0A:000007B8 0B:00000007 0C:00000007 0D:00000006 12:22222222 13:33333333 14:44444444 15:55555555 16:66666666 17:77777777 18:88888888 19:99999999 1A:AAAAAAAA 1B:BBBBBBBB 1C:00000001 1D:000007CC 1E:00000007 1F:00000007
15C: 00008067  JALR x0, 0(x1)      00:00000000 01:00000150 02:000006EC 05:00000014 06:00000018 07:0000000A 08:000007EC 09:11111111 0A:000007B8 0B:00000007 0C:00000007 0D:00000006 12:22222222 13:33333333 14:44444444 15:55555555 16:66666666 17:77777777 18:88888888 19:99999999 1A:AAAAAAAA 1B:BBBBBBBB 1C:00000001 1D:000007CC 1E:00000007 1F:00000007
150: 01412603  LW x12, 20(x2)      00:00000000 01:00000150 02:000006EC 05:00000014 06:00000018 07:0000000A 08:000007EC 09:11111111 0A:000007B8 0B:00000007 0C:00000007 0D:00000006 12:22222222 13:33333333 14:44444444 15:55555555 16:66666666 17:77777777 18:88888888 19:99999999 1A:AAAAAAAA 1B:BBBBBBBB 1C:00000001 1D:000007CC 1E:00000007 1F:00000007
154: 01C12083  LW x1, 28(x2)       00:00000000 01:00000150 02:000006EC 05:00000014 06:00000018 07:0000000A 08:000007EC 09:11111111 0A:000007B8 0B:00000007 0C:00000007 0D:00000006 12:22222222 13:33333333 14:44444444 15:55555555 16:66666666 17:77777777 18:88888888 19:99999999 1A:AAAAAAAA 1B:BBBBBBBB 1C:00000001 1D:000007CC 1E:00000007 1F:00000007
158: 02010113  ADDI x2, x2, 32     00:00000000 01:00000150 02:000006EC 05:00000014 06:00000018 07:0000000A 08:000007EC 09:11111111 0A:000007B8 0B:00000007 0C:00000007 0D:00000006 12:22222222 13:33333333 14:44444444 15:55555555 16:66666666 17:77777777 18:88888888 19:99999999 1A:AAAAAAAA 1B:BBBBBBBB 1C:00000001 1D:000007CC 1E:00000007 1F:00000007
15C: 00008067  JALR x0, 0(x1)      00:00000000 01:00000150 02:0000070C 05:00000014 06:00000018 07:0000000A 08:000007EC 09:11111111 0A:000007B8 0B:00000007 0C:00000007 0D:00000006 12:22222222 13:33333333 14:44444444 15:55555555 16:66666666 17:77777777 18:88888888 19:99999999 1A:AAAAAAAA 1B:BBBBBBBB 1C:00000001 1D:000007CC 1E:00000007 1F:00000007
150: 01412603  LW x12, 20(x2)      00:00000000 01:00000150 02:0000070C 05:00000014 06:00000018 07:0000000A 08:000007EC 09:11111111 0A:000007B8 0B:00000007 0C:00000007 0D:00000006 12:22222222 13:33333333 14:44444444 15:55555555 16:66666666 17:77777777 18:88888888 19:99999999 1A:AAAAAAAA 1B:BBBBBBBB 1C:00000001 1D:000007CC 1E:00000007 1F:00000007
154: 01C12083  LW x1, 28(x2)       00:00000000 01:00000150 02:0000070C 05:00000014 06:00000018 07:0000000A 08:000007EC 09:11111111 0A:000007B8 0B:00000007 0C:00000007 0D:00000006 12:22222222 13:33333333 14:44444444 15:55555555 16:66666666 17:77777777 18:88888888 19:99999999 1A:AAAAAAAA 1B:BBBBBBBB 1C:00000001 1D:000007CC 1E:00000007 1F:00000007
158: 02010113  ADDI x2, x2, 32     00:00000000 01:00000144 02:0000070C 05:00000014 06:00000018 07:0000000A 08:000007EC 09:11111111 0A:000007B8 0B:00000007 0C:00000007 0D:00000006 12:22222222 13:33333333 14:44444444 15:55555555 16:66666666 17:77777777 18:88888888 19:99999999 1A:AAAAAAAA 1B:BBBBBBBB 1C:00000001 1D:000007CC 1E:00000007 1F:00000007
15C: 00008067  JALR x0, 0(x1)      00:00000000 01:00000144 02:0000072C 05:00000014 06:00000018 07:0000000A 08:000007EC 09:11111111 0A:000007B8 0B:00000007 0C:00000007 0D:00000006 12:22222222 13:33333333 14:44444444 15:55555555 16:66666666 17:77777777 18:88888888 19:99999999 1A:AAAAAAAA 1B:BBBBBBBB 1C:00000001 1D:000007CC 1E:00000007 1F:00000007
144: 00168593  ADDI x11, x13, 1    00:00000000 01:00000144 02:0000072C 05:00000014 06:00000018 07:0000000A 08:000007EC 09:11111111 0A:000007B8 0B:00000007 0C:00000007 0D:00000006 12:22222222 13:33333333 14:44444444 15:55555555 16:66666666 17:77777777 18:88888888 19:99999999 1A:AAAAAAAA 1B:BBBBBBBB 1C:00000001 1D:000007CC 1E:00000007 1F:00000007
148: 01412603  LW x12, 20(x2)      00:00000000 01:00000144 02:0000072C 05:00000014 06:00000018 07:0000000A 08:000007EC 09:11111111 0A:000007B8 0B:00000007 0C:00000007 0D:00000006 12:22222222 13:33333333 14:44444444 15:55555555 16:66666666 17:77777777 18:88888888 19:99999999 1A:AAAAAAAA 1B:BBBBBBBB 1C:00000001 1D:000007CC 1E:00000007 1F:00000007
14C: FD1FF0EF  JAL x1, -48         00:00000000 01:00000144 02:0000072C 05:00000014 06:00000018 07:0000000A 08:000007EC 09:11111111 0A:000007B8 0B:00000007 0C:00000008 0D:00000006 12:22222222 13:33333333 14:44444444 15:55555555 16:66666666 17:77777777 18:88888888 19:99999999 1A:AAAAAAAA 1B:BBBBBBBB 1C:00000001 1D:000007CC 1E:00000007 1F:00000007
11C: FE010113  ADDI x2, x2, -32    00:00000000 01:00000150 02:0000072C 05:00000014 06:00000018 07:0000000A 08:000007EC 09:11111111 0A:000007B8 0B:00000007 0C:00000008 0D:00000006 12:22222222 13:33333333 14:44444444 15:55555555 16:66666666 17:77777777 18:88888888 19:99999999 1A:AAAAAAAA 1B:BBBBBBBB 1C:00000001 1D:000007CC 1E:00000007 1F:00000007
120: 00112E23  SW x1, 28(x2)       00:00000000 01:00000150 02:0000070C 05:00000014 06:00000018 07:0000000A 08:000007EC 09:11111111 0A:000007B8 0B:00000007 0C:00000008 0D:00000006 12:22222222 13:33333333 14:44444444 15:55555555 16:66666666 17:77777777 18:88888888 19:99999999 1A:AAAAAAAA 1B:BBBBBBBB 1C:00000001 1D:000007CC 1E:00000007 1F:00000007
124: 00C12A23  SW x12, 20(x2)      00:00000000 01:00000150 02:0000070C 05:00000014 06:00000018 07:0000000A 08:000007EC 09:11111111 0A:000007B8 0B:00000007 0C:00000008 0D:00000006 12:22222222 13:33333333 14:44444444 15:55555555 16:66666666 17:77777777 18:88888888 19:99999999 1A:AAAAAAAA 1B:BBBBBBBB 1C:00000001 1D:000007CC 1E:00000007 1F:00000007
128: 00A12623  SW x10, 12(x2)      00:00000000 01:00000150 02:0000070C 05:00000014 06:00000018 07:0000000A 08:000007EC 09:11111111 0A:000007B8 0B:00000007 0C:00000008 0D:00000006 12:22222222 13:33333333 14:44444444 15:55555555 16:66666666 17:77777777 18:88888888 19:99999999 1A:AAAAAAAA 1B:BBBBBBBB 1C:00000001 1D:000007CC 1E:00000007 1F:00000007
12C: 02C5D463  BGE x11, x12, 40    00:00000000 01:00000150 02:0000070C 05:00000014 06:00000018 07:0000000A 08:000007EC 09:11111111 0A:000007B8 0B:00000007 0C:00000008 0D:00000006 12:22222222 13:33333333 14:44444444 15:55555555 16:66666666 17:77777777 18:88888888 19:99999999 1A:AAAAAAAA 1B:BBBBBBBB 1C:00000001 1D:000007CC 1E:00000007 1F:00000007
130: F35FF0EF  JAL x1, -204        00:00000000 01:00000150 02:0000070C 05:00000014 06:00000018 07:0000000A 08:000007EC 09:11111111 0A:000007B8 0B:00000007 0C:00000008 0D:00000006 12:22222222 13:33333333 14:44444444 15:55555555 16:66666666 17:77777777 18:88888888 19:99999999 1A:AAAAAAAA 1B:BBBBBBBB 1C:00000001 1D:000007CC 1E:00000007 1F:00000007
064: FE010113  ADDI x2, x2, -32    00:00000000 01:00000134 02:0000070C 05:00000014 06:00000018 07:0000000A 08:000007EC 09:11111111 0A:000007B8 0B:00000007 0C:00000008 0D:00000006 12:22222222 13:33333333 14:44444444 15:55555555 16:66666666 17:77777777 18:88888888 19:99999999 1A:AAAAAAAA 1B:BBBBBBBB 1C:00000001 1D:000007CC 1E:00000007 1F:00000007
068: 00112E23  SW x1, 28(x2)       00:00000000 01:00000134 02:000006EC 05:00000014 06:00000018 07:0000000A 08:000007EC 09:11111111 0A:000007B8 0B:00000007 0C:00000008 0D:00000006 12:22222222 13:33333333 14:44444444 15:55555555 16:66666666 17:77777777 18:88888888 19:99999999 1A:AAAAAAAA 1B:BBBBBBBB 1C:00000001 1D:000007CC 1E:00000007 1F:00000007
06C: 00912C23  SW x9, 24(x2)       00:00000000 01:00000134 02:000006EC 05:00000014 06:00000018 07:0000000A 08:000007EC 09:11111111 0A:000007B8 0B:00000007 0C:00000008 0D:00000006 12:22222222 13:33333333 14:44444444 15:55555555 16:66666666 17:77777777 18:88888888 19:99999999 1A:AAAAAAAA 1B:BBBBBBBB 1C:00000001 1D:000007CC 1E:00000007 1F:00000007
070: 01212A23  SW x18, 20(x2)      00:00000000 01:00000134 02:000006EC 05:00000014 06:00000018 07:0000000A 08:000007EC 09:11111111 0A:000007B8 0B:00000007 0C:00000008 0D:00000006 12:22222222 13:33333333 14:44444444 15:55555555 16:66666666 17:77777777 18:88888888 19:99999999 1A:AAAAAAAA 1B:BBBBBBBB 1C:00000001 1D:000007CC 1E:00000007 1F:00000007
074: 01312823  SW x19, 16(x2)      00:00000000 01:00000134 02:000006EC 05:00000014 06:00000018 07:0000000A 08:000007EC 09:11111111 0A:000007B8 0B:00000007 0C:00000008 0D:00000006 12:22222222 13:33333333 14:44444444 15:55555555 16:66666666 17:77777777 18:88888888 19:99999999 1A:AAAAAAAA 1B:BBBBBBBB 1C:00000001 1D:000007CC 1E:00000007 1F:00000007
078: 01412623  SW x20, 12(x2)      00:00000000 01:00000134 02:000006EC 05:00000014 06:00000018 07:0000000A 08:000007EC 09:11111111 0A:000007B8 0B:00000007 0C:00000008 0D:00000006 12:22222222 13:33333333 14:44444444 15:55555555 16:66666666 17:77777777 18:88888888 19:99999999 1A:AAAAAAAA 1B:BBBBBBBB 1C:00000001 1D:000007CC 1E:00000007 1F:00000007
07C: 01512423  SW x21, 8(x2)       00:00000000 01:00000134 02:000006EC 05:00000014 06:00000018 07:0000000A 08:000007EC 09:11111111 0A:000007B8 0B:00000007 0C:00000008 0D:00000006 12:22222222 13:33333333 14:44444444 15:55555555 16:66666666 17:77777777 18:88888888 19:99999999 1A:AAAAAAAA 1B:BBBBBBBB 1C:00000001 1D:000007CC 1E:00000007 1F:00000007
080: 00B12223  SW x11, 4(x2)       00:00000000 01:00000134 02:000006EC 05:00000014 06:00000018 07:0000000A 08:000007EC 09:11111111 0A:000007B8 0B:00000007 0C:00000008 0D:00000006 12:22222222 13:33333333 14:44444444 15:55555555 16:66666666 17:77777777 18:88888888 19:99999999 1A:AAAAAAAA 1B:BBBBBBBB 1C:00000001 1D:000007CC 1E:00000007 1F:00000007
084: 00C12023  SW x12, 0(x2)       00:00000000 01:00000134 02:000006EC 05:00000014 06:00000018 07:0000000A 08:000007EC 09:11111111 0A:000007B8 0B:00000007 0C:00000008 0D:00000006 12:22222222 13:33333333 14:44444444 15:55555555 16:66666666 17:77777777 18:88888888 19:99999999 1A:AAAAAAAA 1B:BBBBBBBB 1C:00000001 1D:000007CC 1E:00000007 1F:00000007
088: 00200A13  ADDI x20, x0, 2     00:00000000 01:00000134 02:000006EC 05:00000014 06:00000018 07:0000000A 08:000007EC 09:11111111 0A:000007B8 0B:00000007 0C:00000008 0D:00000006 12:22222222 13:33333333 14:44444444 15:55555555 16:66666666 17:77777777 18:88888888 19:99999999 1A:AAAAAAAA 1B:BBBBBBBB 1C:00000001 1D:000007CC 1E:00000007 1F:00000007
08C: 01461333  SLL x6, x12, x20    00:00000000 01:00000134 02:000006EC 05:00000014 06:00000018 07:0000000A 08:000007EC 09:11111111 0A:000007B8 0B:00000007 0C:00000008 0D:00000006 12:22222222 13:33333333 14:00000002 15:55555555 16:66666666 17:77777777 18:88888888 19:99999999 1A:AAAAAAAA 1B:BBBBBBBB 1C:00000001 1D:000007CC 1E:00000007 1F:00000007
090: 00650AB3  ADD x21, x10, x6    00:00000000 01:00000134 02:000006EC 05:00000014 06:00000020 07:0000000A 08:000007EC 09:11111111 0A:000007B8 0B:00000007 0C:00000008 0D:00000006 12:22222222 13:33333333 14:00000002 15:55555555 16:66666666 17:77777777 18:88888888 19:99999999 1A:AAAAAAAA 1B:BBBBBBBB 1C:00000001 1D:000007CC 1E:00000007 1F:00000007
094: 000AA903  LW x18, 0(x21)      00:00000000 01:00000134 02:000006EC 05:00000014 06:00000020 07:0000000A 08:000007EC 09:11111111 0A:000007B8 0B:00000007 0C:00000008 0D:00000006 12:22222222 13:33333333 14:00000002 15:000007D8 16:66666666 17:77777777 18:88888888 19:99999999 1A:AAAAAAAA 1B:BBBBBBBB 1C:00000001 1D:000007CC 1E:00000007 1F:00000007
098: 00058493  ADDI x9, x11, 0     00:00000000 01:00000134 02:000006EC 05:00000014 06:00000020 07:0000000A 08:000007EC 09:11111111 0A:000007B8 0B:00000007 0C:00000008 0D:00000006 12:00000009 13:33333333 14:00000002 15:000007D8 16:66666666 17:77777777 18:88888888 19:99999999 1A:AAAAAAAA 1B:BBBBBBBB 1C:00000001 1D:000007CC 1E:00000007 1F:00000007
09C: FFF58993  ADDI x19, x11, -1   00:00000000 01:00000134 02:000006EC 05:00000014 06:00000020 07:0000000A 08:000007EC 09:00000007 0A:000007B8 0B:00000007 0C:00000008 0D:00000006 12:00000009 13:33333333 14:00000002 15:000007D8 16:66666666 17:77777777 18:88888888 19:99999999 1A:AAAAAAAA 1B:BBBBBBBB 1C:00000001 1D:000007CC 1E:00000007 1F:00000007
0A0: 02C4DE63  BGE x9, x12, 60     00:00000000 01:00000134 02:000006EC 05:00000014 06:00000020 07:0000000A 08:000007EC 09:00000007 0A:000007B8 0B:00000007 0C:00000008 0D:00000006 12:00000009 13:00000006 14:00000002 15:000007D8 16:66666666 17:77777777 18:88888888 19:99999999 1A:AAAAAAAA 1B:BBBBBBBB 1C:00000001 1D:000007CC 1E:00000007 1F:00000007
0A4: 014492B3  SLL x5, x9, x20     00:00000000 01:00000134 02:000006EC 05:00000014 06:00000020 07:0000000A 08:000007EC 09:00000007 0A:000007B8 0B:00000007 0C:00000008 0D:00000006 12:00000009 13:00000006 14:00000002 15:000007D8 16:66666666 17:77777777 18:88888888 19:99999999 1A:AAAAAAAA 1B:BBBBBBBB 1C:00000001 1D:000007CC 1E:00000007 1F:00000007
0A8: 00550EB3  ADD x29, x10, x5    00:00000000 01:00000134 02:000006EC 05:0000001C 06:00000020 07:0000000A 08:000007EC 09:00000007 0A:000007B8 0B:00000007 0C:00000008 0D:00000006 12:00000009 13:00000006 14:00000002 15:000007D8 16:66666666 17:77777777 18:88888888 19:99999999 1A:AAAAAAAA 1B:BBBBBBBB 1C:00000001 1D:000007CC 1E:00000007 1F:00000007
0AC: 000EAF83  LW x31, 0(x29)      00:00000000 01:00000134 02:000006EC 05:0000001C 06:00000020 07:0000000A 08:000007EC 09:00000007 0A:000007B8 0B:00000007 0C:00000008 0D:00000006 12:00000009 13:00000006 14:00000002 15:000007D8 16:66666666 17:77777777 18:88888888 19:99999999 1A:AAAAAAAA 1B:BBBBBBBB 1C:00000001 1D:000007D4 1E:00000007 1F:00000007
0B0: 032FD263  BGE x31, x18, 36    00:00000000 01:00000134 02:000006EC 05:0000001C 06:00000020 07:0000000A 08:000007EC 09:00000007 0A:000007B8 0B:00000007 0C:00000008 0D:00000006 12:00000009 13:00000006 14:00000002 15:000007D8 16:66666666 17:77777777 18:88888888 19:99999999 1A:AAAAAAAA 1B:BBBBBBBB 1C:00000001 1D:000007D4 1E:00000007 1F:00000008
0B4: 00198993  ADDI x19, x19, 1    00:00000000 01:00000134 02:000006EC 05:0000001C 06:00000020 07:0000000A 08:000007EC 09:00000007 0A:000007B8 0B:00000007 0C:00000008 0D:00000006 12:00000009 13:00000006 14:00000002 15:000007D8 16:66666666 17:77777777 18:88888888 19:99999999 1A:AAAAAAAA 1B:BBBBBBBB 1C:00000001 1D:000007D4 1E:00000007 1F:00000008
0B8: 01499333  SLL x6, x19, x20    00:00000000 01:00000134 02:000006EC 05:0000001C 06:00000020 07:0000000A 08:000007EC 09:00000007 0A:000007B8 0B:00000007 0C:00000008 0D:00000006 12:00000009 13:00000007 14:00000002 15:000007D8 16:66666666 17:77777777 18:88888888 19:99999999 1A:AAAAAAAA 1B:BBBBBBBB 1C:00000001 1D:000007D4 1E:00000007 1F:00000008
0BC: 006505B3  ADD x11, x10, x6    00:00000000 01:00000134 02:000006EC 05:0000001C 06:0000001C 07:0000000A 08:000007EC 09:00000007 0A:000007B8 0B:00000007 0C:00000008 0D:00000006 12:00000009 13:00000007 14:00000002 15:000007D8 16:66666666 17:77777777 18:88888888 19:99999999 1A:AAAAAAAA 1B:BBBBBBBB 1C:00000001 1D:000007D4 1E:00000007 1F:00000008
0C0: 000E8613  ADDI x12, x29, 0    00:00000000 01:00000134 02:000006EC 05:0000001C 06:0000001C 07:0000000A 08:000007EC 09:00000007 0A:000007B8 0B:000007D4 0C:00000008 0D:00000006 12:00000009 13:00000007 14:00000002 15:000007D8 16:66666666 17:77777777 18:88888888 19:99999999 1A:AAAAAAAA 1B:BBBBBBBB 1C:00000001 1D:000007D4 1E:00000007 1F:00000008
0C4: F7DFF0EF  JAL x1, -132        00:00000000 01:00000134 02:000006EC 05:0000001C 06:0000001C 07:0000000A 08:000007EC 09:00000007 0A:000007B8 0B:000007D4 0C:000007D4 0D:00000006 12:00000009 13:00000007 14:00000002 15:000007D8 16:66666666 17:77777777 18:88888888 19:99999999 1A:AAAAAAAA 1B:BBBBBBBB 1C:00000001 1D:000007D4 1E:00000007 1F:00000008
040: FE010113  ADDI x2, x2, -32    00:00000000 01:000000C8 02:000006EC 05:0000001C 06:0000001C 07:0000000A 08:000007EC 09:00000007 0A:000007B8 0B:000007D4 0C:000007D4 0D:00000006 12:00000009 13:00000007 14:00000002 15:000007D8 16:66666666 17:77777777 18:88888888 19:99999999 1A:AAAAAAAA 1B:BBBBBBBB 1C:00000001 1D:000007D4 1E:00000007 1F:00000008
044: 00112E23  SW x1, 28(x2)       00:00000000 01:000000C8 02:000006CC 05:0000001C 06:0000001C 07:0000000A 08:000007EC 09:00000007 0A:000007B8 0B:000007D4 0C:000007D4 0D:00000006 12:00000009 13:00000007 14:00000002 15:000007D8 16:66666666 17:77777777 18:88888888 19:99999999 1A:AAAAAAAA 1B:BBBBBBBB 1C:00000001 1D:000007D4 1E:00000007 1F:00000008
048: 0005AF03  LW x30, 0(x11)      00:00000000 01:000000C8 02:000006CC 05:0000001C 06:0000001C 07:0000000A 08:000007EC 09:00000007 0A:000007B8 0B:000007D4 0C:000007D4 0D:00000006 12:00000009 13:00000007 14:00000002 15:000007D8 16:66666666 17:77777777 18:88888888 19:99999999 1A:AAAAAAAA 1B:BBBBBBBB 1C:00000001 1D:000007D4 1E:00000007 1F:00000008
04C: 00062F83  LW x31, 0(x12)      00:00000000 01:000000C8 02:000006CC 05:0000001C 06:0000001C 07:0000000A 08:000007EC 09:00000007 0A:000007B8 0B:000007D4 0C:000007D4 0D:00000006 12:00000009 13:00000007 14:00000002 15:000007D8 16:66666666 17:77777777 18:88888888 19:99999999 1A:AAAAAAAA 1B:BBBBBBBB 1C:00000001 1D:000007D4 1E:00000008 1F:00000008
050: 01F5A023  SW x31, 0(x11)      00:00000000 01:000000C8 02:000006CC 05:0000001C 06:0000001C 07:0000000A 08:000007EC 09:00000007 0A:000007B8 0B:000007D4 0C:000007D4 0D:00000006 12:00000009 13:00000007 14:00000002 15:000007D8 16:66666666 17:77777777 18:88888888 19:99999999 1A:AAAAAAAA 1B:BBBBBBBB 1C:00000001 1D:000007D4 1E:00000008 1F:00000008
054: 01E62023  SW x30, 0(x12)      00:00000000 01:000000C8 02:000006CC 05:0000001C 06:0000001C 07:0000000A 08:000007EC 09:00000007 0A:000007B8 0B:000007D4 0C:000007D4 0D:00000006 12:00000009 13:00000007 14:00000002 15:000007D8 16:66666666 17:77777777 18:88888888 19:99999999 1A:AAAAAAAA 1B:BBBBBBBB 1C:00000001 1D:000007D4 1E:00000008 1F:00000008
058: 01C12083  LW x1, 28(x2)       00:00000000 01:000000C8 02:000006CC 05:0000001C 06:0000001C 07:0000000A 08:000007EC 09:00000007 0A:000007B8 0B:000007D4 0C:000007D4 0D:00000006 12:00000009 13:00000007 14:00000002 15:000007D8 16:66666666 17:77777777 18:88888888 19:99999999 1A:AAAAAAAA 1B:BBBBBBBB 1C:00000001 1D:000007D4 1E:00000008 1F:00000008
05C: 02010113  ADDI x2, x2, 32     00:00000000 01:000000C8 02:000006CC 05:0000001C 06:0000001C 07:0000000A 08:000007EC 09:00000007 0A:000007B8 0B:000007D4 0C:000007D4 0D:00000006 12:00000009 13:00000007 14:00000002 15:000007D8 16:66666666 17:77777777 18:88888888 19:99999999 1A:AAAAAAAA 1B:BBBBBBBB 1C:00000001 1D:000007D4 1E:00000008 1F:00000008
060: 00008067  JALR x0, 0(x1)      00:00000000 01:000000C8 02:000006EC 05:0000001C 06:0000001C 07:0000000A 08:000007EC 09:00000007 0A:000007B8 0B:000007D4 0C:000007D4 0D:00000006 12:00000009 13:00000007 14:00000002 15:000007D8 16:66666666 17:77777777 18:88888888 19:99999999 1A:AAAAAAAA 1B:BBBBBBBB 1C:00000001 1D:000007D4 1E:00000008 1F:00000008
0C8: 00412583  LW x11, 4(x2)       00:00000000 01:000000C8 02:000006EC 05:0000001C 06:0000001C 07:0000000A 08:000007EC 09:00000007 0A:000007B8 0B:000007D4 0C:000007D4 0D:00000006 12:00000009 13:00000007 14:00000002 15:000007D8 16:66666666 17:77777777 18:88888888 19:99999999 1A:AAAAAAAA 1B:BBBBBBBB 1C:00000001 1D:000007D4 1E:00000008 1F:00000008
0CC: 00012603  LW x12, 0(x2)       00:00000000 01:000000C8 02:000006EC 05:0000001C 06:0000001C 07:0000000A 08:000007EC 09:00000007 0A:000007B8 0B:00000007 0C:000007D4 0D:00000006 12:00000009 13:00000007 14:00000002 15:000007D8 16:66666666 17:77777777 18:88888888 19:99999999 1A:AAAAAAAA 1B:BBBBBBBB 1C:00000001 1D:000007D4 1E:00000008 1F:00000008
0D0: 0040006F  JAL x0, 4           00:00000000 01:000000C8 02:000006EC 05:0000001C 06:0000001C 07:0000000A 08:000007EC 09:00000007 0A:000007B8 0B:00000007 0C:00000008 0D:00000006 12:00000009 13:00000007 14:00000002 15:000007D8 16:66666666 17:77777777 18:88888888 19:99999999 1A:AAAAAAAA 1B:BBBBBBBB 1C:00000001 1D:000007D4 1E:00000008 1F:00000008
0D4: 00148493  ADDI x9, x9, 1      00:00000000 01:000000C8 02:000006EC 05:0000001C 06:0000001C 07:0000000A 08:000007EC 09:00000007 0A:000007B8 0B:00000007 0C:00000008 0D:00000006 12:00000009 13:00000007 14:00000002 15:000007D8 16:66666666 17:77777777 18:88888888 19:99999999 1A:AAAAAAAA 1B:BBBBBBBB 1C:00000001 1D:000007D4 1E:00000008 1F:00000008
0D8: FC9FF06F  JAL x0, -56         00:00000000 01:000000C8 02:000006EC 05:0000001C 06:0000001C 07:0000000A 08:000007EC 09:00000008 0A:000007B8 0B:00000007 0C:00000008 0D:00000006 12:00000009 13:00000007 14:00000002 15:000007D8 16:66666666 17:77777777 18:88888888 19:99999999 1A:AAAAAAAA 1B:BBBBBBBB 1C:00000001 1D:000007D4 1E:00000008 1F:00000008
0A0: 02C4DE63  BGE x9, x12, 60     00:00000000 01:000000C8 02:000006EC 05:0000001C 06:0000001C 07:0000000A 08:000007EC 09:00000008 0A:000007B8 0B:00000007 0C:00000008 0D:00000006 12:00000009 13:00000007 14:00000002 15:000007D8 16:66666666 17:77777777 18:88888888 19:99999999 1A:AAAAAAAA 1B:BBBBBBBB 1C:00000001 1D:000007D4 1E:00000008 1F:00000008
0DC: 00198993  ADDI x19, x19, 1    00:00000000 01:000000C8 02:000006EC 05:0000001C 06:0000001C 07:0000000A 08:000007EC 09:00000008 0A:000007B8 0B:00000007 0C:00000008 0D:00000006 12:00000009 13:00000007 14:00000002 15:000007D8 16:66666666 17:77777777 18:88888888 19:99999999 1A:AAAAAAAA 1B:BBBBBBBB 1C:00000001 1D:000007D4 1E:00000008 1F:00000008
0E0: 01499333  SLL x6, x19, x20    00:00000000 01:000000C8 02:000006EC 05:0000001C 06:0000001C 07:0000000A 08:000007EC 09:00000008 0A:000007B8 0B:00000007 0C:00000008 0D:00000006 12:00000009 13:00000008 14:00000002 15:000007D8 16:66666666 17:77777777 18:88888888 19:99999999 1A:AAAAAAAA 1B:BBBBBBBB 1C:00000001 1D:000007D4 1E:00000008 1F:00000008
0E4: 006505B3  ADD x11, x10, x6    00:00000000 01:000000C8 02:000006EC 05:0000001C 06:00000020 07:0000000A 08:000007EC 09:00000008 0A:000007B8 0B:00000007 0C:00000008 0D:00000006 12:00000009 13:00000008 14:00000002 15:000007D8 16:66666666 17:77777777 18:88888888 19:99999999 1A:AAAAAAAA 1B:BBBBBBBB 1C:00000001 1D:000007D4 1E:00000008 1F:00000008
0E8: 000A8613  ADDI x12, x21, 0    00:00000000 01:000000C8 02:000006EC 05:0000001C 06:00000020 07:0000000A 08:000007EC 09:00000008 0A:000007B8 0B:000007D8 0C:00000008 0D:00000006 12:00000009 13:00000008 14:00000002 15:000007D8 16:66666666 17:77777777 18:88888888 19:99999999 1A:AAAAAAAA 1B:BBBBBBBB 1C:00000001 1D:000007D4 1E:00000008 1F:00000008
0EC: F55FF0EF  JAL x1, -172        00:00000000 01:000000C8 02:000006EC 05:0000001C 06:00000020 07:0000000A 08:000007EC 09:00000008 0A:000007B8 0B:000007D8 0C:000007D8 0D:00000006 12:00000009 13:00000008 14:00000002 15:000007D8 16:66666666 17:77777777 18:88888888 19:99999999 1A:AAAAAAAA 1B:BBBBBBBB 1C:00000001 1D:000007D4 1E:00000008 1F:00000008
040: FE010113  ADDI x2, x2, -32    00:00000000 01:000000F0 02:000006EC 05:0000001C 06:00000020 07:0000000A 08:000007EC 09:00000008 0A:000007B8 0B:000007D8 0C:000007D8 0D:00000006 12:00000009 13:00000008 14:00000002 15:000007D8 16:66666666 17:77777777 18:88888888 19:99999999 1A:AAAAAAAA 1B:BBBBBBBB 1C:00000001 1D:000007D4 1E:00000008 1F:00000008
044: 00112E23  SW x1, 28(x2)       00:00000000 01:000000F0 02:000006CC 05:0000001C 06:00000020 07:0000000A 08:000007EC 09:00000008 0A:000007B8 0B:000007D8 0C:000007D8 0D:00000006 12:00000009 13:00000008 14:00000002 15:000007D8 16:66666666 17:77777777 18:88888888 19:99999999 1A:AAAAAAAA 1B:BBBBBBBB 1C:00000001 1D:000007D4 1E:00000008 1F:00000008
048: 0005AF03  LW x30, 0(x11)      00:00000000 01:000000F0 02:000006CC 05:0000001C 06:00000020 07:0000000A 08:000007EC 09:00000008 0A:000007B8 0B:000007D8 0C:000007D8 0D:00000006 12:00000009 13:00000008 14:00000002 15:000007D8 16:66666666 17:77777777 18:88888888 19:99999999 1A:AAAAAAAA 1B:BBBBBBBB 1C:00000001 1D:000007D4 1E:00000008 1F:00000008
04C: 00062F83  LW x31, 0(x12)      00:00000000 01:000000F0 02:000006CC 05:0000001C 06:00000020 07:0000000A 08:000007EC 09:00000008 0A:000007B8 0B:000007D8 0C:000007D8 0D:00000006 12:00000009 13:00000008 14:00000002 15:000007D8 16:66666666 17:77777777 18:88888888 19:99999999 1A:AAAAAAAA 1B:BBBBBBBB 1C:00000001 1D:000007D4 1E:00000009 1F:00000008
050: 01F5A023  SW x31, 0(x11)      00:00000000 01:000000F0 02:000006CC 05:0000001C 06:00000020 07:0000000A 08:000007EC 09:00000008 0A:000007B8 0B:000007D8 0C:000007D8 0D:00000006 12:00000009 13:00000008 14:00000002 15:000007D8 16:66666666 17:77777777 18:88888888 19:99999999 1A:AAAAAAAA 1B:BBBBBBBB 1C:00000001 1D:000007D4 1E:00000009 1F:00000009
054: 01E62023  SW x30, 0(x12)      00:00000000 01:000000F0 02:000006CC 05:0000001C 06:00000020 07:0000000A 08:000007EC 09:00000008 0A:000007B8 0B:000007D8 0C:000007D8 0D:00000006 12:00000009 13:00000008 14:00000002 15:000007D8 16:66666666 17:77777777 18:88888888 19:99999999 1A:AAAAAAAA 1B:BBBBBBBB 1C:00000001 1D:000007D4 1E:00000009 1F:00000009
058: 01C12083  LW x1, 28(x2)       00:00000000 01:000000F0 02:000006CC 05:0000001C 06:00000020 07:0000000A 08:000007EC 09:00000008 0A:000007B8 0B:000007D8 0C:000007D8 0D:00000006 12:00000009 13:00000008 14:00000002 15:000007D8 16:66666666 17:77777777 18:88888888 19:99999999 1A:AAAAAAAA 1B:BBBBBBBB 1C:00000001 1D:000007D4 1E:00000009 1F:00000009
05C: 02010113  ADDI x2, x2, 32     00:00000000 01:000000F0 02:000006CC 05:0000001C 06:00000020 07:0000000A 08:000007EC 09:00000008 0A:000007B8 0B:000007D8 0C:000007D8 0D:00000006 12:00000009 13:00000008 14:00000002 15:000007D8 16:66666666 17:77777777 18:88888888 19:99999999 1A:AAAAAAAA 1B:BBBBBBBB 1C:00000001 1D:000007D4 1E:00000009 1F:00000009
060: 00008067  JALR x0, 0(x1)      00:00000000 01:000000F0 02:000006EC 05:0000001C 06:00000020 07:0000000A 08:000007EC 09:00000008 0A:000007B8 0B:000007D8 0C:000007D8 0D:00000006 12:00000009 13:00000008 14:00000002 15:000007D8 16:66666666 17:77777777 18:88888888 19:99999999 1A:AAAAAAAA 1B:BBBBBBBB 1C:00000001 1D:000007D4 1E:00000009 1F:00000009
0F0: 00412583  LW x11, 4(x2)       00:00000000 01:000000F0 02:000006EC 05:0000001C 06:00000020 07:0000000A 08:000007EC 09:00000008 0A:000007B8 0B:000007D8 0C:000007D8 0D:00000006 12:00000009 13:00000008 14:00000002 15:000007D8 16:66666666 17:77777777 18:88888888 19:99999999 1A:AAAAAAAA 1B:BBBBBBBB 1C:00000001 1D:000007D4 1E:00000009 1F:00000009
0F4: 00012603  LW x12, 0(x2)       00:00000000 01:000000F0 02:000006EC 05:0000001C 06:00000020 07:0000000A 08:000007EC 09:00000008 0A:000007B8 0B:00000007 0C:000007D8 0D:00000006 12:00000009 13:00000008 14:00000002 15:000007D8 16:66666666 17:77777777 18:88888888 19:99999999 1A:AAAAAAAA 1B:BBBBBBBB 1C:00000001 1D:000007D4 1E:00000009 1F:00000009
0F8: 00098513  ADDI x10, x19, 0    00:00000000 01:000000F0 02:000006EC 05:0000001C 06:00000020 07:0000000A 08:000007EC 09:00000008 0A:000007B8 0B:00000007 0C:00000008 0D:00000006 12:00000009 13:00000008 14:00000002 15:000007D8 16:66666666 17:77777777 18:88888888 19:99999999 1A:AAAAAAAA 1B:BBBBBBBB 1C:00000001 1D:000007D4 1E:00000009 1F:00000009
0FC: 01812483  LW x9, 24(x2)       00:00000000 01:000000F0 02:000006EC 05:0000001C 06:00000020 07:0000000A 08:000007EC 09:00000008 0A:00000008 0B:00000007 0C:00000008 0D:00000006 12:00000009 13:00000008 14:00000002 15:000007D8 16:66666666 17:77777777 18:88888888 19:99999999 1A:AAAAAAAA 1B:BBBBBBBB 1C:00000001 1D:000007D4 1E:00000009 1F:00000009
100: 01412903  LW x18, 20(x2)      00:00000000 01:000000F0 02:000006EC 05:0000001C 06:00000020 07:0000000A 08:000007EC 09:11111111 0A:00000008 0B:00000007 0C:00000008 0D:00000006 12:00000009 13:00000008 14:00000002 15:000007D8 16:66666666 17:77777777 18:88888888 19:99999999 1A:AAAAAAAA 1B:BBBBBBBB 1C:00000001 1D:000007D4 1E:00000009 1F:00000009
104: 01012983  LW x19, 16(x2)      00:00000000 01:000000F0 02:000006EC 05:0000001C 06:00000020 07:0000000A 08:000007EC 09:11111111 0A:00000008 0B:00000007 0C:00000008 0D:00000006 12:22222222 13:00000008 14:00000002 15:000007D8 16:66666666 17:77777777 18:88888888 19:99999999 1A:AAAAAAAA 1B:BBBBBBBB 1C:00000001 1D:000007D4 1E:00000009 1F:00000009
108: 00C12A03  LW x20, 12(x2)      00:00000000 01:000000F0 02:000006EC 05:0000001C 06:00000020 07:0000000A 08:000007EC 09:11111111 0A:00000008 0B:00000007 0C:00000008 0D:00000006 12:22222222 13:33333333 14:00000002 15:000007D8 16:66666666 17:77777777 18:88888888 19:99999999 1A:AAAAAAAA 1B:BBBBBBBB 1C:00000001 1D:000007D4 1E:00000009 1F:00000009
10C: 00812A83  LW x21, 8(x2)       00:00000000 01:000000F0 02:000006EC 05:0000001C 06:00000020 07:0000000A 08:000007EC 09:11111111 0A:00000008 0B:00000007 0C:00000008 0D:00000006 12:22222222 13:33333333 14:44444444 15:000007D8 16:66666666 17:77777777 18:88888888 19:99999999 1A:AAAAAAAA 1B:BBBBBBBB 1C:00000001 1D:000007D4 1E:00000009 1F:00000009
110: 01C12083  LW x1, 28(x2)       00:00000000 01:000000F0 02:000006EC 05:0000001C 06:00000020 07:0000000A 08:000007EC 09:11111111 0A:00000008 0B:00000007 0C:00000008 0D:00000006 12:22222222 13:33333333 14:44444444 15:55555555 16:66666666 17:77777777 18:88888888 19:99999999 1A:AAAAAAAA 1B:BBBBBBBB 1C:00000001 1D:000007D4 1E:00000009 1F:00000009
114: 02010113  ADDI x2, x2, 32     00:00000000 01:00000134 02:000006EC 05:0000001C 06:00000020 07:0000000A 08:000007EC 09:11111111 0A:00000008 0B:00000007 0C:00000008 0D:00000006 12:22222222 13:33333333 14:44444444 15:55555555 16:66666666 17:77777777 18:88888888 19:99999999 1A:AAAAAAAA 1B:BBBBBBBB 1C:00000001 1D:000007D4 1E:00000009 1F:00000009
118: 00008067  JALR x0, 0(x1)      00:00000000 01:00000134 02:0000070C 05:0000001C 06:00000020 07:0000000A 08:000007EC 09:11111111 0A:00000008 0B:00000007 0C:00000008 0D:00000006 12:22222222 13:33333333 14:44444444 15:55555555 16:66666666 17:77777777 18:88888888 19:99999999 1A:AAAAAAAA 1B:BBBBBBBB 1C:00000001 1D:000007D4 1E:00000009 1F:00000009
134: 00050693  ADDI x13, x10, 0    00:00000000 01:00000134 02:0000070C 05:0000001C 06:00000020 07:0000000A 08:000007EC 09:11111111 0A:00000008 0B:00000007 0C:00000008 0D:00000006 12:22222222 13:33333333 14:44444444 15:55555555 16:66666666 17:77777777 18:88888888 19:99999999 1A:AAAAAAAA 1B:BBBBBBBB 1C:00000001 1D:000007D4 1E:00000009 1F:00000009
138: 00C12503  LW x10, 12(x2)      00:00000000 01:00000134 02:0000070C 05:0000001C 06:00000020 07:0000000A 08:000007EC 09:11111111 0A:00000008 0B:00000007 0C:00000008 0D:00000008 12:22222222 13:33333333 14:44444444 15:55555555 16:66666666 17:77777777 18:88888888 19:99999999 1A:AAAAAAAA 1B:BBBBBBBB 1C:00000001 1D:000007D4 1E:00000009 1F:00000009
13C: FFF68613  ADDI x12, x13, -1   00:00000000 01:00000134 02:0000070C 05:0000001C 06:00000020 07:0000000A 08:000007EC 09:11111111 0A:000007B8 0B:00000007 0C:00000008 0D:00000008 12:22222222 13:33333333 14:44444444 15:55555555 16:66666666 17:77777777 18:88888888 19:99999999 1A:AAAAAAAA 1B:BBBBBBBB 1C:00000001 1D:000007D4 1E:00000009 1F:00000009
140: FDDFF0EF  JAL x1, -36         00:00000000 01:00000134 02:0000070C 05:0000001C 06:00000020 07:0000000A 08:000007EC 09:11111111 0A:000007B8 0B:00000007 0C:00000007 0D:00000008 12:22222222 13:33333333 14:44444444 15:55555555 16:66666666 17:77777777 18:88888888 19:99999999 1A:AAAAAAAA 1B:BBBBBBBB 1C:00000001 1D:000007D4 1E:00000009 1F:00000009
11C: FE010113  ADDI x2, x2, -32    00:00000000 01:00000144 02:0000070C 05:0000001C 06:00000020 07:0000000A 08:000007EC 09:11111111 0A:000007B8 0B:00000007 0C:00000007 0D:00000008 12:22222222 13:33333333 14:44444444 15:55555555 16:66666666 17:77777777 18:88888888 19:99999999 1A:AAAAAAAA 1B:BBBBBBBB 1C:00000001 1D:000007D4 1E:00000009 1F:00000009
120: 00112E23  SW x1, 28(x2)       00:00000000 01:00000144 02:000006EC 05:0000001C 06:00000020 07:0000000A 08:000007EC 09:11111111 0A:000007B8 0B:00000007 0C:00000007 0D:00000008 12:22222222 13:33333333 14:44444444 15:55555555 16:66666666 17:77777777 18:88888888 19:99999999 1A:AAAAAAAA 1B:BBBBBBBB 1C:00000001 1D:000007D4 1E:00000009 1F:00000009
124: 00C12A23  SW x12, 20(x2)      00:00000000 01:00000144 02:000006EC 05:0000001C 06:00000020 07:0000000A 08:000007EC 09:11111111 0A:000007B8 0B:00000007 0C:00000007 0D:00000008 12:22222222 13:33333333 14:44444444 15:55555555 16:66666666 17:77777777 18:88888888 19:99999999 1A:AAAAAAAA 1B:BBBBBBBB 1C:00000001 1D:000007D4 1E:00000009 1F:00000009
128: 00A12623  SW x10, 12(x2)      00:00000000 01:00000144 02:000006EC 05:0000001C 06:00000020 07:0000000A 08:000007EC 09:11111111 0A:000007B8 0B:00000007 0C:00000007 0D:00000008 12:22222222 13:33333333 14:44444444 15:55555555 16:66666666 17:77777777 18:88888888 19:99999999 1A:AAAAAAAA 1B:BBBBBBBB 1C:00000001 1D:000007D4 1E:00000009 1F:00000009
12C: 02C5D463  BGE x11, x12, 40    00:00000000 01:00000144 02:000006EC 05:0000001C 06:00000020 07:0000000A 08:000007EC 09:11111111 0A:000007B8 0B:00000007 0C:00000007 0D:00000008 12:22222222 13:33333333 14:44444444 15:55555555 16:66666666 17:77777777 18:88888888 19:99999999 1A:AAAAAAAA 1B:BBBBBBBB 1C:00000001 1D:000007D4 1E:00000009 1F:00000009
154: 01C12083  LW x1, 28(x2)       00:00000000 01:00000144 02:000006EC 05:0000001C 06:00000020 07:0000000A 08:000007EC 09:11111111 0A:000007B8 0B:00000007 0C:00000007 0D:00000008 12:22222222 13:33333333 14:44444444 15:55555555 16:66666666 17:77777777 18:88888888 19:99999999 1A:AAAAAAAA 1B:BBBBBBBB 1C:00000001 1D:000007D4 1E:00000009 1F:00000009
158: 02010113  ADDI x2, x2, 32     00:00000000 01:00000144 02:000006EC 05:0000001C 06:00000020 07:0000000A 08:000007EC 09:11111111 0A:000007B8 0B:00000007 0C:00000007 0D:00000008 12:22222222 13:33333333 14:44444444 15:55555555 16:66666666 17:77777777 18:88888888 19:99999999 1A:AAAAAAAA 1B:BBBBBBBB 1C:00000001 1D:000007D4 1E:00000009 1F:00000009
15C: 00008067  JALR x0, 0(x1)      00:00000000 01:00000144 02:0000070C 05:0000001C 06:00000020 07:0000000A 08:000007EC 09:11111111 0A:000007B8 0B:00000007 0C:00000007 0D:00000008 12:22222222 13:33333333 14:44444444 15:55555555 16:66666666 17:77777777 18:88888888 19:99999999 1A:AAAAAAAA 1B:BBBBBBBB 1C:00000001 1D:000007D4 1E:00000009 1F:00000009
144: 00168593  ADDI x11, x13, 1    00:00000000 01:00000144 02:0000070C 05:0000001C 06:00000020 07:0000000A 08:000007EC 09:11111111 0A:000007B8 0B:00000007 0C:00000007 0D:00000008 12:22222222 13:33333333 14:44444444 15:55555555 16:66666666 17:77777777 18:88888888 19:99999999 1A:AAAAAAAA 1B:BBBBBBBB 1C:00000001 1D:000007D4 1E:00000009 1F:00000009
148: 01412603  LW x12, 20(x2)      00:00000000 01:00000144 02:0000070C 05:0000001C 06:00000020 07:0000000A 08:000007EC 09:11111111 0A:000007B8 0B:00000009 0C:00000007 0D:00000008 12:22222222 13:33333333 14:44444444 15:55555555 16:66666666 17:77777777 18:88888888 19:99999999 1A:AAAAAAAA 1B:BBBBBBBB 1C:00000001 1D:000007D4 1E:00000009 1F:00000009
14C: FD1FF0EF  JAL x1, -48         00:00000000 01:00000144 02:0000070C 05:0000001C 06:00000020 07:0000000A 08:000007EC 09:11111111 0A:000007B8 0B:00000009 0C:00000008 0D:00000008 12:22222222 13:33333333 14:44444444 15:55555555 16:66666666 17:77777777 18:88888888 19:99999999 1A:AAAAAAAA 1B:BBBBBBBB 1C:00000001 1D:000007D4 1E:00000009 1F:00000009
11C: FE010113  ADDI x2, x2, -32    00:00000000 01:00000150 02:0000070C 05:0000001C 06:00000020 07:0000000A 08:000007EC 09:11111111 0A:000007B8 0B:00000009 0C:00000008 0D:00000008 12:22222222 13:33333333 14:44444444 15:55555555 16:66666666 17:77777777 18:88888888 19:99999999 1A:AAAAAAAA 1B:BBBBBBBB 1C:00000001 1D:000007D4 1E:00000009 1F:00000009
120: 00112E23  SW x1, 28(x2)       00:00000000 01:00000150 02:000006EC 05:0000001C 06:00000020 07:0000000A 08:000007EC 09:11111111 0A:000007B8 0B:00000009 0C:00000008 0D:00000008 12:22222222 13:33333333 14:44444444 15:55555555 16:66666666 17:77777777 18:88888888 19:99999999 1A:AAAAAAAA 1B:BBBBBBBB 1C:00000001 1D:000007D4 1E:00000009 1F:00000009
124: 00C12A23  SW x12, 20(x2)      00:00000000 01:00000150 02:000006EC 05:0000001C 06:00000020 07:0000000A 08:000007EC 09:11111111 0A:000007B8 0B:00000009 0C:00000008 0D:00000008 12:22222222 13:33333333 14:44444444 15:55555555 16:66666666 17:77777777 18:88888888 19:99999999 1A:AAAAAAAA 1B:BBBBBBBB 1C:00000001 1D:000007D4 1E:00000009 1F:00000009
128: 00A12623  SW x10, 12(x2)      00:00000000 01:00000150 02:000006EC 05:0000001C 06:00000020 07:0000000A 08:000007EC 09:11111111 0A:000007B8 0B:00000009 0C:00000008 0D:00000008 12:22222222 13:33333333 14:44444444 15:55555555 16:66666666 17:77777777 18:88888888 19:99999999 1A:AAAAAAAA 1B:BBBBBBBB 1C:00000001 1D:000007D4 1E:00000009 1F:00000009
12C: 02C5D463  BGE x11, x12, 40    00:00000000 01:00000150 02:000006EC 05:0000001C 06:00000020 07:0000000A 08:000007EC 09:11111111 0A:000007B8 0B:00000009 0C:00000008 0D:00000008 12:22222222 13:33333333 14:44444444 15:55555555 16:66666666 17:77777777 18:88888888 19:99999999 1A:AAAAAAAA 1B:BBBBBBBB 1C:00000001 1D:000007D4 1E:00000009 1F:00000009
154: 01C12083  LW x1, 28(x2)       00:00000000 01:00000150 02:000006EC 05:0000001C 06:00000020 07:0000000A 08:000007EC 09:11111111 0A:000007B8 0B:00000009 0C:00000008 0D:00000008 12:22222222 13:33333333 14:44444444 15:55555555 16:66666666 17:77777777 18:88888888 19:99999999 1A:AAAAAAAA 1B:BBBBBBBB 1C:00000001 1D:000007D4 1E:00000009 1F:00000009
158: 02010113  ADDI x2, x2, 32     00:00000000 01:00000150 02:000006EC 05:0000001C 06:00000020 07:0000000A 08:000007EC 09:11111111 0A:000007B8 0B:00000009 0C:00000008 0D:00000008 12:22222222 13:33333333 14:44444444 15:55555555 16:66666666 17:77777777 18:88888888 19:99999999 1A:AAAAAAAA 1B:BBBBBBBB 1C:00000001 1D:000007D4 1E:00000009 1F:00000009
15C: 00008067  JALR x0, 0(x1)      00:00000000 01:00000150 02:0000070C 05:0000001C 06:00000020 07:0000000A 08:000007EC 09:11111111 0A:000007B8 0B:00000009 0C:00000008 0D:00000008 12:22222222 13:33333333 14:44444444 15:55555555 16:66666666 17:77777777 18:88888888 19:99999999 1A:AAAAAAAA 1B:BBBBBBBB 1C:00000001 1D:000007D4 1E:00000009 1F:00000009
150: 01412603  LW x12, 20(x2)      00:00000000 01:00000150 02:0000070C 05:0000001C 06:00000020 07:0000000A 08:000007EC 09:11111111 0A:000007B8 0B:00000009 0C:00000008 0D:00000008 12:22222222 13:33333333 14:44444444 15:55555555 16:66666666 17:77777777 18:88888888 19:99999999 1A:AAAAAAAA 1B:BBBBBBBB 1C:00000001 1D:000007D4 1E:00000009 1F:00000009
154: 01C12083  LW x1, 28(x2)       00:00000000 01:00000150 02:0000070C 05:0000001C 06:00000020 07:0000000A 08:000007EC 09:11111111 0A:000007B8 0B:00000009 0C:00000008 0D:00000008 12:22222222 13:33333333 14:44444444 15:55555555 16:66666666 17:77777777 18:88888888 19:99999999 1A:AAAAAAAA 1B:BBBBBBBB 1C:00000001 1D:000007D4 1E:00000009 1F:00000009
158: 02010113  ADDI x2, x2, 32     00:00000000 01:00000150 02:0000070C 05:0000001C 06:00000020 07:0000000A 08:000007EC 09:11111111 0A:000007B8 0B:00000009 0C:00000008 0D:00000008 12:22222222 13:33333333 14:44444444 15:55555555 16:66666666 17:77777777 18:88888888 19:99999999 1A:AAAAAAAA 1B:BBBBBBBB 1C:00000001 1D:000007D4 1E:00000009 1F:00000009
15C: 00008067  JALR x0, 0(x1)      00:00000000 01:00000150 02:0000072C 05:0000001C 06:00000020 07:0000000A 08:000007EC 09:11111111 0A:000007B8 0B:00000009 0C:00000008 0D:00000008 12:22222222 13:33333333 14:44444444 15:55555555 16:66666666 17:77777777 18:88888888 19:99999999 1A:AAAAAAAA 1B:BBBBBBBB 1C:00000001 1D:000007D4 1E:00000009 1F:00000009
150: 01412603  LW x12, 20(x2)      00:00000000 01:00000150 02:0000072C 05:0000001C 06:00000020 07:0000000A 08:000007EC 09:11111111 0A:000007B8 0B:00000009 0C:00000008 0D:00000008 12:22222222 13:33333333 14:44444444 15:55555555 16:66666666 17:77777777 18:88888888 19:99999999 1A:AAAAAAAA 1B:BBBBBBBB 1C:00000001 1D:000007D4 1E:00000009 1F:00000009
154: 01C12083  LW x1, 28(x2)       00:00000000 01:00000150 02:0000072C 05:0000001C 06:00000020 07:0000000A 08:000007EC 09:11111111 0A:000007B8 0B:00000009 0C:00000008 0D:00000008 12:22222222 13:33333333 14:44444444 15:55555555 16:66666666 17:77777777 18:88888888 19:99999999 1A:AAAAAAAA 1B:BBBBBBBB 1C:00000001 1D:000007D4 1E:00000009 1F:00000009
158: 02010113  ADDI x2, x2, 32     00:00000000 01:00000150 02:0000072C 05:0000001C 06:00000020 07:0000000A 08:000007EC 09:11111111 0A:000007B8 0B:00000009 0C:00000008 0D:00000008 12:22222222 13:33333333 14:44444444 15:55555555 16:66666666 17:77777777 18:88888888 19:99999999 1A:AAAAAAAA 1B:BBBBBBBB 1C:00000001 1D:000007D4 1E:00000009 1F:00000009
15C: 00008067  JALR x0, 0(x1)      00:00000000 01:00000150 02:0000074C 05:0000001C 06:00000020 07:0000000A 08:000007EC 09:11111111 0A:000007B8 0B:00000009 0C:00000008 0D:00000008 12:22222222 13:33333333 14:44444444 15:55555555 16:66666666 17:77777777 18:88888888 19:99999999 1A:AAAAAAAA 1B:BBBBBBBB 1C:00000001 1D:000007D4 1E:00000009 1F:00000009
150: 01412603  LW x12, 20(x2)      00:00000000 01:00000150 02:0000074C 05:0000001C 06:00000020 07:0000000A 08:000007EC 09:11111111 0A:000007B8 0B:00000009 0C:00000008 0D:00000008 12:22222222 13:33333333 14:44444444 15:55555555 16:66666666 17:77777777 18:88888888 19:99999999 1A:AAAAAAAA 1B:BBBBBBBB 1C:00000001 1D:000007D4 1E:00000009 1F:00000009
154: 01C12083  LW x1, 28(x2)       00:00000000 01:00000150 02:0000074C 05:0000001C 06:00000020 07:0000000A 08:000007EC 09:11111111 0A:000007B8 0B:00000009 0C:00000008 0D:00000008 12:22222222 13:33333333 14:44444444 15:55555555 16:66666666 17:77777777 18:88888888 19:99999999 1A:AAAAAAAA 1B:BBBBBBBB 1C:00000001 1D:000007D4 1E:00000009 1F:00000009
158: 02010113  ADDI x2, x2, 32     00:00000000 01:00000144 02:0000074C 05:0000001C 06:00000020 07:0000000A 08:000007EC 09:11111111 0A:000007B8 0B:00000009 0C:00000008 0D:00000008 12:22222222 13:33333333 14:44444444 15:55555555 16:66666666 17:77777777 18:88888888 19:99999999 1A:AAAAAAAA 1B:BBBBBBBB 1C:00000001 1D:000007D4 1E:00000009 1F:00000009
15C: 00008067  JALR x0, 0(x1)      00:00000000 01:00000144 02:0000076C 05:0000001C 06:00000020 07:0000000A 08:000007EC 09:11111111 0A:000007B8 0B:00000009 0C:00000008 0D:00000008 12:22222222 13:33333333 14:44444444 15:55555555 16:66666666 17:77777777 18:88888888 19:99999999 1A:AAAAAAAA 1B:BBBBBBBB 1C:00000001 1D:000007D4 1E:00000009 1F:00000009
144: 00168593  ADDI x11, x13, 1    00:00000000 01:00000144 02:0000076C 05:0000001C 06:00000020 07:0000000A 08:000007EC 09:11111111 0A:000007B8 0B:00000009 0C:00000008 0D:00000008 12:22222222 13:33333333 14:44444444 15:55555555 16:66666666 17:77777777 18:88888888 19:99999999 1A:AAAAAAAA 1B:BBBBBBBB 1C:00000001 1D:000007D4 1E:00000009 1F:00000009
148: 01412603  LW x12, 20(x2)      00:00000000 01:00000144 02:0000076C 05:0000001C 06:00000020 07:0000000A 08:000007EC 09:11111111 0A:000007B8 0B:00000009 0C:00000008 0D:00000008 12:22222222 13:33333333 14:44444444 15:55555555 16:66666666 17:77777777 18:88888888 19:99999999 1A:AAAAAAAA 1B:BBBBBBBB 1C:00000001 1D:000007D4 1E:00000009 1F:00000009
14C: FD1FF0EF  JAL x1, -48         00:00000000 01:00000144 02:0000076C 05:0000001C 06:00000020 07:0000000A 08:000007EC 09:11111111 0A:000007B8 0B:00000009 0C:00000009 0D:00000008 12:22222222 13:33333333 14:44444444 15:55555555 16:66666666 17:77777777 18:88888888 19:99999999 1A:AAAAAAAA 1B:BBBBBBBB 1C:00000001 1D:000007D4 1E:00000009 1F:00000009
11C: FE010113  ADDI x2, x2, -32    00:00000000 01:00000150 02:0000076C 05:0000001C 06:00000020 07:0000000A 08:000007EC 09:11111111 0A:000007B8 0B:00000009 0C:00000009 0D:00000008 12:22222222 13:33333333 14:44444444 15:55555555 16:66666666 17:77777777 18:88888888 19:99999999 1A:AAAAAAAA 1B:BBBBBBBB 1C:00000001 1D:000007D4 1E:00000009 1F:00000009
120: 00112E23  SW x1, 28(x2)       00:00000000 01:00000150 02:0000074C 05:0000001C 06:00000020 07:0000000A 08:000007EC 09:11111111 0A:000007B8 0B:00000009 0C:00000009 0D:00000008 12:22222222 13:33333333 14:44444444 15:55555555 16:66666666 17:77777777 18:88888888 19:99999999 1A:AAAAAAAA 1B:BBBBBBBB 1C:00000001 1D:000007D4 1E:00000009 1F:00000009
124: 00C12A23  SW x12, 20(x2)      00:00000000 01:00000150 02:0000074C 05:0000001C 06:00000020 07:0000000A 08:000007EC 09:11111111 0A:000007B8 0B:00000009 0C:00000009 0D:00000008 12:22222222 13:33333333 14:44444444 15:55555555 16:66666666 17:77777777 18:88888888 19:99999999 1A:AAAAAAAA 1B:BBBBBBBB 1C:00000001 1D:000007D4 1E:00000009 1F:00000009
128: 00A12623  SW x10, 12(x2)      00:00000000 01:00000150 02:0000074C 05:0000001C 06:00000020 07:0000000A 08:000007EC 09:11111111 0A:000007B8 0B:00000009 0C:00000009 0D:00000008 12:22222222 13:33333333 14:44444444 15:55555555 16:66666666 17:77777777 18:88888888 19:99999999 1A:AAAAAAAA 1B:BBBBBBBB 1C:00000001 1D:000007D4 1E:00000009 1F:00000009
12C: 02C5D463  BGE x11, x12, 40    00:00000000 01:00000150 02:0000074C 05:0000001C 06:00000020 07:0000000A 08:000007EC 09:11111111 0A:000007B8 0B:00000009 0C:00000009 0D:00000008 12:22222222 13:33333333 14:44444444 15:55555555 16:66666666 17:77777777 18:88888888 19:99999999 1A:AAAAAAAA 1B:BBBBBBBB 1C:00000001 1D:000007D4 1E:00000009 1F:00000009
154: 01C12083  LW x1, 28(x2)       00:00000000 01:00000150 02:0000074C 05:0000001C 06:00000020 07:0000000A 08:000007EC 09:11111111 0A:000007B8 0B:00000009 0C:00000009 0D:00000008 12:22222222 13:33333333 14:44444444 15:55555555 16:66666666 17:77777777 18:88888888 19:99999999 1A:AAAAAAAA 1B:BBBBBBBB 1C:00000001 1D:000007D4 1E:00000009 1F:00000009
158: 02010113  ADDI x2, x2, 32     00:00000000 01:00000150 02:0000074C 05:0000001C 06:00000020 07:0000000A 08:000007EC 09:11111111 0A:000007B8 0B:00000009 0C:00000009 0D:00000008 12:22222222 13:33333333 14:44444444 15:55555555 16:66666666 17:77777777 18:88888888 19:99999999 1A:AAAAAAAA 1B:BBBBBBBB 1C:00000001 1D:000007D4 1E:00000009 1F:00000009
15C: 00008067  JALR x0, 0(x1)      00:00000000 01:00000150 02:0000076C 05:0000001C 06:00000020 07:0000000A 08:000007EC 09:11111111 0A:000007B8 0B:00000009 0C:00000009 0D:00000008 12:22222222 13:33333333 14:44444444 15:55555555 16:66666666 17:77777777 18:88888888 19:99999999 1A:AAAAAAAA 1B:BBBBBBBB 1C:00000001 1D:000007D4 1E:00000009 1F:00000009
150: 01412603  LW x12, 20(x2)      00:00000000 01:00000150 02:0000076C 05:0000001C 06:00000020 07:0000000A 08:000007EC 09:11111111 0A:000007B8 0B:00000009 0C:00000009 0D:00000008 12:22222222 13:33333333 14:44444444 15:55555555 16:66666666 17:77777777 18:88888888 19:99999999 1A:AAAAAAAA 1B:BBBBBBBB 1C:00000001 1D:000007D4 1E:00000009 1F:00000009
154: 01C12083  LW x1, 28(x2)       00:00000000 01:00000150 02:0000076C 05:0000001C 06:00000020 07:0000000A 08:000007EC 09:11111111 0A:000007B8 0B:00000009 0C:00000009 0D:00000008 12:22222222 13:33333333 14:44444444 15:55555555 16:66666666 17:77777777 18:88888888 19:99999999 1A:AAAAAAAA 1B:BBBBBBBB 1C:00000001 1D:000007D4 1E:00000009 1F:00000009
158: 02010113  ADDI x2, x2, 32     00:00000000 01:00000150 02:0000076C 05:0000001C 06:00000020 07:0000000A 08:000007EC 09:11111111 0A:000007B8 0B:00000009 0C:00000009 0D:00000008 12:22222222 13:33333333 14:44444444 15:55555555 16:66666666 17:77777777 18:88888888 19:99999999 1A:AAAAAAAA 1B:BBBBBBBB 1C:00000001 1D:000007D4 1E:00000009 1F:00000009
15C: 00008067  JALR x0, 0(x1)      00:00000000 01:00000150 02:0000078C 05:0000001C 06:00000020 07:0000000A 08:000007EC 09:11111111 0A:000007B8 0B:00000009 0C:00000009 0D:00000008 12:22222222 13:33333333 14:44444444 15:55555555 16:66666666 17:77777777 18:88888888 19:99999999 1A:AAAAAAAA 1B:BBBBBBBB 1C:00000001 1D:000007D4 1E:00000009 1F:00000009
150: 01412603  LW x12, 20(x2)      00:00000000 01:00000150 02:0000078C 05:0000001C 06:00000020 07:0000000A 08:000007EC 09:11111111 0A:000007B8 0B:00000009 0C:00000009 0D:00000008 12:22222222 13:33333333 14:44444444 15:55555555 16:66666666 17:77777777 18:88888888 19:99999999 1A:AAAAAAAA 1B:BBBBBBBB 1C:00000001 1D:000007D4 1E:00000009 1F:00000009
154: 01C12083  LW x1, 28(x2)       00:00000000 01:00000150 02:0000078C 05:0000001C 06:00000020 07:0000000A 08:000007EC 09:11111111 0A:000007B8 0B:00000009 0C:00000009 0D:00000008 12:22222222 13:33333333 14:44444444 15:55555555 16:66666666 17:77777777 18:88888888 19:99999999 1A:AAAAAAAA 1B:BBBBBBBB 1C:00000001 1D:000007D4 1E:00000009 1F:00000009
158: 02010113  ADDI x2, x2, 32     00:00000000 01:000001D8 02:0000078C 05:0000001C 06:00000020 07:0000000A 08:000007EC 09:11111111 0A:000007B8 0B:00000009 0C:00000009 0D:00000008 12:22222222 13:33333333 14:44444444 15:55555555 16:66666666 17:77777777 18:88888888 19:99999999 1A:AAAAAAAA 1B:BBBBBBBB 1C:00000001 1D:000007D4 1E:00000009 1F:00000009
15C: 00008067  JALR x0, 0(x1)      00:00000000 01:000001D8 02:000007AC 05:0000001C 06:00000020 07:0000000A 08:000007EC 09:11111111 0A:000007B8 0B:00000009 0C:00000009 0D:00000008 12:22222222 13:33333333 14:44444444 15:55555555 16:66666666 17:77777777 18:88888888 19:99999999 1A:AAAAAAAA 1B:BBBBBBBB 1C:00000001 1D:000007D4 1E:00000009 1F:00000009
1D8: FC842503  LW x10, -56(x8)     00:00000000 01:000001D8 02:000007AC 05:0000001C 06:00000020 07:0000000A 08:000007EC 09:11111111 0A:000007B8 0B:00000009 0C:00000009 0D:00000008 12:22222222 13:33333333 14:44444444 15:55555555 16:66666666 17:77777777 18:88888888 19:99999999 1A:AAAAAAAA 1B:BBBBBBBB 1C:00000001 1D:000007D4 1E:00000009 1F:00000009
1DC: FCC40593  ADDI x11, x8, -52   00:00000000 01:000001D8 02:000007AC 05:0000001C 06:00000020 07:0000000A 08:000007EC 09:11111111 0A:0000000A 0B:00000009 0C:00000009 0D:00000008 12:22222222 13:33333333 14:44444444 15:55555555 16:66666666 17:77777777 18:88888888 19:99999999 1A:AAAAAAAA 1B:BBBBBBBB 1C:00000001 1D:000007D4 1E:00000009 1F:00000009
1E0: FB1FF0EF  JAL x1, -80         00:00000000 01:000001D8 02:000007AC 05:0000001C 06:00000020 07:0000000A 08:000007EC 09:11111111 0A:0000000A 0B:000007B8 0C:00000009 0D:00000008 12:22222222 13:33333333 14:44444444 15:55555555 16:66666666 17:77777777 18:88888888 19:99999999 1A:AAAAAAAA 1B:BBBBBBBB 1C:00000001 1D:000007D4 1E:00000009 1F:00000009
190: 00050C63  BEQ x10, x0, 24     00:00000000 01:000001E4 02:000007AC 05:0000001C 06:00000020 07:0000000A 08:000007EC 09:11111111 0A:0000000A 0B:000007B8 0C:00000009 0D:00000008 12:22222222 13:33333333 14:44444444 15:55555555 16:66666666 17:77777777 18:88888888 19:99999999 1A:AAAAAAAA 1B:BBBBBBBB 1C:00000001 1D:000007D4 1E:00000009 1F:00000009
194: 0005A283  LW x5, 0(x11)       00:00000000 01:000001E4 02:000007AC 05:0000001C 06:00000020 07:0000000A 08:000007EC 09:11111111 0A:0000000A 0B:000007B8 0C:00000009 0D:00000008 12:22222222 13:33333333 14:44444444 15:55555555 16:66666666 17:77777777 18:88888888 19:99999999 1A:AAAAAAAA 1B:BBBBBBBB 1C:00000001 1D:000007D4 1E:00000009 1F:00000009
198: 7E502E23  SW x5, 2044(x0)     00:00000000 01:000001E4 02:000007AC 05:00000001 06:00000020 07:0000000A 08:000007EC 09:11111111 0A:0000000A 0B:000007B8 0C:00000009 0D:00000008 12:22222222 13:33333333 14:44444444 15:55555555 16:66666666 17:77777777 18:88888888 19:99999999 1A:AAAAAAAA 1B:BBBBBBBB 1C:00000001 1D:000007D4 1E:00000009 1F:00000009
19C: 00458593  ADDI x11, x11, 4    00:00000000 01:000001E4 02:000007AC 05:00000001 06:00000020 07:0000000A 08:000007EC 09:11111111 0A:0000000A 0B:000007B8 0C:00000009 0D:00000008 12:22222222 13:33333333 14:44444444 15:55555555 16:66666666 17:77777777 18:88888888 19:99999999 1A:AAAAAAAA 1B:BBBBBBBB 1C:00000001 1D:000007D4 1E:00000009 1F:00000009
1A0: FFF50513  ADDI x10, x10, -1   00:00000000 01:000001E4 02:000007AC 05:00000001 06:00000020 07:0000000A 08:000007EC 09:11111111 0A:0000000A 0B:000007BC 0C:00000009 0D:00000008 12:22222222 13:33333333 14:44444444 15:55555555 16:66666666 17:77777777 18:88888888 19:99999999 1A:AAAAAAAA 1B:BBBBBBBB 1C:00000001 1D:000007D4 1E:00000009 1F:00000009
1A4: FEDFF06F  JAL x0, -20         00:00000000 01:000001E4 02:000007AC 05:00000001 06:00000020 07:0000000A 08:000007EC 09:11111111 0A:00000009 0B:000007BC 0C:00000009 0D:00000008 12:22222222 13:33333333 14:44444444 15:55555555 16:66666666 17:77777777 18:88888888 19:99999999 1A:AAAAAAAA 1B:BBBBBBBB 1C:00000001 1D:000007D4 1E:00000009 1F:00000009
190: 00050C63  BEQ x10, x0, 24     00:00000000 01:000001E4 02:000007AC 05:00000001 06:00000020 07:0000000A 08:000007EC 09:11111111 0A:00000009 0B:000007BC 0C:00000009 0D:00000008 12:22222222 13:33333333 14:44444444 15:55555555 16:66666666 17:77777777 18:88888888 19:99999999 1A:AAAAAAAA 1B:BBBBBBBB 1C:00000001 1D:000007D4 1E:00000009 1F:00000009
194: 0005A283  LW x5, 0(x11)       00:00000000 01:000001E4 02:000007AC 05:00000001 06:00000020 07:0000000A 08:000007EC 09:11111111 0A:00000009 0B:000007BC 0C:00000009 0D:00000008 12:22222222 13:33333333 14:44444444 15:55555555 16:66666666 17:77777777 18:88888888 19:99999999 1A:AAAAAAAA 1B:BBBBBBBB 1C:00000001 1D:000007D4 1E:00000009 1F:00000009
198: 7E502E23  SW x5, 2044(x0)     00:00000000 01:000001E4 02:000007AC 05:00000002 06:00000020 07:0000000A 08:000007EC 09:11111111 0A:00000009 0B:000007BC 0C:00000009 0D:00000008 12:22222222 13:33333333 14:44444444 15:55555555 16:66666666 17:77777777 18:88888888 19:99999999 1A:AAAAAAAA 1B:BBBBBBBB 1C:00000001 1D:000007D4 1E:00000009 1F:00000009
19C: 00458593  ADDI x11, x11, 4    00:00000000 01:000001E4 02:000007AC 05:00000002 06:00000020 07:0000000A 08:000007EC 09:11111111 0A:00000009 0B:000007BC 0C:00000009 0D:00000008 12:22222222 13:33333333 14:44444444 15:55555555 16:66666666 17:77777777 18:88888888 19:99999999 1A:AAAAAAAA 1B:BBBBBBBB 1C:00000001 1D:000007D4 1E:00000009 1F:00000009
1A0: FFF50513  ADDI x10, x10, -1   00:00000000 01:000001E4 02:000007AC 05:00000002 06:00000020 07:0000000A 08:000007EC 09:11111111 0A:00000009 0B:000007C0 0C:00000009 0D:00000008 12:22222222 13:33333333 14:44444444 15:55555555 16:66666666 17:77777777 18:88888888 19:99999999 1A:AAAAAAAA 1B:BBBBBBBB 1C:00000001 1D:000007D4 1E:00000009 1F:00000009
1A4: FEDFF06F  JAL x0, -20         00:00000000 01:000001E4 02:000007AC 05:00000002 06:00000020 07:0000000A 08:000007EC 09:11111111 0A:00000008 0B:000007C0 0C:00000009 0D:00000008 12:22222222 13:33333333 14:44444444 15:55555555 16:66666666 17:77777777 18:88888888 19:99999999 1A:AAAAAAAA 1B:BBBBBBBB 1C:00000001 1D:000007D4 1E:00000009 1F:00000009
190: 00050C63  BEQ x10, x0, 24     00:00000000 01:000001E4 02:000007AC 05:00000002 06:00000020 07:0000000A 08:000007EC 09:11111111 0A:00000008 0B:000007C0 0C:00000009 0D:00000008 12:22222222 13:33333333 14:44444444 15:55555555 16:66666666 17:77777777 18:88888888 19:99999999 1A:AAAAAAAA 1B:BBBBBBBB 1C:00000001 1D:000007D4 1E:00000009 1F:00000009
194: 0005A283  LW x5, 0(x11)       00:00000000 01:000001E4 02:000007AC 05:00000002 06:00000020 07:0000000A 08:000007EC 09:11111111 0A:00000008 0B:000007C0 0C:00000009 0D:00000008 12:22222222 13:33333333 14:44444444 15:55555555 16:66666666 17:77777777 18:88888888 19:99999999 1A:AAAAAAAA 1B:BBBBBBBB 1C:00000001 1D:000007D4 1E:00000009 1F:00000009
198: 7E502E23  SW x5, 2044(x0)     00:00000000 01:000001E4 02:000007AC 05:00000003 06:00000020 07:0000000A 08:000007EC 09:11111111 0A:00000008 0B:000007C0 0C:00000009 0D:00000008 12:22222222 13:33333333 14:44444444 15:55555555 16:66666666 17:77777777 18:88888888 19:99999999 1A:AAAAAAAA 1B:BBBBBBBB 1C:00000001 1D:000007D4 1E:00000009 1F:00000009
19C: 00458593  ADDI x11, x11, 4    00:00000000 01:000001E4 02:000007AC 05:00000003 06:00000020 07:0000000A 08:000007EC 09:11111111 0A:00000008 0B:000007C0 0C:00000009 0D:00000008 12:22222222 13:33333333 14:44444444 15:55555555 16:66666666 17:77777777 18:88888888 19:99999999 1A:AAAAAAAA 1B:BBBBBBBB 1C:00000001 1D:000007D4 1E:00000009 1F:00000009
1A0: FFF50513  ADDI x10, x10, -1   00:00000000 01:000001E4 02:000007AC 05:00000003 06:00000020 07:0000000A 08:000007EC 09:11111111 0A:00000008 0B:000007C4 0C:00000009 0D:00000008 12:22222222 13:33333333 14:44444444 15:55555555 16:66666666 17:77777777 18:88888888 19:99999999 1A:AAAAAAAA 1B:BBBBBBBB 1C:00000001 1D:000007D4 1E:00000009 1F:00000009
1A4: FEDFF06F  JAL x0, -20         00:00000000 01:000001E4 02:000007AC 05:00000003 06:00000020 07:0000000A 08:000007EC 09:11111111 0A:00000007 0B:000007C4 0C:00000009 0D:00000008 12:22222222 13:33333333 14:44444444 15:55555555 16:66666666 17:77777777 18:88888888 19:99999999 1A:AAAAAAAA 1B:BBBBBBBB 1C:00000001 1D:000007D4 1E:00000009 1F:00000009
190: 00050C63  BEQ x10, x0, 24     00:00000000 01:000001E4 02:000007AC 05:00000003 06:00000020 07:0000000A 08:000007EC 09:11111111 0A:00000007 0B:000007C4 0C:00000009 0D:00000008 12:22222222 13:33333333 14:44444444 15:55555555 16:66666666 17:77777777 18:88888888 19:99999999 1A:AAAAAAAA 1B:BBBBBBBB 1C:00000001 1D:000007D4 1E:00000009 1F:00000009
194: 0005A283  LW x5, 0(x11)       00:00000000 01:000001E4 02:000007AC 05:00000003 06:00000020 07:0000000A 08:000007EC 09:11111111 0A:00000007 0B:000007C4 0C:00000009 0D:00000008 12:22222222 13:33333333 14:44444444 15:55555555 16:66666666 17:77777777 18:88888888 19:99999999 1A:AAAAAAAA 1B:BBBBBBBB 1C:00000001 1D:000007D4 1E:00000009 1F:00000009
198: 7E502E23  SW x5, 2044(x0)     00:00000000 01:000001E4 02:000007AC 05:00000004 06:00000020 07:0000000A 08:000007EC 09:11111111 0A:00000007 0B:000007C4 0C:00000009 0D:00000008 12:22222222 13:33333333 14:44444444 15:55555555 16:66666666 17:77777777 18:88888888 19:99999999 1A:AAAAAAAA 1B:BBBBBBBB 1C:00000001 1D:000007D4 1E:00000009 1F:00000009
19C: 00458593  ADDI x11, x11, 4    00:00000000 01:000001E4 02:000007AC 05:00000004 06:00000020 07:0000000A 08:000007EC 09:11111111 0A:00000007 0B:000007C4 0C:00000009 0D:00000008 12:22222222 13:33333333 14:44444444 15:55555555 16:66666666 17:77777777 18:88888888 19:99999999 1A:AAAAAAAA 1B:BBBBBBBB 1C:00000001 1D:000007D4 1E:00000009 1F:00000009
1A0: FFF50513  ADDI x10, x10, -1   00:00000000 01:000001E4 02:000007AC 05:00000004 06:00000020 07:0000000A 08:000007EC 09:11111111 0A:00000007 0B:000007C8 0C:00000009 0D:00000008 12:22222222 13:33333333 14:44444444 15:55555555 16:66666666 17:77777777 18:88888888 19:99999999 1A:AAAAAAAA 1B:BBBBBBBB 1C:00000001 1D:000007D4 1E:00000009 1F:00000009
1A4: FEDFF06F  JAL x0, -20         00:00000000 01:000001E4 02:000007AC 05:00000004 06:00000020 07:0000000A 08:000007EC 09:11111111 0A:00000006 0B:000007C8 0C:00000009 0D:00000008 12:22222222 13:33333333 14:44444444 15:55555555 16:66666666 17:77777777 18:88888888 19:99999999 1A:AAAAAAAA 1B:BBBBBBBB 1C:00000001 1D:000007D4 1E:00000009 1F:00000009
190: 00050C63  BEQ x10, x0, 24     00:00000000 01:000001E4 02:000007AC 05:00000004 06:00000020 07:0000000A 08:000007EC 09:11111111 0A:00000006 0B:000007C8 0C:00000009 0D:00000008 12:22222222 13:33333333 14:44444444 15:55555555 16:66666666 17:77777777 18:88888888 19:99999999 1A:AAAAAAAA 1B:BBBBBBBB 1C:00000001 1D:000007D4 1E:00000009 1F:00000009
194: 0005A283  LW x5, 0(x11)       00:00000000 01:000001E4 02:000007AC 05:00000004 06:00000020 07:0000000A 08:000007EC 09:11111111 0A:00000006 0B:000007C8 0C:00000009 0D:00000008 12:22222222 13:33333333 14:44444444 15:55555555 16:66666666 17:77777777 18:88888888 19:99999999 1A:AAAAAAAA 1B:BBBBBBBB 1C:00000001 1D:000007D4 1E:00000009 1F:00000009
198: 7E502E23  SW x5, 2044(x0)     00:00000000 01:000001E4 02:000007AC 05:00000005 06:00000020 07:0000000A 08:000007EC 09:11111111 0A:00000006 0B:000007C8 0C:00000009 0D:00000008 12:22222222 13:33333333 14:44444444 15:55555555 16:66666666 17:77777777 18:88888888 19:99999999 1A:AAAAAAAA 1B:BBBBBBBB 1C:00000001 1D:000007D4 1E:00000009 1F:00000009
19C: 00458593  ADDI x11, x11, 4    00:00000000 01:000001E4 02:000007AC 05:00000005 06:00000020 07:0000000A 08:000007EC 09:11111111 0A:00000006 0B:000007C8 0C:00000009 0D:00000008 12:22222222 13:33333333 14:44444444 15:55555555 16:66666666 17:77777777 18:88888888 19:99999999 1A:AAAAAAAA 1B:BBBBBBBB 1C:00000001 1D:000007D4 1E:00000009 1F:00000009
1A0: FFF50513  ADDI x10, x10, -1   00:00000000 01:000001E4 02:000007AC 05:00000005 06:00000020 07:0000000A 08:000007EC 09:11111111 0A:00000006 0B:000007CC 0C:00000009 0D:00000008 12:22222222 13:33333333 14:44444444 15:55555555 16:66666666 17:77777777 18:88888888 19:99999999 1A:AAAAAAAA 1B:BBBBBBBB 1C:00000001 1D:000007D4 1E:00000009 1F:00000009
1A4: FEDFF06F  JAL x0, -20         00:00000000 01:000001E4 02:000007AC 05:00000005 06:00000020 07:0000000A 08:000007EC 09:11111111 0A:00000005 0B:000007CC 0C:00000009 0D:00000008 12:22222222 13:33333333 14:44444444 15:55555555 16:66666666 17:77777777 18:88888888 19:99999999 1A:AAAAAAAA 1B:BBBBBBBB 1C:00000001 1D:000007D4 1E:00000009 1F:00000009
190: 00050C63  BEQ x10, x0, 24     00:00000000 01:000001E4 02:000007AC 05:00000005 06:00000020 07:0000000A 08:000007EC 09:11111111 0A:00000005 0B:000007CC 0C:00000009 0D:00000008 12:22222222 13:33333333 14:44444444 15:55555555 16:66666666 17:77777777 18:88888888 19:99999999 1A:AAAAAAAA 1B:BBBBBBBB 1C:00000001 1D:000007D4 1E:00000009 1F:00000009
194: 0005A283  LW x5, 0(x11)       00:00000000 01:000001E4 02:000007AC 05:00000005 06:00000020 07:0000000A 08:000007EC 09:11111111 0A:00000005 0B:000007CC 0C:00000009 0D:00000008 12:22222222 13:33333333 14:44444444 15:55555555 16:66666666 17:77777777 18:88888888 19:99999999 1A:AAAAAAAA 1B:BBBBBBBB 1C:00000001 1D:000007D4 1E:00000009 1F:00000009
198: 7E502E23  SW x5, 2044(x0)     00:00000000 01:000001E4 02:000007AC 05:00000006 06:00000020 07:0000000A 08:000007EC 09:11111111 0A:00000005 0B:000007CC 0C:00000009 0D:00000008 12:22222222 13:33333333 14:44444444 15:55555555 16:66666666 17:77777777 18:88888888 19:99999999 1A:AAAAAAAA 1B:BBBBBBBB 1C:00000001 1D:000007D4 1E:00000009 1F:00000009
19C: 00458593  ADDI x11, x11, 4    00:00000000 01:000001E4 02:000007AC 05:00000006 06:00000020 07:0000000A 08:000007EC 09:11111111 0A:00000005 0B:000007CC 0C:00000009 0D:00000008 12:22222222 13:33333333 14:44444444 15:55555555 16:66666666 17:77777777 18:88888888 19:99999999 1A:AAAAAAAA 1B:BBBBBBBB 1C:00000001 1D:000007D4 1E:00000009 1F:00000009
1A0: FFF50513  ADDI x10, x10, -1   00:00000000 01:000001E4 02:000007AC 05:00000006 06:00000020 07:0000000A 08:000007EC 09:11111111 0A:00000005 0B:000007D0 0C:00000009 0D:00000008 12:22222222 13:33333333 14:44444444 15:55555555 16:66666666 17:77777777 18:88888888 19:99999999 1A:AAAAAAAA 1B:BBBBBBBB 1C:00000001 1D:000007D4 1E:00000009 1F:00000009
1A4: FEDFF06F  JAL x0, -20         00:00000000 01:000001E4 02:000007AC 05:00000006 06:00000020 07:0000000A 08:000007EC 09:11111111 0A:00000004 0B:000007D0 0C:00000009 0D:00000008 12:22222222 13:33333333 14:44444444 15:55555555 16:66666666 17:77777777 18:88888888 19:99999999 1A:AAAAAAAA 1B:BBBBBBBB 1C:00000001 1D:000007D4 1E:00000009 1F:00000009
190: 00050C63  BEQ x10, x0, 24     00:00000000 01:000001E4 02:000007AC 05:00000006 06:00000020 07:0000000A 08:000007EC 09:11111111 0A:00000004 0B:000007D0 0C:00000009 0D:00000008 12:22222222 13:33333333 14:44444444 15:55555555 16:66666666 17:77777777 18:88888888 19:99999999 1A:AAAAAAAA 1B:BBBBBBBB 1C:00000001 1D:000007D4 1E:00000009 1F:00000009
194: 0005A283  LW x5, 0(x11)       00:00000000 01:000001E4 02:000007AC 05:00000006 06:00000020 07:0000000A 08:000007EC 09:11111111 0A:00000004 0B:000007D0 0C:00000009 0D:00000008 12:22222222 13:33333333 14:44444444 15:55555555 16:66666666 17:77777777 18:88888888 19:99999999 1A:AAAAAAAA 1B:BBBBBBBB 1C:00000001 1D:000007D4 1E:00000009 1F:00000009
198: 7E502E23  SW x5, 2044(x0)     00:00000000 01:000001E4 02:000007AC 05:00000007 06:00000020 07:0000000A 08:000007EC 09:11111111 0A:00000004 0B:000007D0 0C:00000009 0D:00000008 12:22222222 13:33333333 14:44444444 15:55555555 16:66666666 17:77777777 18:88888888 19:99999999 1A:AAAAAAAA 1B:BBBBBBBB 1C:00000001 1D:000007D4 1E:00000009 1F:00000009
19C: 00458593  ADDI x11, x11, 4    00:00000000 01:000001E4 02:000007AC 05:00000007 06:00000020 07:0000000A 08:000007EC 09:11111111 0A:00000004 0B:000007D0 0C:00000009 0D:00000008 12:22222222 13:33333333 14:44444444 15:55555555 16:66666666 17:77777777 18:88888888 19:99999999 1A:AAAAAAAA 1B:BBBBBBBB 1C:00000001 1D:000007D4 1E:00000009 1F:00000009
1A0: FFF50513  ADDI x10, x10, -1   00:00000000 01:000001E4 02:000007AC 05:00000007 06:00000020 07:0000000A 08:000007EC 09:11111111 0A:00000004 0B:000007D4 0C:00000009 0D:00000008 12:22222222 13:33333333 14:44444444 15:55555555 16:66666666 17:77777777 18:88888888 19:99999999 1A:AAAAAAAA 1B:BBBBBBBB 1C:00000001 1D:000007D4 1E:00000009 1F:00000009
1A4: FEDFF06F  JAL x0, -20         00:00000000 01:000001E4 02:000007AC 05:00000007 06:00000020 07:0000000A 08:000007EC 09:11111111 0A:00000003 0B:000007D4 0C:00000009 0D:00000008 12:22222222 13:33333333 14:44444444 15:55555555 16:66666666 17:77777777 18:88888888 19:99999999 1A:AAAAAAAA 1B:BBBBBBBB 1C:00000001 1D:000007D4 1E:00000009 1F:00000009
190: 00050C63  BEQ x10, x0, 24     00:00000000 01:000001E4 02:000007AC 05:00000007 06:00000020 07:0000000A 08:000007EC 09:11111111 0A:00000003 0B:000007D4 0C:00000009 0D:00000008 12:22222222 13:33333333 14:44444444 15:55555555 16:66666666 17:77777777 18:88888888 19:99999999 1A:AAAAAAAA 1B:BBBBBBBB 1C:00000001 1D:000007D4 1E:00000009 1F:00000009
194: 0005A283  LW x5, 0(x11)       00:00000000 01:000001E4 02:000007AC 05:00000007 06:00000020 07:0000000A 08:000007EC 09:11111111 0A:00000003 0B:000007D4 0C:00000009 0D:00000008 12:22222222 13:33333333 14:44444444 15:55555555 16:66666666 17:77777777 18:88888888 19:99999999 1A:AAAAAAAA 1B:BBBBBBBB 1C:00000001 1D:000007D4 1E:00000009 1F:00000009
198: 7E502E23  SW x5, 2044(x0)     00:00000000 01:000001E4 02:000007AC 05:00000008 06:00000020 07:0000000A 08:000007EC 09:11111111 0A:00000003 0B:000007D4 0C:00000009 0D:00000008 12:22222222 13:33333333 14:44444444 15:55555555 16:66666666 17:77777777 18:88888888 19:99999999 1A:AAAAAAAA 1B:BBBBBBBB 1C:00000001 1D:000007D4 1E:00000009 1F:00000009
19C: 00458593  ADDI x11, x11, 4    00:00000000 01:000001E4 02:000007AC 05:00000008 06:00000020 07:0000000A 08:000007EC 09:11111111 0A:00000003 0B:000007D4 0C:00000009 0D:00000008 12:22222222 13:33333333 14:44444444 15:55555555 16:66666666 17:77777777 18:88888888 19:99999999 1A:AAAAAAAA 1B:BBBBBBBB 1C:00000001 1D:000007D4 1E:00000009 1F:00000009
1A0: FFF50513  ADDI x10, x10, -1   00:00000000 01:000001E4 02:000007AC 05:00000008 06:00000020 07:0000000A 08:000007EC 09:11111111 0A:00000003 0B:000007D8 0C:00000009 0D:00000008 12:22222222 13:33333333 14:44444444 15:55555555 16:66666666 17:77777777 18:88888888 19:99999999 1A:AAAAAAAA 1B:BBBBBBBB 1C:00000001 1D:000007D4 1E:00000009 1F:00000009
1A4: FEDFF06F  JAL x0, -20         00:00000000 01:000001E4 02:000007AC 05:00000008 06:00000020 07:0000000A 08:000007EC 09:11111111 0A:00000002 0B:000007D8 0C:00000009 0D:00000008 12:22222222 13:33333333 14:44444444 15:55555555 16:66666666 17:77777777 18:88888888 19:99999999 1A:AAAAAAAA 1B:BBBBBBBB 1C:00000001 1D:000007D4 1E:00000009 1F:00000009
190: 00050C63  BEQ x10, x0, 24     00:00000000 01:000001E4 02:000007AC 05:00000008 06:00000020 07:0000000A 08:000007EC 09:11111111 0A:00000002 0B:000007D8 0C:00000009 0D:00000008 12:22222222 13:33333333 14:44444444 15:55555555 16:66666666 17:77777777 18:88888888 19:99999999 1A:AAAAAAAA 1B:BBBBBBBB 1C:00000001 1D:000007D4 1E:00000009 1F:00000009
194: 0005A283  LW x5, 0(x11)       00:00000000 01:000001E4 02:000007AC 05:00000008 06:00000020 07:0000000A 08:000007EC 09:11111111 0A:00000002 0B:000007D8 0C:00000009 0D:00000008 12:22222222 13:33333333 14:44444444 15:55555555 16:66666666 17:77777777 18:88888888 19:99999999 1A:AAAAAAAA 1B:BBBBBBBB 1C:00000001 1D:000007D4 1E:00000009 1F:00000009
198: 7E502E23  SW x5, 2044(x0)     00:00000000 01:000001E4 02:000007AC 05:00000009 06:00000020 07:0000000A 08:000007EC 09:11111111 0A:00000002 0B:000007D8 0C:00000009 0D:00000008 12:22222222 13:33333333 14:44444444 15:55555555 16:66666666 17:77777777 18:88888888 19:99999999 1A:AAAAAAAA 1B:BBBBBBBB 1C:00000001 1D:000007D4 1E:00000009 1F:00000009
19C: 00458593  ADDI x11, x11, 4    00:00000000 01:000001E4 02:000007AC 05:00000009 06:00000020 07:0000000A 08:000007EC 09:11111111 0A:00000002 0B:000007D8 0C:00000009 0D:00000008 12:22222222 13:33333333 14:44444444 15:55555555 16:66666666 17:77777777 18:88888888 19:99999999 1A:AAAAAAAA 1B:BBBBBBBB 1C:00000001 1D:000007D4 1E:00000009 1F:00000009
1A0: FFF50513  ADDI x10, x10, -1   00:00000000 01:000001E4 02:000007AC 05:00000009 06:00000020 07:0000000A 08:000007EC 09:11111111 0A:00000002 0B:000007DC 0C:00000009 0D:00000008 12:22222222 13:33333333 14:44444444 15:55555555 16:66666666 17:77777777 18:88888888 19:99999999 1A:AAAAAAAA 1B:BBBBBBBB 1C:00000001 1D:000007D4 1E:00000009 1F:00000009
1A4: FEDFF06F  JAL x0, -20         00:00000000 01:000001E4 02:000007AC 05:00000009 06:00000020 07:0000000A 08:000007EC 09:11111111 0A:00000001 0B:000007DC 0C:00000009 0D:00000008 12:22222222 13:33333333 14:44444444 15:55555555 16:66666666 17:77777777 18:88888888 19:99999999 1A:AAAAAAAA 1B:BBBBBBBB 1C:00000001 1D:000007D4 1E:00000009 1F:00000009
190: 00050C63  BEQ x10, x0, 24     00:00000000 01:000001E4 02:000007AC 05:00000009 06:00000020 07:0000000A 08:000007EC 09:11111111 0A:00000001 0B:000007DC 0C:00000009 0D:00000008 12:22222222 13:33333333 14:44444444 15:55555555 16:66666666 17:77777777 18:88888888 19:99999999 1A:AAAAAAAA 1B:BBBBBBBB 1C:00000001 1D:000007D4 1E:00000009 1F:00000009
194: 0005A283  LW x5, 0(x11)       00:00000000 01:000001E4 02:000007AC 05:00000009 06:00000020 07:0000000A 08:000007EC 09:11111111 0A:00000001 0B:000007DC 0C:00000009 0D:00000008 12:22222222 13:33333333 14:44444444 15:55555555 16:66666666 17:77777777 18:88888888 19:99999999 1A:AAAAAAAA 1B:BBBBBBBB 1C:00000001 1D:000007D4 1E:00000009 1F:00000009
198: 7E502E23  SW x5, 2044(x0)     00:00000000 01:000001E4 02:000007AC 05:0000000A 06:00000020 07:0000000A 08:000007EC 09:11111111 0A:00000001 0B:000007DC 0C:00000009 0D:00000008 12:22222222 13:33333333 14:44444444 15:55555555 16:66666666 17:77777777 18:88888888 19:99999999 1A:AAAAAAAA 1B:BBBBBBBB 1C:00000001 1D:000007D4 1E:00000009 1F:00000009
19C: 00458593  ADDI x11, x11, 4    00:00000000 01:000001E4 02:000007AC 05:0000000A 06:00000020 07:0000000A 08:000007EC 09:11111111 0A:00000001 0B:000007DC 0C:00000009 0D:00000008 12:22222222 13:33333333 14:44444444 15:55555555 16:66666666 17:77777777 18:88888888 19:99999999 1A:AAAAAAAA 1B:BBBBBBBB 1C:00000001 1D:000007D4 1E:00000009 1F:00000009
1A0: FFF50513  ADDI x10, x10, -1   00:00000000 01:000001E4 02:000007AC 05:0000000A 06:00000020 07:0000000A 08:000007EC 09:11111111 0A:00000001 0B:000007E0 0C:00000009 0D:00000008 12:22222222 13:33333333 14:44444444 15:55555555 16:66666666 17:77777777 18:88888888 19:99999999 1A:AAAAAAAA 1B:BBBBBBBB 1C:00000001 1D:000007D4 1E:00000009 1F:00000009
1A4: FEDFF06F  JAL x0, -20         00:00000000 01:000001E4 02:000007AC 05:0000000A 06:00000020 07:0000000A 08:000007EC 09:11111111 0A:00000000 0B:000007E0 0C:00000009 0D:00000008 12:22222222 13:33333333 14:44444444 15:55555555 16:66666666 17:77777777 18:88888888 19:99999999 1A:AAAAAAAA 1B:BBBBBBBB 1C:00000001 1D:000007D4 1E:00000009 1F:00000009
190: 00050C63  BEQ x10, x0, 24     00:00000000 01:000001E4 02:000007AC 05:0000000A 06:00000020 07:0000000A 08:000007EC 09:11111111 0A:00000000 0B:000007E0 0C:00000009 0D:00000008 12:22222222 13:33333333 14:44444444 15:55555555 16:66666666 17:77777777 18:88888888 19:99999999 1A:AAAAAAAA 1B:BBBBBBBB 1C:00000001 1D:000007D4 1E:00000009 1F:00000009
1A8: 00008067  JALR x0, 0(x1)      00:00000000 01:000001E4 02:000007AC 05:0000000A 06:00000020 07:0000000A 08:000007EC 09:11111111 0A:00000000 0B:000007E0 0C:00000009 0D:00000008 12:22222222 13:33333333 14:44444444 15:55555555 16:66666666 17:77777777 18:88888888 19:99999999 1A:AAAAAAAA 1B:BBBBBBBB 1C:00000001 1D:000007D4 1E:00000009 1F:00000009
1E4: 00000513  ADDI x10, x0, 0     00:00000000 01:000001E4 02:000007AC 05:0000000A 06:00000020 07:0000000A 08:000007EC 09:11111111 0A:00000000 0B:000007E0 0C:00000009 0D:00000008 12:22222222 13:33333333 14:44444444 15:55555555 16:66666666 17:77777777 18:88888888 19:99999999 1A:AAAAAAAA 1B:BBBBBBBB 1C:00000001 1D:000007D4 1E:00000009 1F:00000009
1E8: 03812403  LW x8, 56(x2)       00:00000000 01:000001E4 02:000007AC 05:0000000A 06:00000020 07:0000000A 08:000007EC 09:11111111 0A:00000000 0B:000007E0 0C:00000009 0D:00000008 12:22222222 13:33333333 14:44444444 15:55555555 16:66666666 17:77777777 18:88888888 19:99999999 1A:AAAAAAAA 1B:BBBBBBBB 1C:00000001 1D:000007D4 1E:00000009 1F:00000009
1EC: 03C12083  LW x1, 60(x2)       00:00000000 01:000001E4 02:000007AC 05:0000000A 06:00000020 07:0000000A 08:000007EC 09:11111111 0A:00000000 0B:000007E0 0C:00000009 0D:00000008 12:22222222 13:33333333 14:44444444 15:55555555 16:66666666 17:77777777 18:88888888 19:99999999 1A:AAAAAAAA 1B:BBBBBBBB 1C:00000001 1D:000007D4 1E:00000009 1F:00000009
1F0: 04010113  ADDI x2, x2, 64     00:00000000 01:0000003C 02:000007AC 05:0000000A 06:00000020 07:0000000A 08:000007EC 09:11111111 0A:00000000 0B:000007E0 0C:00000009 0D:00000008 12:22222222 13:33333333 14:44444444 15:55555555 16:66666666 17:77777777 18:88888888 19:99999999 1A:AAAAAAAA 1B:BBBBBBBB 1C:00000001 1D:000007D4 1E:00000009 1F:00000009
1F4: 00008067  JALR x0, 0(x1)      00:00000000 01:0000003C 02:000007EC 05:0000000A 06:00000020 07:0000000A 08:000007EC 09:11111111 0A:00000000 0B:000007E0 0C:00000009 0D:00000008 12:22222222 13:33333333 14:44444444 15:55555555 16:66666666 17:77777777 18:88888888 19:99999999 1A:AAAAAAAA 1B:BBBBBBBB 1C:00000001 1D:000007D4 1E:00000009 1F:00000009
03C: 00100073  EBREAK              00:00000000 01:0000003C 02:000007EC 05:0000000A 06:00000020 07:0000000A 08:000007EC 09:11111111 0A:00000000 0B:000007E0 0C:00000009 0D:00000008 12:22222222 13:33333333 14:44444444 15:55555555 16:66666666 17:77777777 18:88888888 19:99999999 1A:AAAAAAAA 1B:BBBBBBBB 1C:00000001 1D:000007D4 1E:00000009 1F:00000009

===============================================================================
                         Final Simulation State
===============================================================================
Processor State (e.g., Registers)
---------------------------------
PC: 00000040
00:00000000 01:0000003C 02:000007EC 05:0000000A 06:00000020 07:0000000A 08:000007EC 09:11111111
0A:00000000 0B:000007E0 0C:00000009 0D:00000008 12:22222222 13:33333333 14:44444444 15:55555555
16:66666666 17:77777777 18:88888888 19:99999999 1A:AAAAAAAA 1B:BBBBBBBB 1C:00000001 1D:000007D4
1E:00000009 1F:00000009

RAM
---
13 01 C0 7E 13 04 01 00 B7 14 11 11 93 84 14 11
33 89 94 00 B3 09 99 00 33 8A 99 00 B3 0A 9A 00
33 8B 9A 00 B3 0B 9B 00 33 8C 9B 00 B3 0C 9C 00
33 8D 9C 00 B3 0D 9D 00 EF 00 40 17 73 00 10 00
13 01 01 FE 23 2E 11 00 03 AF 05 00 83 2F 06 00
23 A0 F5 01 23 20 E6 01 83 20 C1 01 13 01 01 02
67 80 00 00 13 01 01 FE 23 2E 11 00 23 2C 91 00
23 2A 21 01 23 28 31 01 23 26 41 01 23 24 51 01
23 22 B1 00 23 20 C1 00 13 0A 20 00 33 13 46 01
B3 0A 65 00 03 A9 0A 00 93 84 05 00 93 89 F5 FF
63 DE C4 02 B3 92 44 01 B3 0E 55 00 83 AF 0E 00
63 D2 2F 03 93 89 19 00 33 93 49 01 B3 05 65 00
13 86 0E 00 EF F0 DF F7 83 25 41 00 03 26 01 00
6F 00 40 00 93 84 14 00 6F F0 9F FC 93 89 19 00
33 93 49 01 B3 05 65 00 13 86 0A 00 EF F0 5F F5
83 25 41 00 03 26 01 00 13 85 09 00 83 24 81 01
03 29 41 01 83 29 01 01 03 2A C1 00 83 2A 81 00
83 20 C1 01 13 01 01 02 67 80 00 00 13 01 01 FE
23 2E 11 00 23 2A C1 00 23 26 A1 00 63 D4 C5 02
EF F0 5F F3 93 06 05 00 03 25 C1 00 13 86 F6 FF
EF F0 DF FD 93 85 16 00 03 26 41 01 EF F0 1F FD
03 26 41 01 83 20 C1 01 13 01 01 02 67 80 00 00
93 02 05 00 03 25 C0 7F 13 03 A0 00 93 03 00 00
63 DE 63 00 63 DC A3 00 03 2E C0 7F 23 A0 C2 01
93 82 42 00 93 83 13 00 6F F0 9F FE 67 80 00 00
63 0C 05 00 83 A2 05 00 23 2E 50 7E 93 85 45 00
13 05 F5 FF 6F F0 DF FE 67 80 00 00 13 01 01 FC
23 2E 11 02 23 2C 81 02 13 04 01 04 13 05 C4 FC
EF F0 1F FA 23 24 A4 FC 13 06 F5 FF 93 05 00 00
13 05 C4 FC EF F0 9F F4 03 25 84 FC 93 05 C4 FC
EF F0 1F FB 13 05 00 00 03 24 81 03 83 20 C1 03
13 01 01 04 67 80 00 00 XX XX XX XX XX XX XX XX
XX XX XX XX XX XX XX XX XX XX XX XX XX XX XX XX
XX XX XX XX XX XX XX XX XX XX XX XX XX XX XX XX
XX XX XX XX XX XX XX XX XX XX XX XX XX XX XX XX
XX XX XX XX XX XX XX XX XX XX XX XX XX XX XX XX
XX XX XX XX XX XX XX XX XX XX XX XX XX XX XX XX
XX XX XX XX XX XX XX XX XX XX XX XX XX XX XX XX
XX XX XX XX XX XX XX XX XX XX XX XX XX XX XX XX
XX XX XX XX XX XX XX XX XX XX XX XX XX XX XX XX
XX XX XX XX XX XX XX XX XX XX XX XX XX XX XX XX
XX XX XX XX XX XX XX XX XX XX XX XX XX XX XX XX
XX XX XX XX XX XX XX XX XX XX XX XX XX XX XX XX
XX XX XX XX XX XX XX XX XX XX XX XX XX XX XX XX
XX XX XX XX XX XX XX XX XX XX XX XX XX XX XX XX
XX XX XX XX XX XX XX XX XX XX XX XX XX XX XX XX
XX XX XX XX XX XX XX XX XX XX XX XX XX XX XX XX
XX XX XX XX XX XX XX XX XX XX XX XX XX XX XX XX
XX XX XX XX XX XX XX XX XX XX XX XX XX XX XX XX
XX XX XX XX XX XX XX XX XX XX XX XX XX XX XX XX
XX XX XX XX XX XX XX XX XX XX XX XX XX XX XX XX
XX XX XX XX XX XX XX XX XX XX XX XX XX XX XX XX
XX XX XX XX XX XX XX XX XX XX XX XX XX XX XX XX
XX XX XX XX XX XX XX XX XX XX XX XX XX XX XX XX
XX XX XX XX XX XX XX XX XX XX XX XX XX XX XX XX
XX XX XX XX XX XX XX XX XX XX XX XX XX XX XX XX
XX XX XX XX XX XX XX XX XX XX XX XX XX XX XX XX
XX XX XX XX XX XX XX XX XX XX XX XX XX XX XX XX
XX XX XX XX XX XX XX XX XX XX XX XX XX XX XX XX
XX XX XX XX XX XX XX XX XX XX XX XX XX XX XX XX
XX XX XX XX XX XX XX XX XX XX XX XX XX XX XX XX
XX XX XX XX XX XX XX XX XX XX XX XX XX XX XX XX
XX XX XX XX XX XX XX XX XX XX XX XX XX XX XX XX
XX XX XX XX XX XX XX XX XX XX XX XX XX XX XX XX
XX XX XX XX XX XX XX XX XX XX XX XX XX XX XX XX
XX XX XX XX XX XX XX XX XX XX XX XX XX XX XX XX
XX XX XX XX XX XX XX XX XX XX XX XX XX XX XX XX
XX XX XX XX XX XX XX XX XX XX XX XX XX XX XX XX
XX XX XX XX XX XX XX XX XX XX XX XX XX XX XX XX
XX XX XX XX XX XX XX XX XX XX XX XX XX XX XX XX
XX XX XX XX XX XX XX XX XX XX XX XX XX XX XX XX
XX XX XX XX XX XX XX XX XX XX XX XX XX XX XX XX
XX XX XX XX XX XX XX XX XX XX XX XX XX XX XX XX
XX XX XX XX XX XX XX XX XX XX XX XX XX XX XX XX
XX XX XX XX XX XX XX XX XX XX XX XX XX XX XX XX
XX XX XX XX XX XX XX XX XX XX XX XX XX XX XX XX
XX XX XX XX XX XX XX XX XX XX XX XX XX XX XX XX
XX XX XX XX XX XX XX XX XX XX XX XX XX XX XX XX
XX XX XX XX XX XX XX XX XX XX XX XX XX XX XX XX
XX XX XX XX XX XX XX XX XX XX XX XX XX XX XX XX
XX XX XX XX XX XX XX XX XX XX XX XX XX XX XX XX
XX XX XX XX XX XX XX XX XX XX XX XX XX XX XX XX
XX XX XX XX XX XX XX XX XX XX XX XX XX XX XX XX
XX XX XX XX XX XX XX XX XX XX XX XX XX XX XX XX
XX XX XX XX XX XX XX XX XX XX XX XX XX XX XX XX
XX XX XX XX XX XX XX XX XX XX XX XX XX XX XX XX
XX XX XX XX XX XX XX XX XX XX XX XX XX XX XX XX
XX XX XX XX XX XX XX XX XX XX XX XX XX XX XX XX
XX XX XX XX XX XX XX XX XX XX XX XX XX XX XX XX
XX XX XX XX XX XX XX XX XX XX XX XX XX XX XX XX
XX XX XX XX XX XX XX XX XX XX XX XX XX XX XX XX
XX XX XX XX XX XX XX XX XX XX XX XX XX XX XX XX
XX XX XX XX XX XX XX XX XX XX XX XX XX XX XX XX
XX XX XX XX XX XX XX XX XX XX XX XX XX XX XX XX
XX XX XX XX XX XX XX XX XX XX XX XX XX XX XX XX
XX XX XX XX XX XX XX XX XX XX XX XX XX XX XX XX
XX XX XX XX XX XX XX XX XX XX XX XX XX XX XX XX
XX XX XX XX XX XX XX XX XX XX XX XX XX XX XX XX
XX XX XX XX XX XX XX XX XX XX XX XX XX XX XX XX
XX XX XX XX XX XX XX XX XX XX XX XX XX XX XX XX
XX XX XX XX XX XX XX XX XX XX XX XX XX XX XX XX
XX XX XX XX XX XX XX XX XX XX XX XX XX XX XX XX
XX XX XX XX XX XX XX XX F0 00 00 00 06 00 00 00
05 00 00 00 55 55 55 55 B8 07 00 00 33 33 33 33
06 00 00 00 11 11 11 11 50 01 00 00 06 00 00 00
04 00 00 00 55 55 55 55 B8 07 00 00 33 33 33 33
06 00 00 00 11 11 11 11 50 01 00 00 06 00 00 00
03 00 00 00 55 55 55 55 B8 07 00 00 33 33 33 33
06 00 00 00 11 11 11 11 50 01 00 00 07 00 00 00
03 00 00 00 55 55 55 55 B8 07 00 00 33 33 33 33
07 00 00 00 11 11 11 11 F0 00 00 00 08 00 00 00
07 00 00 00 55 55 55 55 B8 07 00 00 33 33 33 33
08 00 00 00 11 11 11 11 50 01 00 00 08 00 00 00
02 00 00 00 55 55 55 55 B8 07 00 00 33 33 33 33
08 00 00 00 11 11 11 11 50 01 00 00 08 00 00 00
01 00 00 00 55 55 55 55 B8 07 00 00 33 33 33 33
08 00 00 00 11 11 11 11 50 01 00 00 09 00 00 00
01 00 00 00 55 55 55 55 B8 07 00 00 33 33 33 33
09 00 00 00 11 11 11 11 50 01 00 00 09 00 00 00
00 00 00 00 55 55 55 55 B8 07 00 00 33 33 33 33
09 00 00 00 11 11 11 11 50 01 00 00 XX XX XX XX
XX XX XX XX XX XX XX XX B8 07 00 00 XX XX XX XX
09 00 00 00 XX XX XX XX D8 01 00 00 XX XX XX XX
XX XX XX XX 0A 00 00 00 01 00 00 00 02 00 00 00
03 00 00 00 04 00 00 00 05 00 00 00 06 00 00 00
07 00 00 00 08 00 00 00 09 00 00 00 0A 00 00 00
XX XX XX XX EC 07 00 00 3C 00 00 00

StdIO
-----
Output:
00000001 00000002 00000003 00000004 00000005 00000006 00000007 00000008
00000009 0000000A

1610 instructions simulated.
